(lp0
S'UCUAAAAUAAUAGGCGACAUACUGACCCUCCCGGACUUCAUAAGCGAAAUUAGAGAAUGCUGGUCUAAGCUCACAGCCACCCGAUAGCGGAGACGCGCUG'
p1
aS'CCCGUGCAUUUCAUCAGUACUUUUGUUGAAGCUCGAUUGGGCUCCACAUGUGGCUUCGCAUUUCGAACUUCCUAGGUUCGCAGUCUCACACGUACCCGCA'
p2
aS'AACCACAUACGCUCGAAUCUAUUAACGGCGUGGUCGGAAUCAAGAACCAUAGCUUCAACCCGGUAAGCCUGUUUAUUCAGCCUAUCACCUCAAUUGGAAU'
p3
aS'UGUCUAAGAGGUGAAUAAGAUUGUUAUCUUCUGGACGCUCAAUAGGGCAGCAAUCGACGGCUCCGAACGCCAUUCAGUAGUUCGAGCAGCAGACAUGAUC'
p4
aS'AGGACUGUGCCCUUGAAGCUAGAGCACGAUCUCCUAUGCCCUGAGUCAUAGCAGGGCGUCGGAAGCUGAAUACACAUAAUAGGAUGUGCCUCUUGACAGG'
p5
aS'AACUCCGCUAUAUGGCAUUCUAACCGUCCUGGAUCAACAUUCCACCGUGAUGCAUGAAUUCUCGACAUACAAAGUAUGUUAUCCAUUCAGGACCGCAUGG'
p6
aS'CCCUUCCAUGGCCAGUCUGCGGUAGGUCUCUCCGAAGCUGAGCUGUCUGCAGUCAUCCUGCCCCAUAGCGGAGCUCCCUGCCUAGUGGACUCGUAAUCGG'
p7
aS'UCAUACGAGCAAUCCCGCCCACGAACCCACGGGAUCCCUCCUAAGGUUGGUUCUGCUUUCAGGUUGGUCUUGUAUGACCAAACAAUCGGUAAACCACCAG'
p8
aS'AGCAACCGACUAAAAGCUCUGGUAACUACGCUCCUGAGUUUUAAGAUCGUGACGCAAGGAGAAGUUUACUAAGGUGUGGUCCUUUUCACUUGUCUCUCGG'
p9
aS'GCUGAGUGUGGCCUACCCAUCAGGCAAGAGCCGGCUGAUAUAGGGCGUAAGAAUAGUAAGGCGAUAGAUUAACGUAUCUCUACGAAGGAAUAACGCGAUU'
p10
aS'CCCCUCGUAGAGGAACCACGGGGCUGGUUUGCCUUACGUGUGUCCUAUCAAGCUUACUCGUAUGCCUUGCCAUAUGUACGUCCAUAGAUUUGUUAGAAAG'
p11
aS'UUGCAUACCUGCGAUGGUUCCGCUCCUAGGAGGCAGCGAAGUGAGGGUUGAUCUCUGUAGAUCCGCGGGAGACUUUUAUACGUUGUUACCCAAGUAUGGG'
p12
aS'GUUGGACUCUUGUCGGCGGAGCUCACACGCUUUGGGAAAAAAAUCGUGUUAGAGGCAGUGAGUCGGCUAGCCGUCGUGGGGCGGUUAACUAAAGACCACG'
p13
aS'GCGCGAUCAGGAGAUUUGUACCAGAGAGGUAUGCCUCUGUAUCGACGUUUACCAUGUGUGAAGACAAUGAUGCACUCACAUGACAAUUCGGCACGAGUGA'
p14
aS'GUUCCUCCUGUUGCUUACUGCAGGCCCGCAUGUAUGGCCCGCUAAGGUACUUCCCGUAACAGCAGGCAUUGUAUAAAUGAAUCUUGAGCAGUUGGUUUCC'
p15
aS'AACGUAUGACAAAGUAACGUGAACAGGCCUGAUAGACCCGACAGCUCUGAUUCAUCUUCAAAUAUGGUGAACAAUAAUCUAUAGUAUAUACGGAAGGGGG'
p16
aS'GUUUCUUCAAAAGUAGAACGAUUAGGUCGAAUGAGUUCGAAGGACUCAUUUUACGGUUUGCUGUCGAUCUUAAGUCAAAUAUUAGGGCUUGGCCUUCGCG'
p17
aS'ACAGUAGACCAUGAUGAAUACAGCAUACAGUUGGUAUUCGAAGCUCAACUCGGGCCCUAGGAUUCCCCAGUGGUCUAGCCAACCCAUUGGCUCGACUAGA'
p18
aS'UACUCGACCCUCUGCAUAUAAAGGCCAGCCGGCUACGGCAUUUCAGGUGGAUCCGCAAGUGCUCAGAGAAGCUUCUACGCCGAACUUGGACGGUGGUGGG'
p19
aS'ACACACAUGGAAUGCCCUAGUUCACGAUUCAUGCGCGCUGUAGUGUGGCGCGUACCUAUACGUAUGACGCUUCGGAUAGUUAAUCGGCUGACGGAGUGGU'
p20
aS'CGGUGAUAAAUCUUAAUUAAGUUUCCAGAAAAUCGGGGGUCAGUUGACAGGCUGGUUACAGACUCUCGUUAAGGGAGUUAUGUCAAAUGAGUCUGCUAUG'
p21
aS'CGAAUUUCUGGAUCCGUAUACCUGGCGUGUUGACUGAGCCGCGGACAAACUGGUACACCACAAGCUUGGGAGCCUAGCACAAAGUCUACCAACAGAAUCC'
p22
aS'GGCGUGAUAAUCACGAAGCCCUCACAAGCGACUGGGCGUUUACUCGCUGCGUACCCCUGAGAGCGGUUACUAUGUGAUUUACGAGACGUAUGCUGGGUUU'
p23
aS'AACUUUGGUCUACGCGUUGUUCUGCAGUUGUUCACUCCAAGGAGCUGGGCAGUUAUAGUGCCUAGGACAUGUCACAACGGAUCGCAACCCUAUCGGACGG'
p24
aS'GUGCAGCAAGCCAGCGUCGCGUAGCAUCACUGCUAAAAACGGCUCCCCUCUGAUGACCUACCGGAGCUUUCAUCUUAAAUCUCCCCUGUUACUUCGGUUA'
p25
aS'UCGAUUGCAAGGCCCAUCCGUUGAGCAUCACUCUACUUGUACAUGAGCAAAGCUCAGUAAUGUACUAAAAGUCUUAUACCUUUGUAAGGGCGUCACUGGC'
p26
aS'CCGGGUGAGGUAGAGAUGCUACUAGGUGGACGUCUCGACAGGCUCCGAACGCGCAAAUUCACGACUACCCGUCGAUUAAGCUCGGCCCAACGCGCCGGUU'
p27
aS'GACACGUUAGUGGCGCUGGGAGGGCCCUCUAUGUGCAUCUUGCAGUGACUACUCGAAUCUAGGCCCUAGUCCUACUUUCACUUUCGUGUUCCUAAUUAGU'
p28
aS'CCACCGUAUAGUCGUCUCCUCGGCACGCACGAACAUCAACUGAGGUCCUCAUCGGAGCCGCUUAAAUGGCUUCACCUAUUCGCCAGGUGCACGCGUCAAC'
p29
aS'CCAGGCUCGAAGUAUGACAUCAUGCGCGCGCAGUCCCCUUUCUUGACGAUCAGCUCCCGAAAGUCAAAAUAGGUUCGCAUAAACUAAGUCGGCAUUUUCA'
p30
aS'UUUCACCCUCAGGGCUCACUUGAGUCAUGAAAGCGCAACCAGGUGGGCACCUAGUGGCUAACAUUACGGGACAUCCACAGACCACCUUGCUAUCCACGAA'
p31
aS'CGCGUUUAGGUUUCGAGGAUGCGCUUCCCUAAGGGCAUAUGCUCUACCAUCCAAAAGACCUAAGGUUCUCCUUUGCUUACGGGAUGGAUUUUACGAAGAU'
p32
aS'AAGCAAGCACUUCGGACCCCGUCAAUAUGGUCGGACACUGCAGAAGAGAACAUAAUUAGCCUAGAAUGAAGUCCUCUGGGCUAUGUAUAUACCCUCGAUC'
p33
aS'AUGUUCAUGUCUAACUCGGGUGUGCACCAAAGUGCUUGAUCUCACACACUGGAGUAUCGAAACGAUGCGUGCAAGGAACGAUCAUAGAUCAGACCCUAAA'
p34
aS'CCAGAUGUUCAAAGAACCUCAUCAUGUAGAUAGAGGUAGCUAACUAAUUAAAGCUAUUCGAAUCAGUCGCUUUGAACGUAUACGCUCCGUGUACAUGACA'
p35
aS'ACUUGUUCCUGGGGAUGUGCGUAAAGGUAGUCGCUUAUAACCUGAUUUAUGACCACCGUCUUGCCAGCCUUGGCAGGGAGAAUCCUCGUUGAAACGGCUG'
p36
aS'CGCGUAUGCGGUCUCAAUUGAAAGUUUCGGAGGCUCCUAUGGGUCCGGUGUUCUCGACCUAGGGCAAUACCUUCAACACAUACAUAAUCCCCCUUAUGCG'
p37
aS'GCUAAGCGACGCUACCUUCCAAUGUUAAGUUGUAAUUGAACCCACUAAGAGUGUGGCAGAUACCAUUAAAUCUUGAACUUUGUCCAUUAUUGCUAAUAAC'
p38
aS'UGCCGAGUUCAGAUCUCAAAGAAGUGCGUGGACACAAGAUGGUCUGGGGACUAUAGGUUCGGCGCAGUUAUCAAAUCAGGUGCUAAGGGUGGAAGCUGAA'
p39
aS'UUGGAUAGUACAGAUUAAAUCUAACACCUCCUAUAUGCUACCUCGCAAUUAGGUAACUUUACGUACGCAUGUCGUGGUGCUACACAGCUGCGGACGAUUG'
p40
aS'CCACGUCUGUUAGGCUAAAUGGUUCAGGACGUCGUGAAGGAUGCAUCAGAGCAUCGGUUGGAUUUGGUCAUGACAGUAAGAGCUCGGAGUAAGUCAUAUA'
p41
aS'AGAUAACCAAUCUUCCGUUGGAAAUGUCUCUGACGCAGGUGCUGCCGGAGUCGUAGACAUUCAAAUACCAAGCCGGAUCAUAGCGAAAAUCGCCACGCCG'
p42
aS'ACAUCUAUUCCGGGCUAUGUGGAUGGCCAUCUCCAAGUGCGAUUAUUGAUUUAACACGGAAGGAGGGACACUAAAGGAGACGUACUUAAAACUUCGCGGA'
p43
aS'GCAUCUUUGACAUAAAGUGACUAACCAUAUUAAGACCUGCGGUCACAAACAGCAUGAGCCCUUUCCUGCCAUUGUACCCCGGAUGGACUACGCAGUCUGA'
p44
aS'UGUCGUGGCAGGAUGCCGCCUCAGAGUCAAAUCCAUCAACCGCCGUCCAGAACUACAGUACGUAGUCCACGGGGAUAUUUUCGCCUUCCGCAUGAUUACG'
p45
aS'CAUUGUUAUAUCCAUAGCAAUCGUUCUUCAUACGGGCAGUUCACUCCCACGAAGCAGAGAUCCUCAUUAUAGGUCUUUCGUGUGGGAGCCUGAUGAUAAG'
p46
aS'AUAUUAAUCGGAAGGCAGAUUACAGGGGCAGAAGAUGAUACGAUAGAAAGGUCUACCUUCGGGGUGAUAGGUUUUCUUCGCGAGCGUACGCGCGUAACGA'
p47
aS'CUUCAUCCACUUCUAUUAUAAACCAACCUGAUGACCUCGUUUCGUUGUCUACAUACCCUCACAGUAAGUGGACCCACUAAAAGCACCUGUUUUAAGGCUA'
p48
aS'CGCCAGUCUUCGCCCGCCGGUCGCCUAAUCAUAGUUCGGGGUGACGCCAAUUGUAGUACCGUUCUUGCGUGCGUGGAUUGCCUGUGAAAUCUCUAGCGUG'
p49
aS'UGUGGGAAUUAUCUGCCCCCGGAAUUAUUCCCGUUAGAACUCUGCAACGUUGAAUAUAUUAAAGGAGGUCGCCUGGCGAAUGACCGAAGACCGUACCGUA'
p50
aS'AAACGCGUCAGAUCCUUCUCUAGGCUUAAUUUCAACCACUGGCCUUCUGGGCCAUAUCCUCGCUGAGCGCCGAAGAUAUGCCUUAUGUUUGAAAGUAAGA'
p51
aS'GCUUUAUUGGGCCAUGGUAGGGAGUAGUGAGAAUCGAAGCACCCUAAGCAUACCCGUUAGGGGAGUGGGUGCCAUCACCGCAAUAACUGAUACAUCCCCU'
p52
aS'CGACGCCAUAUGGUUUAACGAGUAACCAGUACUAAGAUGCGUCAGACAGGAUUGCCCCCAUCCUGCACAGAGCAGGGGAAACAUUGACUAGCUUUGUGGC'
p53
aS'UCCCCAUAGGAUUCGUAUUGUAGUACGUUGCUUCCGGCUUGCUGUCCCCCUAUAGGAUUUGAAUGCGUAGGGCGUCAAUGAUCUUCCAGCGACGGGAUGU'
p54
aS'AUCCCUACUCUAAUGGGCUGCUUGUUCUGCGUAGUUCGCCGAUCGAGCUGCCUGCUAACGCGACAUAGUUUUUUCAAUACGUAACGAAGCACUCACAGAC'
p55
aS'UUUUUUAACUUGGUUAAGCGGGGUAUUGCAAAAGGAAACCAAGGAAGGACAUGGGCUUAAAUCAGGUUAAAGACGAGCGCAUGAGAGAAAACUAUACUCG'
p56
aS'ACGGACAAAUCAUCCACCACAGUUAUGGAGACAGAGUGUCAGCACAUGUACGUCCAGUGUAUGACAACGCGCAGGGUACCACGGUAACAGUGCUUUAAGU'
p57
aS'GAGGCGUCCUACCACCUAAAAGCAGCUCCACCAAAGUCACCAAUCCUGUAAGGAUUCGUUUAACUAAUGUUAGUCAGCCGCAAAUGCGCCUCCUUACCCA'
p58
aS'CUGCUGAAGCAGGUCUGUCCAUAGAAUGGUGGAUAGCGUACUGUAGUACCGAUCUAAUGUUCGGAGCCAUAACGAAGUUUACACGAUGCCACUCUACUGA'
p59
aS'AAGGGCAUUUACAAGCCGCUAUAACCAACUAGAUCGAGAAACGACAGACACCCAAGGCUUCGAGCAGAGUCCGUCGAAGAUGCACCUGGUCGCACAUUGU'
p60
aS'CUAAAUGAGGGCACACUAUAGUACUUGAUGGUGGAAAGCUUCAGCUCCCGCGCACAAAAAGACCUUCCGAGCACUUGUUUCUGACCCGUAAAGCUUUUGC'
p61
aS'ACAAUAAUUAUACAAGGGCGCCAUCUGAAUACACUGCGAUAUUGCUACGCAUUGCCUUUAACCAGCUUAUUGUCAGAUAACCAUCGUCUAACGAGCCUGU'
p62
aS'GCUGGUCUACGCACCACCUUUCGACACGGGACGGUGUGCACCGGUGUCAAUUUAGGGAGCACACGGGAAUGUAGCCCAGAACUAGCUGAUCGUGCGAAUA'
p63
aS'UCGUUACGUAUCCCCCGCAAUGGCGAGAUUAAGCUACCCGGUCGUAGGAAACACGAAACUUUACUGGAUGGCAUGCACCUCUGCGCGGGACGGAGGGACC'
p64
aS'GGCGACACAUUCACGUCUAGGCCUGACGAAUCGUACAAUGUAUCGGUCUACAGAUACGGAACGCAUAGUAUCUAACGUCUCAGGGCGAAGUCUAAGAUGA'
p65
aS'GAGCAGCCCACGGAUGUGACCUGACUUAAUACGUAAUAGCGAGAAUACAGAGUAGCGAGUACCGCUUUCUUACCUGCGCUGGCGCUCUAAUACGUGGGGC'
p66
aS'CUUCGACCCUCUUUAACGCGGGCUUCAAAGAGUGCAAGCGACCCUUAGAGCUCACAAGCAGAUUAACUCAUUGCACAACGGCUACCAUACGUACGCUCUG'
p67
aS'AAGUGGUUCGUCACACGCUGCACUAUAAGUAGUCGUUCUAUAAGAGCUGGUCGCAGGGCGAUGAAUAAUUCUCCUUCGCACAGACUUUUUAAGCACCGUC'
p68
aS'CUGCCAUGAUGACCGAGUUGUAUCGGCAACCGCCGGGGCCAGACAUAAAUUCGUUUACUAGACUAAGGAACUCGUAUUAAGUUCAUCAUUGCGCCUGUUG'
p69
aS'GCACCGGCCUGCCAAGCUUUGAUCAGUUCAACGUACCCUGCGGAUACUAAAGGCCUGGUGCAGAGGUCCCUAGAAAUUUUGACCAUACCUUUCUUUCGCA'
p70
aS'AUUAUCUCGUAGCUUCCCAUGGUAAGAGCCGAGAGUUUGGUUCUCGAGACUCCUCAUCUCGGAGUGAUGGCAUAGAAGUCUGAGUGCGGGGGUUAGCUGC'
p71
aS'GGCGAUGUCGGCGAAGGACGGGCCUAGAGCAAAGGGGCGUUCCUGCUCGGUCGUGAGAGCUGCCCAGGCAUGCAAAAUGAGAUGACGAGCCGUAUGCCAG'
p72
aS'AAUUAGCCGGUGCAGUUUCAUGCCUAUCGUGAAUGUCUUAGCCCAGAGUGUUGUUAGUCAGGACCAGUUCCUCAGUGACCUCCUGGUAUGUGAUACUUCG'
p73
aS'AAUGGACCUGCAUUUCGCGGUUAAAUGCGUCCGUUCCGAAGACCUGCUACCCUGUGUAAGGAACAAGCAUGUAGAAUGCUCCCUGGGACUCAGCCGGAAA'
p74
aS'UUGUAUUUCCGAUUCGCGACAGGAAAUGCGAUGGUACGACCGAAACGAGGAGUACCUCACUGUAUGCUACAACAUACAGAUCAGACCCAGGUUUAUAUAC'
p75
aS'ACCUGAGCGGCAUCCGCGUGUAAAGCCCCUCAGAUGAACAUGAGCCGAGCCAACCAUGCCUGUCAUGGGAGAGACAACGCGUGUGCAGAGGUGCGUCAGA'
p76
aS'ACAUGCAAUCAGUUCCGGACCAUGAUUGGGAUGUACGCCCUAGAAGGUGACAUUCGUAUCCGGUGUUUAAUUGGCGCGCUCGACGCGAAUGCUACCACCA'
p77
aS'GAUUGGACUAUUACUUGGUCGAUAGCGUGGGUCUGCAGUAACCAUUACCUAAUCUAGUAUGAUUAGCUAAUGCUUUAGCAAGAAUGCUUGGUAGCCUAUC'
p78
aS'GAGCACUGUGGGUGACUCUAAUCUUCGACGAUUGGGCGAGCUUAACUUCGAUAACCGGGAGUAGGGAUGAAAGCAAGGGCCGUACUCUUGUGCUUGAACA'
p79
aS'UUUUGGAUCCAACUAAAGACUUUUCUUGGAAAUGUGAAGCCCACUCGAAGUACAAUCUUGUGCGGCGGCACUAAGUCACUUUGCAGUCGCGACGUCGCUA'
p80
aS'CCUCUGGUCGUGACUGCUACCAUACCAGCAUUACGAGGAGAAGCUGACGCUUUGUACUGUUAAUCGUAUUGGUUAUCAUGUCCUACUGGUAACCAUGCUU'
p81
aS'UUACUUUCAAGGAAAAAGGUAAACCGGCGAAUGCCGACUUCAUCAACCUGGAGACAACUUGCAGGCGGGACGUAUAAACCGAUUCUUGACUCAAACACCC'
p82
aS'UUCCAAGUCCGUCAUCUCGAACGGUUUGCUCGUUGAAAAUCUAAAAGACGGGUUAGUGAACAUACCCGCAAACCCUAGACGUAUGUCCGUUGCCGGGUAA'
p83
aS'GACUCAUAGCCGUGGAAAAACAAAUGAAUUGAUAUAUACAGAUCCAUGGAAAUUUCGAAGGACGGCAAUGCGACCCGAGCCGAAAGGAAUGCCAGGCCGC'
p84
aS'ACUAUCCCCUUGUACUGGGCUUUUUCUCAGACGUUGGCAAAUUACAAAUACACUGUCUUUGCCAGCAACAAGCCAUCUUCCCUCGAGGGACCCCUCAUGC'
p85
aS'CAAUCGUGGAUGUACUUACCUACUACGGUAUUCCUGCCGACCGUAUUCCGUUGUGCGAAUGUCCGCUGCAACCUUCGUUUCCUCGCAGUAAACACCGCAU'
p86
aS'GCGUGGGCAAUAAGAGUUGAUCCGGGACUACCUCAGACCUAGCGGCGGAGGUUUUUGAACUAAAGCGUUGUCCACGUCCCAAUGCUCGGCCGGGAAAUCA'
p87
aS'CCCAACACCAUCCGGGAUGGCCAAAAAAUCCAACCUGUGGAUUACCACUGCCAAACGCCGGCCCCUGGCGCGAACCGCUAUGCCCUCAAAUAUCACGUAG'
p88
aS'AUAUUAACACCCUUAACGCUCGGUUAAGCCCAGCACUCAGAUAGCGAGCUGAAUCCAUCCCUCCUGUUUUUGAAUGUACUGCGCCACGUUGGCAUGCACU'
p89
aS'CAGUAACCCAUAGAGCACCGAAGGUACGAACAUUGUGGGGUGGGUCCGGCGUUUCAAGUAACACGGAUGGGAAGCUCUGACCACAAUACAGGCAAGAAUU'
p90
aS'GGUCUGCCGCGUGUAUGGACUAAGCGACAACGGGCAGCCUACUUAUAACAGUGUGAGGCCGAUAACGCCGACGCCGUGUCAAUCCACAGUGCAUUAUCGU'
p91
aS'GGGAAAUGUGAGCUAUUCCGCGAGGUACUCACGCUUCGGGAGGAAGCACGCUGUUGGGAUUACCCGACAAGAGACGACACCUAUUAAAUUUGUUAACUUU'
p92
aS'CAACGUACGUUGGAACUCCCUACAAAACCUGGAAAGUCAGCCGGUACGCUUUUGAGUUUAUCCGGCGAUGCCGGUUCACGAUCGUGUGAGCCUUGAUGUU'
p93
aS'CCUAAUCUAUCAAAGGCCAAGCGGCGUAAGUCGUCGUGUUAUAGGGCAUCAACUGGAUCAACCCGAGUCCGUGCGACUGGCCAGUACGAACUUAGUAUAC'
p94
aS'AGUCAGCAGGCGGAUCGACGUAUCGAAUGCGUUGGUACAACUUAAUUUAGUAAUAACUUGCGAUGAGUAUAGUCUGUAAGUGGUUUUUGUCUAGCCGACG'
p95
aS'CGAAAGUACUAAGUACGUCUACCAACAUUGCGGGUAUCGCCAAUGCACCGAUUUUAUACUGAAAUACUUAAUAGACUAGGCAAGGUACUCACGAACCGAG'
p96
aS'UUGAACUGGGCUACUUGUUCGUGGGUACAAGACUCUUCGGGUAUCCUAGAGCACGGCCCUACCAACUUCCCUGGGCGACACCACAAAUAUGGCUCGUACG'
p97
aS'UUCCAGUGACGAUGCCUAACUCGUGUGCAGGAAUCACGGUUAGAUCAAGGUCACGCGAUGCGCCACAAGGUGCUAUCAGCUCACUACAAGGGAUACCGGA'
p98
aS'UCUUAACCCAAGAUGACACGGACCCGUAGGCUACCUAGUCCAGCCGCGGCUCCACCAUUACGUGGAGCCUAGUCUCUAACAGGUUGGAAGCUGCAGAGCA'
p99
aS'UAAUUCGCUCAUCUGUAUUUAAUAGGGCUGUGCAGCGGUUCUACAAGACCUCCGGCUUUAGUUAAAUUUUUACGCCGUAAUAUUCGGUUUCAGACGAUCG'
p100
aS'GCAGGCUGUCCGUAAUUAUCUGUGCGAGCCCCCACCAGCUCGACAAUUGCUACUAAAGAAGCACAGCUAUGCUCUACGUGACGGAGGACUGUCGCAGUUU'
p101
aS'AAAGUGCCAUUACUAUACUAAGUAAUCAGGGCGCUUAACCGCUAUCAAUUUGUCCAGUAAUGAGAUGCCUUAGUUACCUACAAUCAAUAAGUGUUCCCUC'
p102
aS'CAUUGCAGCCCCGAUUGGUUAUCCGAAACGUCGCUAUAGUCUCGGUGCCGCAUACAUUGAGCAAAGUAAGUGUAACAAAUCCACUUGAUACGCGGGUGGG'
p103
aS'UGUACUCCGCCGAAUGGGCGAGUUAGCUACCCCGGGAGUGCUAAGCGUCCGAGAGAGUGUUACUAGGUCUCGAGACUAGCACUACGUUUUAUAGUAUUAA'
p104
aS'GUGUCAGAUCGGGGACUCGAGACAUAACAGAUGAUCAGUGAGGACGCCUGCUCGCUGAUCCACAGCCUAGAAUUCAAGCCUCUGACCAAUUAUUGUCUCG'
p105
aS'CCGCACGGGCACUAGCUGCUCUCAUUCACAGCUAAGCCGGGGGUAACGAGUCCAAGGGGACACAUUACUCGUCUGGGCACUCGCGGUAUAGCGAGCAUCU'
p106
aS'AGUGUUGCAUGGGGUUCUUUUGGAUACAGGCAGACGAGGUUCCAGGAGUAAUUGUAAGCGAUCAAGCAUUUGGCGGGUCGUUGAGCACCUUAGCGGAAAG'
p107
aS'AAGUCGCCGACAUCGAUAAUAGGAUUUGGCGCGGCACUCCACUGUAUUACGAAAUCAUUCUUCUAGUUCUAAAAACGUACGCAUAUAAUGCCCAGUCGUU'
p108
aS'AUUCCACCAGUACCAGACUGCCUUUGCCACACCAAAUUUCUGGGCCCUAACACGAAGACCCCGGCAGAUUCCUUACGACUACUGUGAGGGGGACGAUUGA'
p109
aS'CCUUUUGGGGAUUUCGUAAAGAUGGUAUAAGUUGCGGGAGAAUAGACCAGAUAGGAUGUCCUUCAGCUAGCAAUGUCAUCUAGCACUUACAAGCUGCAGG'
p110
aS'CAAUGUUGGGGCUCGCUGCUAUCUUAAAAGAAAAACAGUUGAUUUGAAGUCUACGAGGACACGGGUAUUACAUCGUUGUUUGGUUUCUGUGCCAGUGGAA'
p111
aS'AGCAUUACACGGACCUGUCUGCGAAGUCAAUACACGCGUAGGUACCUUAACGACGCCAGGAGUGGCGUGAACCCCAGGUUGCAGGCACGAGGCUGUAAAA'
p112
aS'CUGUGCGUGACGUUAUAUUGGAAAUUACGUAUAAUUACGCAAAAAUUUUUUUGUUAUGAUAGGGUAGCUUCGGGCCGGUUUCCCCUGCAGUAUAGCGACA'
p113
aS'CAUCGCCCCCCAUCAUUGCACACUUGAGCUCCCGUGUGCGGCUGAAAGCGCGAGGGGAAAGUGAUUCUAUGAAUCUCCCCUACCUUAACAGACGCACGAU'
p114
aS'GUUGAAUAGAGGGAGUCUCAAGUGCAUGCGGAGGCAGGCCGCACAUGAACGCAAGGGGAAAUUACUUAUGAUUGAAAUUACCCUGUCUUUACGAUUGACA'
p115
aS'GAACAGAAGACUACAACAUAUGGGGGAAUCUUCUGUAGCCAGUGAUGCUUUGAGCUGAGGUAAUUGUGGUGAUACCCUUGCCCUAAGGGGGAUCCGAGAU'
p116
aS'GUAUCCAACCAUGUAUCAUGCUAAGUGCAUGAGUCUGACCAAGGGGAGUCUCUAGUUGGUGCCAGAGGGCACCCAAUUGCUUACCAGAGGGCCAGUGAAA'
p117
aS'ACCUUCAACUGUUUUCGCAUCCGCAGUCCAAAGCGUUGGAUGGACUGCGUAUCUUGGGAUCUCUUAAAGGGGAGUGUGCCAUCCAAGGGUCAGCAGUUUC'
p118
aS'AUGAGACGAGAGUGAUUGCGCGAUGGCUGGCAAGCCCAGUACGAUGCACUAUCUGUCAAUCAUAAGGGACCGUUUUACCGCUUGUUCAUAUCGGAUAUAG'
p119
aS'UCGUCUCAUAGGUUUUCUCGGCCACGAUUGCAAGCCUCAUACUUUGAAGAGGCCAUUGAAACAGGGCUCCCGCUAUACACGUCAUAACACCUAGGGCAGC'
p120
aS'CGAGUUGCACAACUAAAUUGUAAUAUACAAGCUACGUUGUCCAACAUAGACCCGCGAAAAAAUCUUUUUAAGACGCCGCUCUUAACUAUAUUGUAAGAUC'
p121
aS'CACGUGCAUUCUGGAAAGCGUAGUGUGCUCCGUCGAUGCAUGUGGAGGGAGUGUUUAGACUGCCUGGUCGCCAAUCGCACGAUCGCACAGAGGCGCGACC'
p122
aS'UCAAGUCAUACCUGAGGGCUUUGGGGGUACUUUAGUGGAACCGUCGCGGACUGGUCUGCAGGGAUGGACUGCUAAUCACCAUAGUGAGGUAUCCUUGACC'
p123
aS'GCCAUCAUCAAAGUUUUGAUUUGGUGGUCGUGCCAUAUCACGCCCUGUACAACACGGAUAUUCGGCAUCAUACUCCGAGAGGUAUGAGCUCACUUGUUGC'
p124
aS'UUUAUGGUCCCCAGUCGCCAACUGUGGUGACGUCCAAUUUCUCGCGUUUUUUUCGCCGGCCCGCAGAACGUGCUCAUGUGCCAGUCCCGAGUUCCACAAG'
p125
aS'CUUGACCAGUUCUUAAGUAUCUAUCGUUGUUCCCUUCCGAAUUGAGGCGACGUUAUACAGUGUUCGCGGUUUAGACAUCAGUGUUCGGGUUUAGUGCUCC'
p126
aS'ACGUGUUAAAUGGCCCUGAGUUGAACUAUAAGCUGCCCCCAUUUUGACUUGAACAAAACGGCGGCGCGAGCCGGACCCAUUGAGGCUCCCGUACGGCGCA'
p127
aS'GAUCUAGUAUCGCUUUUCCUCAGUUUGCCCAUGUGACCUACGCUCUAGUUGAACGGGAUCACAUGCAAUGACUCUUUGAUGUAUUAACUUAGGGUAGACU'
p128
aS'UCCGGUGGCUCUCCUGGCGCUCUGUUUAUGCAAUAGGGGCAGAGAAUGGUGGUCAUCCAGGUCAACCCUGAUUCUAAAUAUCUAUACUAGCUCUGCGCCU'
p129
aS'UAAUUACCUAUCUUCGGGGUGGUUCGUGCAAUCAUAAGAUACAGUCCUAAUUGAUUGUGAUGCUAUUAGGCCAAUCAGCCCAUCAUGGAGUUGUCCGGGC'
p130
aS'CGGUAGAGCUCGCACGGCAAAUCUAUUCCAACUAAGCCUCUCCUCCAUUAAAUUCACUUGCUGGGCACUGAGCCCAAGUGAACAAUAGGUGUCAAUGUAA'
p131
aS'ACAAAACCACCGUUCCCGAGCCCCAUUAGUAUGCCUGUUGAGGUCGAGCCUGAGCUUGGCGGAACAGUCAGAUAGUUGUAUCCGUAGCGGAAAGCAUAGG'
p132
aS'CGAUGUCCCAGUAUUAUUAUAUUAUUUCAGGCCGCAAACGGUGGGAAUCAAAGGCAACCAUAACCUGUAUUGCGGUCUUCCCUGGCGAUAAGGCCACAUG'
p133
aS'UAGGAUACUCUGUCGCUCAAUUUAACAUCUGAAUCUUAAGACAGAUGGGUACCAGCGAAUGUUUAGGCUCUUCCGCCCCGGAACCGGUCGGUGACGAAAA'
p134
aS'AUAUGUGCUGUAAUGCGUCCCUGGUGCGUUGACGCUAAACAUAGGGUUCCGUAUUGUCGACGGAUUAGCAGAUCUUAAGCCGUGCAGCCAUAGGCUGAUG'
p135
aS'AUAUCCGCGAACCGACUGGGUACUACUGUCCGCCUCCCGGAUGUCCUGCCGUUGAUUAGCUACUAUCCUAUCGAAGCAAACGCGAAUUCCACUCCCCAAA'
p136
aS'UCGGGCCUCGUAUGAUGAGUGCGGUGAUGGUUCUACAUACAGGGAUUGGCAAACCGCGUGUCGUGCGAGAUAUAAGAACCACUCGGCCAGACGCUACAAC'
p137
aS'UUAAAUAGGGAAGUGCCGUAAUGCGCCUGUCGCUCCAAGGUUACGGGUGUUCCCCGGGGGGACAAUAUUUAAUUGGUCAUAAGUGCGUUCUCUUAUCGUC'
p138
aS'AUCGGCUCAAGUGACGAAAUGUUGGGGAGGCAUGGGGAUAUGCCACGCGUCAUCGGGGAAGAGGGUUGCGAUCGCCUCAGAUGUGGGGUCGAAAAAGGCU'
p139
aS'UAAGCGGACCUUGGUAACGUUGAGCUUUAGUUUUGAUAAGCCCGAGCACUGAUCAAAUGGGUAAUGCCUUUUUUCUUAGGUGACAGACGGCUCCGUUGCU'
p140
aS'AACCUGCCCCGUCUUGUAAGAAGAAGGAGUCUUAGGGCCUCAGUCCCGGAGCAAGGGUGUCACCAACUCGGGCAUUUGUUAGAUUUUGCCUGCUGACGUU'
p141
aS'CUCGUUUUUAAGUCAGUCCUCUUAAUGGAUUAAGACCUCCGGAACGGGUGUCCGGGCCAGCCACGAGAAUUUGACUACUUGCGGACUGUCUUGAAUCCCC'
p142
aS'ACUCGUUGAAGUCAGUUUUCCGAAGCUCACACGUUAUCCUCGUGACAAUAGGCAUUGAAGUUCGUCGUUUCCUUUGCCCCGUAUCAAUCAACACAAUCGU'
p143
aS'GCGCGGACCCCCUACACGGGCAGCCAUCAAUCCCCCGAUCGUUGAGAAUCGUCUAGAGGGGGCUAUACGCGGGUCUCCUCUCAACGUAAUGGCCCCCCAU'
p144
aS'CUUAAUCCGCGUGACUGCAGGUCCAAAGAUGUCGAUGAUUGAGCAGUAUACAAUCUGGUACCCUUAUACUUUGUCUAUCCGAACAGUGUCUUUGCCUGAG'
p145
aS'AGGAGCACUCUGCUGGUUUAGCUGAUUUCCAAUAACAUGCGGCCAAGUUUCUGCUCUUUAGAUAGCAUGCAACUGCACCCAUGAAAUCAGUGGCGCUCGC'
p146
aS'UCCGGGUCAGCAGAUAUAAGGUGUAGCUUCAACCUUCACGCGGUCGGAGAGCAACGCGAAAGUCGAGGUACUAUUCGAGUCUGCUAUGCGAACGCCUAGU'
p147
aS'GAUGAAAUACGUUACGCCUUCUGGAGUACUUCAGGUAGAUAGCAGACGGCCUAAUCAAGGUCCUACACCAGAUAUAUGUCAACUCGGCCUCGGAGCAGAG'
p148
aS'AUUGCCGUUCAACAAUCAAGGGCUGGUUAGUACCCACGCAUUAUUUAAGGGCAAUAGUCCCUUAACCCCUCUCGUUGGAAGAGUACUCAUGUGUAUUGAU'
p149
aS'CCCAUGAAGAACUGAGGGUUCAACUAUUCUUAGAGUCAGACAGAGUGUGUACUGGCGUCCAGUAUAUAACAUACCGUGAAAAGCGAUGACGGACACAGAG'
p150
aS'GAAUCAGAGAACUUAUCUGCGAUGCCUAAUUCCCCACGUUAUCCGACCAACUGACUUGCUUUCGUUCUGCGAUCAUGCACAGUUGUGCCAGCGUUGUUGU'
p151
aS'GCGCAUAACUUCGCAGGUGGCUGACUCGACUCAGUAAACGUACGUAAUGCUACUAAAAUGUACGAACGUAGCUUCCAAUUGACAAAACUCCGUGCCGUGU'
p152
aS'AGCACCACCACUGGGGGAGUGUGACGAGAACUACAUGUCUGUCCUUGGCAUUCGGGAUGUUUGGGACUAACUAAUAGGUCAAAAUCAAACUAACUGACUU'
p153
aS'CAGUUUCAUACUAAUUUUCUACACAGUGGAUAUUGUGCAUGUCCCUUAACAAAGUCUAGAAUACACUCCUAGAAGCUUCAUCAUAAGAGUCGCGUACGUA'
p154
aS'UAUACUCUUGGUCUAGGUUUGGUCUCUCGCGGGCGAGUCCAGAGAUCCUUGUCGGUAUGCACCUAACUGGUUGGACGCGUGCGAUGAGUCGGGCUCAAUG'
p155
aS'UAUCUGUUACGAAACGCCAGAUAAAUCCGAGCAAACGCGCUGUAUUCAUUUCAGAGCAUUCCCCGGCACUUUGUCGAACCGGAGUAUAUUCCUAGCCCUG'
p156
aS'UACCUGAGUCCACCCGGUACAGAUACUCAAGCACACGCAUAUGUACCUGAUCUUAAAAUACCUUAAGGGAACUUAUUUCUUCAAGUGUAUCAGCUUGGAC'
p157
aS'CGCGGCGUAGCUGCGGUGUUUUCCGAUGCGCACGUAAAACUUUAAAGCAUCCCAAGCUACAGCAACUUUACUGGCCGCAAGCUCCAGGAGUCCUAAGGUU'
p158
aS'UCAGACUCUCAAAAUUUCGAGGUCCUGGAGAGCCGCUGACAUGGAAAGCUUCUUAACAAUGCCUCUCCCAAUUUACCCGAGAGCCUAAUCGGUAUUGAUU'
p159
aS'CGUGACUACCCUCCGAUUUUCCCGUCUCUCAACCCCGUCCGCGCACACGAGGGUUAUGAGAUCUGGGAUUAUUAGAGCCGCAGGAGAGCGCGAUUUAUUU'
p160
aS'AUCGCGAACUCACCCCUAUGAAUACCAGCAAGCCUUAAAGCCAGAGUAGUCCGCUACCUGAUAAGGUGUGAGUAAUCAACCCGUCCAACAUAUGAACGUU'
p161
aS'GGAUAUAUCCCCUUCCUUCCGCUACCUCCAAUAUUUCGUGGACCGUGGUAGCGAUAUGCACCACUAAGCCACCAGAAGAGCCGAACCAGCUAGUUCAGGG'
p162
aS'AACCGAUGCAUCCCAUAUCAAUGUCCCAUUUGGCACCAGAUCGGCGAAAGCCCGCAACAAACCAAGGCUCCGCCCUAACAGAUGCUACACGCAAUGCACC'
p163
aS'AGUACUUUUUUGCCGUCCCUGUCAAACCUCAUCGCCCCGGGGGCGAAGUUGUAGAUAACCCAAGCCACUAUGCUAAGCCCGCAGUUGGCAUGUACCUCUG'
p164
aS'AGCAGUCCAGCAGUGGAUUAGGUUCCAUUUUUCUCCCAGAGUAGAUGUUGCCCAAUAUAGCUGACUGCGUGGAGGCGGAAUUAGCCUGCUUUGUAGCUUU'
p165
aS'AAGGUACAUAUUGCUAAACUAUGUACAAUAACAACUCGCCCCUACCAGACCAUCACCAUCGCCUGAUCUAGGAGCAUGCAUAAGGGUGUUUCGAAAUGAG'
p166
aS'CAUGACGAUCACUUGUCGGUUUAACGGUCCCAAGACUAAGAAGUCUUCUUCCGGUGGAUGGAGCUCGGCGCAGUGGAAACCUCGAAUUGUUAAGUAAAUA'
p167
aS'UUUCCGGGAACCUGAUAUUCCCCCGCGUGUCAGUGGCAGACUCGAGUUCAUAAAUGGAAGAUACGCUGGCUGGUUAUCUGAAUCGUCCUGAGGAAGAUUC'
p168
aS'UUCUUAGAAGUACAGACCGGCGAAUCCAGGGUUGAAUGAUAGACUAAUGAUUGCGGGUUGCUUGCCGUGGGUGCUGUGCGCUCGUGUGGCAGCCGAAUGU'
p169
aS'UUGUUCCACAGAAAAAGCUAGUCACGCAAUCGCCUACCUUAUUUUAUAGUUAACCGACUGCAUGGUCUCACAUUAAUGCAGGACGUUCACUCCCCCAUCU'
p170
aS'GGCAGGCUAUCGCUAUCUCUUAGAGACGCUUAAUACUAACCGAAUAGUGAGCAGAGGUUAAGCACUAACUGGCCCGCCACCUUGGAGAGCCAUGGUCAAA'
p171
aS'GUAAAAACCUCUAAAAUACGCGUAGCCAUGGACUUUAGGGCUCGUGCUGCGAAAACAUCCGUUACACAUGCUGCGCUUUGUGCGGUCCCAGUGCUUUAAU'
p172
aS'GCUUGAACCUACCAGAAGGCGGUCUUCCGCGGAUCUUGGAUCGCAGGAAACUUGGGGAGCAAUCCAGAUAGAUACACGUGGCCUACGAAGGAAUUAGCCA'
p173
aS'CAAGCUCUCCCUUUUUAUGUGAGCGCCGGUUGCCCCGAAGUUACACAUUCGUACUCGGGGGAACAAGGGACGGUGUUAAGACGUUCCACUGGCGACAGCU'
p174
aS'ACUGCCAGGCAUAUGGAACAAGCCGAAGCGUUUACAUUGAACUUCUUACCUAUCACGACAUUAUCGUACUCGGUCCUGGGGAGAGAAUAGGUAUAGGCGA'
p175
aS'CGGUAGCGUACCAUUGACACCCGGCGAUUACCAGUGUUAAUGCACCUGGUACCCUGCAUGUGACAAUCGAGGCACUCGCAACAUGAAGCGGGGGAUUCAU'
p176
aS'GCGUUGUGGUUCAUUCACCAAUGAACAAUGCCAGACGAUAGACGAACAGAUCAGAAAACUGCGCACCCUGAAAAGGCGUGGAUAAGGCAGUUCUGGACAC'
p177
aS'AACUAUGCAAAUCUCAUCCUGCAAUCAAACCAUACCACGGGCUGAAUGAAGUCGAACUCAUGGAUCUGAUUGGUCCUACGCAUAAUACAACUCCCGUUGC'
p178
aS'CACAUACUGCCGGCCAUGUGCACGGGGCCCGAGAUCAGGCAAGGUAAAGGCCUACGUAGAAAUAAGUGAAUGCCCCCAUUUUAUUUGCGUAAGGUACAUG'
p179
aS'AUCGGUCACGUGACGUUAACGGCCUGGAACCUGCGGACGAUCGAAGGUGUAGGCCCGCCGCGCGCUUCUUGUCUUGCCCUUGCAGUUCUCUAGAGUUUCA'
p180
aS'CCUGACGACGGUAGCGGAGUUUCAUCUAAAUUAUACCUUGCUAGCCCGAUAAGUGCUGCUCUUGCUAUCACCUGGAGACACGACUGUGUUAACUCAGCGG'
p181
aS'CCAAUAAAACCUGUGACGAGGCUAGAAGCGGGGGUCGUAUUAACAGGGAAUCUGGUUACCAUCGAGAGCCGCGCGAGUCCAUACCACUAGUACUGUAUCG'
p182
aS'CCAGCACUGACUCGAGCGACUAUUAACACGUAUUGUUCGGGAAUUAUCGGUUGGCGGAGAUAAUACCCCCAGAUUUGGGCGCGUUUCUAUUCUUCAAAUU'
p183
aS'AGCUAUCUGAAACCAGUUUGAGCUCGGAUCAUUCUACAUAUGCACGUAAGUAACCACACGGGCUGCUGCGCCGUGGAUUCUGACCUAAAGCUCAAUUAAG'
p184
aS'UCGCGUAGAUAUGGUGGCACAAAUAAUCCUGGACACGGCGUAAUAUGUCACAUCGUUUGAUCUUCCAACUGACAGGCAUGGGACCUGGCCUUAUCUCCUA'
p185
aS'AGACAGGGACCUCGAUUCGUGUCCAUCUCACACGUUCGCGUAGGAACAGGACAACUCUCGUAAGCCUUUUAUGGGACACUCAUACUGGGCACGGAGGAAC'
p186
aS'UAUCAGAUAGCAUGACCGGGGGACUUGUAAUAGAUCAGUCGCUUUAGAAUGCAUAUACCGGUCGCCCCGCCCCUAGCUGUGCGUUUAUUAUAUAUCACUU'
p187
aS'AACCUAUAAGGGUUCGGGCGCUCGAGGGGAGAUUUGCGAGUCAGUUCCGCGUAGACUCCGGCAAUAUCCGGGGCUACGUGCGCGUUACUGCUCAACGAUG'
p188
aS'GCAAGUCAUCUGCGGCCGUUGCUGACUCGGACCCUUACUGGCUGCGAGAGGCAUUUGUAGUUGCAGCAAAGAAAAGGACUCAGUCAACAAUUGUAGGUAU'
p189
aS'GAAGCAGUGCAGGAGUCAGGACACGUAGCGAAAUUAAGUAGACAGUUGAAUGUGGCGCGCCGGGGACGUUGGCACCAGCCCGCCGGCAGCAGUUUAAGCC'
p190
aS'CGCGUAGCAGCAGCCUCAGAACGUUACCUUCGGUGAUAACGACGGGCGUUGUACAGAUCUGACUUGCACCCGGAGCGACGCGAGAGUAAGCUCGUUGGAA'
p191
aS'CAUCAAUAAAUUUCUUUUCGACCACCCAAUAUCGUCAAAACCUCGCGCCCCCGCGACAGGUGAUAGCUACCCCUGAGUUCAGUGGUACUUCCUAUCGCGG'
p192
aS'CGGCCGUUACCGUCCAAUCAAGAUUUCCGCGGCGUAGAUGUCCAAACCAUACUUUAAGGCACUUGAUGCGACAAGUACUAGGUAGAAACCGUGGCGCUAU'
p193
aS'UAUAUUCCUCUACCUGAUAACAAUUAGUUGAUGUACGCUUAUUCCAAAUCUCUGACCGUCCACCUUUCUUCGCUACCUGGAGACUGGCCUACCUCUAGCC'
p194
aS'UCCCAUCAAUGGUAUAGUCGAACUCAGAGUGAUAGAUGGUAACCUCCCUUCCACGCCCAGACGAUGCGACCACGCCAGAACGUGGCCGAACUCCCCACCA'
p195
aS'CCACAGUCAUUUAACCUCCUUCUACUACGCAAGGCCCAUCCGCGGUAACAUCCAGUCAGAGCAGAUCCCUCACCUCCACAAGGGCCAUUUCGUGACGAGC'
p196
aS'GGUUCAUAAUGGGAAGAAACUGCGGCUUGAUCUCUUCAUCAGAGGCUACUUGCGAUGCCCAGCUGGAAUCCGGAGGGCGCGGGGUUUUUGCGGUGGCGCA'
p197
aS'CUAAUGUUUGAAUGAGCCAAUUGCUGGUACGCGUAUAACAACCUCCAUGUGGUCACAGAGGCGGAAUGCAUAGCGAUGACGGCCAACCGUGUCGCAAGCU'
p198
aS'AUCCUUACAUCGUGUCCAUAUGUGGCCUGAGCCUGCAGGGGACGAGGGGGUCGUUUCCGGUGUAGUUGGAGUGUGUCGAGCAAAUACGCAUAACGUUUCA'
p199
aS'AAACCUGGAUACGCACUAUCGUAUAGGAAAAGGCGUGAUUCGUGCUGAUAGAUGUGUCUGCGAGUUUGAAAGAAUCUAGCGAGCUGGGCGGUGUAGUCUU'
p200
aS'UGGUCCAAUCCUACGUAGAUGUCAUGUCCGCGGGGGACAUGGCCUUGGCACCGAGUUGCCUGCAAGGCACGGGAACUUAGCAUAAAACCUGUUCGUGAUC'
p201
aS'UUAAAGAGCAGGAGCACCGAUAAGAAGUAACUCACCAACGACUAGAGCAACAAGGAAAAUCGGCCAGACGAGAGAGCAAGGUGGUAGAACCAGAUCGCAG'
p202
aS'AGCACUUUAUUCAUGACGUUUUACCUCAACCCACUGGUUGUGAAUGUAGGGUCACCAGGUGGCUUAGAUCCCCUUAGGAGUAUAGGCCCAGUCACCAAAG'
p203
aS'GGACUCGAAGAUGCCUACCAUUUAGUCAGGUAGUCUGAUUCAGACGAUGCUACUAUAGCUGCAUACGAGCCUGGGGAACCCACGACAGUUCGUGGACACA'
p204
aS'UAAGCGAGGGGGCGAGUCGUUCGCACGUCGGAACGGGCGCGGUACGUCCGAUGACGCGAAAGGGAGCUGCUAUUAGUUAUGCCGCAUAGCGUACAUCGUU'
p205
aS'GGGUUUGUUGUACCUUUGUCACGAUUGUUGAUAUCCCUAGUUUGCACACACCCGAAGAGUAGACGUACCUAAUACCUAGGGUCUGUGGGGUGCUUUUCGC'
p206
aS'GCCGAAGCAGUCACGAGUGAGAGCCGGAAUUUAUACCCAAUAAUAACAAAACUACGAAAGGAGUAUCGCUUGUCCCGCCCCCUUGUCAGCCGCUGACCGG'
p207
aS'GCACACAUCGCUCCUGAACCACCACGUAAAUAGUUAACCAAACAGCGUCCCCAAGGAAGUUGAUCAUCGUCCAGUGUUCUCGUCGGCUCCGUGACGCUGG'
p208
aS'GGAAACAGGCCGUGUUGAGCCCUAGACCUUGCUCACCGUAGAUCUCGUCGGGUCCGUAGCUUACGUUACUGCGGCAUAGGAAUAACCUUAGAGGAGUGGG'
p209
aS'ACUAAGUAACCAGGUAAUAAUCCGCAGGUACGCGCAAAUACUGGCUCAUUCUCUAGCUUUGACUUCACCCCGCUGACUUCAAGAUCUUUUACUCGUCCCC'
p210
aS'UCGAAACAAGAAUCUAUCUGCAAGCUACGAAUGCCUCCGGUCCUACCUCGAUGGGAUCAAAGUCUGUGAAGACAUUUCUGCGACCCUCUAUGCCCCACUA'
p211
aS'ACCUGUGGAGAGCGGUGUUGGACGUAACCCCGCGGUAUACAACCGCUAGGAUCUUCUGGGACCUUAUCGAUUGCAUUACACGAGUGACGAUAUUCACAAU'
p212
aS'UGGUGUCAGGUGUUCCGAAAUUUCGGGACUCAUAAAUAAACACAUCGUCGCUAGGAGAUAGAGUUAGCACGAUGUCAUUAUACCGGUGCAACCACCAUCG'
p213
aS'GGUCGUUAAAUUCUUCCUUCGCGAGAGUAAAAGUACCUGGGAGCCGCGCUAACUACUUACUGCUCCGUUUCGCCUGUCUAGAUCAAUAUGGAAGGAAUGC'
p214
aS'GAUUGCCGUCAUUGGCCUAUCUUAACUACGUGCUCUGCGUGUCAAAUCAUUUAUCUUGCGUGUUAUUAAAUAUUCUCGAUCGCAUUCGCGGGCACACGUA'
p215
aS'UCGGGCAAGGGUGCACUGCCGCUCUCGGUCCUCGACUCAGCCACCGCAAGUAACUCGGGCUUGUUACGCAUUAGAGCGACCCCUAUUCGGUUGUAUGAGG'
p216
aS'ACUUCGACCCCGGCUAUGCAUUUAGACCCUGAAAUACUCAUAGACUCACAUGAGUCCGAUCUCUUGUAAUGGCCUUCAUAAACUUCGGCCCAACUCCAUC'
p217
aS'ACCACGCAUGCAAAAAAAGACCACUAAAAUCAAGCUGCUACCUGUGUAGUCAAUCUCGGCGUCUAGAUCGCCAGAUGAAAGAAAAGUGCCCCGCAGGGAU'
p218
aS'GCACAUGGAGACAGUAGGGCGCCAGAGUAGCGUACUCGGCCCAAGCUGACGGAGGGGGUCUGACAAAACCCGCGACACACGACUAGAGUUGAGUGCGUGA'
p219
aS'AGUUAGGAUAACUCCUAAUAUCGUACUCAAUCUUCACAACGCGCGUUUCCGCAAGUUUGUGGUCCAGAAAUGCUAUGUCCAGACGCAUCUAGACCUUAAA'
p220
aS'CCUUCAGGUCUAAAAAGUAGGAUUUACUCGUUCUGUUUCCGCGUUUUAUCCCGAGUUUCAACCCGUCAUACUUCAGCAUCCACGCAUCUGUCCUGAAUGC'
p221
aS'UCUAGUGACUAGUACCUUAAGAGCUUAUGCGAGACACUGCCAAGUCUUUAGUUUACGGGUCAUAGUUGGGAUGACUCUCCCGUGCUAUACUCUUAGACGC'
p222
aS'CAAGCUCAACUGCACGACACUGCAGGCGGUAGCGGGGACCGUUCGCGUCAUUAUCCAAGAUACUUGUAGGCUAUUUUACAGCCGUGAACGAAUUCGAGAA'
p223
aS'AGCGAUUCAUCUCCACUGGUAAGGGAAAGCGAGUGCACACCAGUCCAUGCAAACUACCUCCAUGGGUGAGAAGACUUUAAAUCACAUGUUUAACGCAGUA'
p224
aS'GCGUAGUACCUUAUACCCAACUCCGCCUGUGGCUAGCGUUCCAUCCUUAUUGAGAAGCAGCGUAAGGAUUGAACGGCUUAACGGUACCGCGUUAAGUGGG'
p225
aS'GGGGUUCCUGAUGUCCCCGCAGUGGGUACAUAAAGAGAUACGAUAUCUCGACGCCCCCUUCACUAGUCAGGGCGUGAAACCGGUUUGCAAGUCUUGUAUC'
p226
aS'UUGAACGCGGGCGCGACGGACAUUCGGGCUGCAGGCAAGUUGAGCGUUAGGUCUAUCGGCUAUGUAAUAACCUGGCGCCCCGAUGCCCGUCGUAUAAGCA'
p227
aS'ACAUGCUGUUAGAUAAUGCCAGCUCGCGCUUAAAAAGCAGGAUUUAUUUUUCCCUUCCAGUAUCGGGUCUGUGCGAACGAUCAUAUGGAGUGAUAGUUUA'
p228
aS'CCCGAAACACCAUUCUUUAUGUGUGCAUAACGGUCCUUAGGCUCCGCGCGUCACUUCCUAGCAGUUAUGGACAGUUCAAUUAGUGAUUACCAAAAAAAUU'
p229
aS'CUACUUAGUCUGGUGUGCCUUCUCCAAUGGUACCACGGUGCACAGCGGAUAGGAAGGGUCCCGCGGACUACGCUUCCUGGUCAGAAGUAUCGGGGCGAUC'
p230
aS'UGAGUGCUCAUAUCACAGGGAGAAUGACCGCGUACGACUUCGGAUUUAUUCUUAUUCAGGUCUUAUUCGUAUAUUUUCUCAUCAACACUGAUGAGCGUAC'
p231
aS'GAUAGUUAGGGCUUCGUGACGGACUCGGAGGCAUGCACGGGUAAAGACCCACCGCAACGUCAAGCGCACAUGACCGUAAACGCGAUAUGUUCGGACCAAG'
p232
aS'AUGGAGCUAUCGAAAGAUCUCUGUUUUGCGAAGGCUAAGCGUAACCAUAACGGUGUCAAAGACAUGGAUAAUGCUCGAGCUGUGUGGUAGGGUUUAGUUU'
p233
aS'AGUCAUAUUCAAAGUGGAGCGCUCAGUCAGACAGCGUCUUACAGGAAUGCUUCAGCGAUAGAUAGGAGGGGGGUGCGUAUGCGUUGCCCGUCGGGGUGGG'
p234
aS'AACGCUUGGGGGGCUCAUCUUCGUCCCCAGAACUGGUGGGAGGCUCUCAAGAGCUCGUGAUGCGAAAAGUGUACCGCGCCAGAGGAACUCAAGCCCUAUA'
p235
aS'CAGCCGUAACAUAUCCUAGAGGUUUCCCGACCUCCAUCGUCUGAUAGCUCAUUAUUAGCCAGCGCACUCAUAGGCAGAUUCGCAGGCAUUUGAGAGCGGC'
p236
aS'CGAUAAAACAUGUGCGUCAAGCCUUUCUAGUACUGUAUCUGUAGCGUUGCCGUGAGCUGUCUUUAGUGCAAGACGAAGUGUCGCUCGACGAGCGUCGCCG'
p237
aS'AUUCGACAGGUACUAUACUUACGCUCUCAAUACCGCAUUAUAUGCGAUGCCCCAGUAUGGAUGGCGACCGAGCAUUCCUAAAUAUCGGAUUGAAGGGACC'
p238
aS'UUGUCGCAAACAUGUCUAGAUGGAAGGUUCGAAUCGAUCCUGCUGACUUUGGCUACGUGCCCAUAAAAUGACUCCUCCAAUCGAAGAACCAGGAGGGGUC'
p239
aS'UCGCAUCCGUUAUCGCGUCGCUAUUGAAGGCGGCGCUAAUAGGGAUUGGAUUGAGAGCGCUUCUUUCAGCCUUAGCCCCCGCUAGGAACAGCAGCGUGUU'
p240
aS'AUGCAGGGUAGAUAGUAGUAUUUGGGUGAAUGCCGAAAUGGAUGCUAGCUGAAGUAUCCGCCAUCUUCGCGUUUGUGGAGCUAAGAGAGUGCGUCAAGAA'
p241
aS'CACGUACAAAGCUCACUUAGUUCCGGGAAUUCCCGUACGUGAGUUGAAUAGAUGAACAAAGUCAUAAGUAACUGAAUUGUUGAUACCAUCAGUACCUUCA'
p242
aS'CUUGUUUUGUCCAUGCAUUGGGGGGCAGUCAGUGCUCUAUUCACCACGGGGCACGGGCUUGAGCCUCCCGGUAUGAGAUCCAGCCUUCUGAUUAGAGAUC'
p243
aS'GUCGCAAAAACUUCUGAACCAGAUUGAGCCGCACGACAACGGCUAGGGCGGAGGUACGACGACGUGUCCUUAUAGAGGUAUGCCUAACCUUUAAGGUGUC'
p244
aS'CUACGUCUCCGCAACAAGUACUUAUAACUAAAGCGUCGGGCUGGUCACGUAUUAAGCCACAGGUAGGACACGUAGACGAUCCGCGCUGUUAGACAGCCUU'
p245
aS'GGACUAGCUGGGAUCAUUGAACGCGUGAGACCUGCAUAGCUAAACCAUCGGUGACUAGCUAAUUCAGGUCAUCUCUCUAACAAAGGAUCCUCUAACUUGG'
p246
aS'ACUGAAUUCUUGUAAAGCUCAGCCGAAUGAUUUUUAACCCACAUAGGAUAAAAACGCGGACACCGCAUCUAUCUCUCAAAUAAUUAUACCGCCUCUGACA'
p247
aS'GUUAGCAGCAGUCCCAGGUUACUUGUGUAAGGGGAACGUGUCAAAACGUGGUCGAGGUACCACCGCAAUUGUAAAUGUCUGGUCGCAGGGUAAAUCAUAA'
p248
aS'GCCUGACGGACCACAGGCGUAAUACACGGUGCUACACAAGGCCAGUUCAUUCGUAAAGGACCACACCAUACCAAAAGGUUCAAAACGAACGUGCAACGUU'
p249
aS'CAGUGGGAACUAUACCGCAAGCCGGAUACAGAACAUGAUACGAGGAGGGUAGGACCCCUAGGGGAAGCGCUGGAUACGGAUCUAUUGGCCUUUUAGGGUC'
p250
aS'UACCAUCGAACGGUCUUGGAAACUUCCACUAGAUAUGGGUGGACGUAUCUAUUAAUUUGCUCCAAUGUUUAUCCGUCGGCCCCUAAUCUAUGUAUUCUUG'
p251
aS'CGGACCGGGAUUCCAGGCCGUCUUACCGAUCAGAACGGUGCGUAAGUGUUUCGGUCUGCUUAACAGAAAUCAGGCAUCUACAUGAGAGCACGAAUGGAUC'
p252
aS'GCGGGCACGGGGACCUAACCCCCACGCGGUCAUCAAGCUUACCACUUAGUCCCGGUGGGUGGGAAUAAUUAAGAGGAGACGACUCAUAGAUAAGGGCUGU'
p253
aS'GCGCUCGUAUCAAAAACGGGCCUCGUGAUGUCCCCCAGGUAGCCACCCCAGUCAAUCUCGGGGAUCAUUCAAACUCUUGAAUCACUUGGGCCGCGGUUUA'
p254
aS'UACAUCUUGUUAGACGCGGUGGCGGCUGUAGGGGCUAACUCUCUGUUUGAAGUAACAGACUAUCUUAUAAGCACAAUGCAUAAGCUCGACUUAGUGCGCC'
p255
aS'CGCCCACUCGGCACUACAGGAACAUUCAGAGGCAGCCAAUCGCGAAGUGGCUCAGAAAUUCGUCGGGUGGGUUUGCUACAGAGACAUCAAGUUUAGCAAA'
p256
aS'GCGCAUGAGAGUCGCCAUGACCAUAGGAUGCCACUAAAGGCCCGAGGGAGCGUUAAAACGGUCCACGCAAACACCUCGCUGAGUCAAAGCACUGAUCCUC'
p257
aS'CGACCAGGGCUGCCAAUGCGUCCGGACUCGAGCCUACUAUUUAAGAGGGCAUAGUGUGGUGAUUGACUAGGAAUUCGGGGAUCUUAACCGUUCCAGCAAC'
p258
aS'CGAUUACCUUCGCUCUCAUUAGUACCGUGGACAGCGGCAUGAUUCGCGUGGUCCGUCAAUCUGCCGUCCUUGUCUACGUACGGCCGUCCUGAAAACCUAU'
p259
aS'UUAGUCUAUAAUAACGUCCACCCCCCCGAAAUUAUUGCGCCGGCCCCUUAGAGCAUUCCCUUGGGUACGUCAAUCGCCACCACGAAAUUGUACGGCCUGG'
p260
aS'CGAAAACCCCACAACCGCUUGGUCCGCGUGAUUUAUGAGGCGAUAGUUCACAUGAUGAGUAAAUCUCGGAUAGCAUCGUAAGGUCCUCGCUUAGGGCAUA'
p261
aS'AGCAGGUCCUCACGAAUAAGUUACGCUCUUUAUACAGGUGCCUGCAUUACAAUCAGGCGGUUUCCAUGUGUUGCUAUAUCAUACACCCCGUUGUCCCGGU'
p262
aS'UGGGAUCCUAUUUUGCGACUGAUCCUGCUUCUCAGCCUGCAUAACGAGCGCCCACAAAGUAGCUGUUGGUCUAUUUAUAGAGUUAUGGUGGUAUCGCAAU'
p263
aS'GUACAUCCGAGCCUCAGAGUUUGCUCCCGACCGUUCUAGCUAGCUGACGUACUGACAGGCAGCCAUAGAAUACAUUGACCGGUUGCGUAGGCCCUAGUAC'
p264
aS'AACGCAUAAUGUUUGCUCCGGUACAACCGUAAGAUGCACCGCCUGCGAUACUCUAACCCCUUAGCGGGUUAGCUCUCUUAGAAUGUCGCACCACGGACUU'
p265
aS'AUCUAACGUAUACAGUUCCGGUGCAAGCUAGACGCUUUGAGGUGCUUGAAAAGAGAACCCACGCGUCGGUUCGUAGGGAGGAACGAUCGAAUCAUAAACC'
p266
aS'UUCUGUUUCGAUUAAGUAUUAUGUUUAACCAAAAUCUCAAGCCCAGAUCUAUAGUUUCUAGGAAAUAGAAGAGCUUCAGAGGCACAGAGGCACUUAAGGC'
p267
aS'UAAUUACCACGUCAUGCUGCAGUUGCUUGGAACUCUACCAACCUACCUUCUCUUCCAAAUACACUAUCCGCACUACCGACAGCAGGUUAUGAAUUGAUUG'
p268
aS'CUUGAGCCUGUCCAGGUGAAGGGAAGUUUCCUCCACGUAUCUAUUCAGAGUCGGCCGACCUAGGUAUCACAUGCGUAUAUGGAUCCUACAGAGAAAGUUG'
p269
aS'UGGUGAGUGUUGGUCCAGGGGCCAAGACAUGUGAAUUAGGUGACGAGAAUGACCAUGAUUUCACAAGAGGGAACUGUCAGAACCCCCUUCACGCCGCAUC'
p270
aS'ACCAACCUGAUGCAUAUAGCCACGAUCAUCAUACGCUCGGACAAAUGACAGACUUCAUAAAAAAUAUCGACCGUCUUGGGAGAAUUAUUCGGCUUCUUCG'
p271
aS'GCCCAUUAGCGAUCCAGCGAUGGAUUCUUCAACCCCUUUUAGUUACCGCAUCGUAAGGAUCGGAUAUUGUGCUGUGACAUGAUGAAGUCACCAUGUCCCA'
p272
aS'UUCGCUUUAAGCAAGCUGCAUCGUCAACCAUGUCUAGGGCAUUUGCAGAGUCGGGUUUUAGAGCACGAUUUAUCUGGCGGUAAGAUGACACCACGCUCCA'
p273
aS'CUUUAUGUGGGUUCCGAGAAGAGGGAAACCGGCACGAUAUCCGUUUUAUGUUAUGUCCCAGUUGUAGAAUGAGAGGGGUUCUAGCUAGUGAUUCGGAUCA'
p274
aS'CACACCCUACUGGUUUGCGCAUCCGUACCUAUGUCCUGAGCACCGAAUAACAGGAUAUUUCCUCAUCCCUACCGUAUGUUCUCCUACUGUUAAUCAUAUU'
p275
aS'GAACCGUUCCUACAGGGUGUCAAUGUACCUUCUAUUCCAAGACGCGUCUAGCAAUACCGUAGAUAGUAUAUCAACAGUCUGCGCGCCGAGUUUCACAUAG'
p276
aS'GGGGCCGUUUACUUUUUAACUUAUCCCUAUAAAAAGAACUCUCUUGCUGAAAUUAGCGUGACGCCUAGCAUCCGAUAGUUUGCGCGGAGGUACUGCCUUA'
p277
aS'AGCGUUACUGCGUAGGAUUUGCGUCCCUUUGGAACCAUUGUUAGUACGAAUAGCGUAGACACCCUUGGAAUACGGCUACAAAAAAGAUUAGGACCUCAGG'
p278
aS'UUGCGCAGGCUGACGGAUAUAGGGUCGAUGCGGAAUUCAUAGACAUAUUGCGGGGCUGAUACGGACACGCUCAGCGCCGGGUCUGUAACUGCCUUUCGGG'
p279
aS'AAUUUCAAAGAAACGUGCCCCCGAAACGCAUAACACUGUGUGACUCCCAGAUGGGCAUCAGCACUCAAGAAUGUAAGUAACGAGGGCCCCAUGACAUAGC'
p280
aS'AUAUCAACUCCUAAGAGGAAUCGCUAGAUAUAUCCAGAGAUAUACCAUACGUAGUCAUAGGGCAGAAUUUCGUUAUUACAUAGAACAAGAAUUCGGUUCC'
p281
aS'UCGUCCGUCCUUUAAUCCAAUAUCCUUGACGUCCCUGGGUGCCUAGUCUAUCAUGAACGUGAUGGCGUAGAUUGUUUUCAAGACUGCUUCUACGCAAUCC'
p282
aS'UUCUAGGGGGUCACCUGCAAACUCUUACUAGAGGAGGAAAUACUCCACCUAUCGUCAAUCUGAUGGAGCUACAUACCGUGCCCUUAGCACAUACAUUCGU'
p283
aS'GUCUAUCUGGACUAUGCUGGGUAGUCGCACGACUGUUUUUCUUUGGCGCAUGCUGCGCGUCGGCAUGGAAUGUCGUCCCAAAGCGCCAAUAUAACGGGCU'
p284
aS'GUGGGGACCCCGUGUCUUAUUAUUCUAAAUGUGGUUCUACAUUUUCAAUGCGGCUACGGAACGAGGGUCGUCUGACCUACACGGUUUCACCGAAGCGAUA'
p285
aS'UGUUCCAAAAACCGUGGCCUAGGUUCGUAGACCAUGGUAAUUGAGAAGUUGUGUCAUCAUUGCAGAGGCUCCGCACACGGUCUCACAUUCGCAACUCCUU'
p286
aS'CAGUUACACGGGGUGCAACGAUCAUGACGCGGGUUUACGGAAUAGUAAACGGGUUCCCUGCCGCUUACUCGUUUUUCCCACCACUUAGUUGUUAGCGCGG'
p287
aS'CAGCUCCGUUGCGCUGAUUCGAAUAUUGAUACAAAAAUAAAGCAGGGAUCGGGGAAUCCCGUAACGUCUCUCUGGGACGGACUCAGAGUACUGCUGCUUC'
p288
aS'CUACUCAUUGCUGCACGAGACAGCGAUGGGAAUGACGAGCCAAAGUUGCGGUGCGCACUAACUGGCCACUCUUACUGUAUGCUUAAUCCGUGGUUAAUAG'
p289
aS'AUACUCAUUCCUUCCAUCGUGAGCUUAAUGACGUGUUGAUGAUGCUUAAUUCUUCGCAGUUUUUUUAGUUUGAAAGGGUUAUUUAUACCUCGUCCACUCC'
p290
aS'AUGCCCCACGUCCGCGUAUGGGCAUCUACAGGGUGUACUUUAAUUGAUCCGCAGUAUACCGCGUACAGAUCCAGAACUUUCGCGAAGCAAUAUUCCCCGC'
p291
aS'CUGGUUGAGUUAAACUAAGCAUGAAGGUAACGCUGAGAUAAUGAUUUGCCCAGAGGCUAGUGAGAGGGUUUAUGAAAGAGCUUCGAAAAAUACCGAACGC'
p292
aS'GUAAUUCUGGCCGGCAAUUUACAAUAAAUAUAGGAACAGGGCAUAGGACGGUCGGUUACGUGGAAUCCAGCAGCCGAAUGGACGUCUUUGGUCUUACUGC'
p293
aS'GAUACCAUCGUGGUCAAGCUUGAUUUGAACUAUUGAGCGCUGUCGAGUGAGGCACUCAAAACGACGGUGUAUAUUCAAAUGCCUGGUUCGUUCGGAUGUG'
p294
aS'GAAACGUGUUGAAUUGCCUACAGCAAACACGGCCUCGACAAUGCGUGGACACGUCGGGUCUGGAGGAUGCGUAAACUUAUAACUUCCUCCAACACUUAUC'
p295
aS'GCCCUCAGCAGGACCUAUACCGCCGCUCAGGCGUACUUCGAGGAAACAUACUGGCGGGCUGCGCCUCUCUACGGGUAGCAUUAUUGCUCUGUAUAUACCA'
p296
aS'GUUGAUGCAAUGACAGCUGCGCAACUCAUUGCCGUCACUUUCCAAACCAUCUAACGCUACCCCUCUUAGUUCAAAUGCCGGUGGAAGAGAUGGCAGACAU'
p297
aS'AUGGUGGUAACCGUUCCACUUCCGACGCUAAUUUUAUUAGCAACGGGUUCUCCAAAAUUUGCACCAGCUAGUUGGCUGGUGCACAGGAGCUCGAGGAUUG'
p298
aS'CCUUAAAACGAGCCAUACGAAUGAGUUAAAAUAACAAGAUUUCGUAAGGUACCGACGGCUUGUGGGGACUAUUGUUUGGACAGUAUCCCGUCGAAGGCGC'
p299
aS'GGUCGCUUCACUGAACCCUUCCUUUGAGAGAAUGGGUGAUACUGUAACCUUCUCCGAGUACAUAUAAUCGCCCAGAAAUGAAGGGCCCACGUUGUGUAUG'
p300
aS'UUAAAAGUACAUUAAUACCACGACUCGGUCUGAGCAUCGCCGCCAUUCCACCGGCUACGGGAUGGUAUAGGAGUCAAAAUUAAAUUUCUCCCUGCUGUCU'
p301
aS'UCGGACCAUUGUGCGCCUAUAAAUCACAGUCGGCGAAGCAAUGUCACGUGUAGUGGCAUCAAACAAUGAGUCUACCAUGCGAGCGAUAUUAUUCUGCGCG'
p302
aS'GGCCCCGGGGCCCCGGAGGUUCCGCGGCAGCACGGCACGCCGGUAUUUUAGGAGGUUAUAAGUCCUUGUUCCAAACCAACACGGAUACCGACCCAACCCC'
p303
aS'GCCAUACUAGGCUUCUAAUCGGCUUCACUUAGAGGCAAUCAUCCGGAUGGGAUAACAUAUCUCCGGGUCCGGCCCCUUAGAGUGCACGGGCCGCCCAAGG'
p304
aS'CCAUGUCACUAGUAAAAGUCUACACGCCUUGAGACAGUUAAGAAAACUCGAAAAAAUGGGCGCCGUCGGUGUAAAUAUUUGUACCCCCUCGCCAGGCAGG'
p305
aS'GUGGCCGCGAGGGCUUUUCUGGUACUAAAGAUACCGAACGCAGCUAGUUAAACUAUCGUUCCAACCCGAACAACCGUAAGUGCGGUGGGGAGUCGCGCGG'
p306
aS'CGCGCAGAUUGUAUACAUCUGAAGUUUGGAGCACAGAUUGGAUAAGAUAAUCCCUCAGCUACUAUGUGGGAAUCACGGAUUUUUAUUUUCGCGCAACGCA'
p307
aS'CCUAUACGCGGAUCACCCUGAAGGCGCUCGUGGACGGUCAAGCAAAACCGAAUUACACGGUAUUUUAAGCACUUCGGUGUUAGAGGAUGGUCGUUCAGUU'
p308
aS'UGCGAGGGUGCUGCUCCUAAGUGCUGUAUGUAUGCUGACGGGUACUAUCCAGUGACAUCAAUCCAUCCGGUACGCUCGAAAUCACGAAGAUGAGUAUUAU'
p309
aS'CACGAAAAUAAGUGAUGGGGUUAGGGUAGAGACUUGAGGUCCCUCUAGGAUUGACCAGUCAUCGGCACUGAUUAGCCGAGCGAGAAUAUUGGACCGUAAA'
p310
aS'GCAGCUGGAUUCCAUCAACGAACAUUGGUACCGUGCGGUGUGUCGCAUCGCAAUUGGGGAACCUUCAGCUCUUUAAGCUUGGGGUGUGAGGCUGACCCAG'
p311
aS'GCUUAUGUGCAACUCAACCGAUGGCGGGGACUACAUACUUCCCAUUCUUGUUGAAAUUACCGUGUGAGACGCCUAUAGCAGUUGCCGUUAGCCAACACAG'
p312
aS'GGGGAUUGACGUAAUAGCAGCGCCCGGCUUUCCUCGCAUCCCGUUGAAGAACUUACUGUUACGGGCAAUGGGUCGCUCUAGGCUCUUGUGUGCGUAAAAU'
p313
aS'CUAUGCCGAUAUCCUCUUGACUAAUCUGCGCAGAGCUUAUCCUCUCGGCCCUCUCUCUUGUGUUCGUACAAGACCUCCAUGAGAUGCCUCCAUGUGGCUC'
p314
aS'AUACAGCAUAAAAACGGUAGAAGGAUCGUACUCUUGUGACUUUGUUCAGAGGGGUGCUAGAACAUCGGAACAACACUUAGCUCGUUGAUCCUCUGCUUGA'
p315
aS'UCGUCACAUACUGCUUGACCUUGCGUUGAUGUCAACUUUGAAUCAUAAAUCACGGAGGUUUGGAGGAAUACCCGUCCGGACACGGACCCGAACUGCCGAA'
p316
aS'GUGCCGAGCUCGUACGGGCCCUAAUUCCUAGCCACACAUGGUUACUUUGCUAUCCAGUGACAUACAGGGCGCGGGGUGUUUCCACGCGGAAUCCGAUGUC'
p317
aS'GCACACUACAAUCGAGCUUACUUGCCUGCCCAACUUUGUCAUACUGAAUGGCUUCAGGCUUUCAAUUUUAGCAUCAAGCAGAGACCGUCCACACUAACCU'
p318
aS'GGUCAGCCAGCAUCAGUGUACCUGGUUCGCUGAUCCUUCUGCUUUAGAAUCGUCGCAGGGUACUCCUGUAAUGAAUGCUGACUGUUUUUGUAUCUCCUUG'
p319
aS'GAAGCUCGGUUUAAAAACCGACGGAUGGGUAAGCGACGCUUCGUGAUAGCGUGAGAAGGAUUACGACGGAGGUCUCGGGUGGUGGUAAUUGGCGGACUCA'
p320
aS'CACGGUGUUUUAGUGCGACGGCGGGCCGCCAGGUCUAUCUUGGAUAUUUCAUCGUAAGACACCUUUAUCAGCAUGAUUUGUAACGCUCUAACUUACGUAU'
p321
aS'GAUUAGGAGCACUGCAGCUUUGCCAUCGCACAGGCUGAUUCAGUAAUUAAAAAUCUCGGGAUAGUAAUCUUGGAGCGCGCAAAGUUGCACAGCUGUGAGG'
p322
aS'CACACUAACAAGCGCAUAACAAAAACAAAGCAGCCUAGCAGCUAAGCGGUAGUGGGAAGAGUGAUGCAACCAAACAGACAGAGUAUCGAGGUACACUGAA'
p323
aS'UCACAGAUCGGUGUAUCUAAUGCCAACAAGACCUACUUGAAGGUUAGGACGACCUAGGUGGAACAGGCGUGGCGUGACAAAUCAUCAAUAAGCUCCCACG'
p324
aS'AGCGACUAAGAAGAGCAAACUACGUACGAUUUCACGCGGUUCAAUUAAGGAUAGAACGCAUUUAAAUGCCGGAGGCUGGCACGGUGUAUCGUAUCGUGCC'
p325
aS'CUAGCUAGGGCGUGUAGGGGUACGCCCUUUCCUUGCAAGUCUAGCCGUCACAGGCUAGCUGAGCGCUGGCCAGAACUUAACGGCUGGGACAACCGGAACG'
p326
aS'UUGAAACCGAACCUAAGUCCAACUCCAGAUCGUGGUUUCAUUCCCUCCAAAAGGGCUAGCUGCGAUUGAUUAUGUAUGGGUGUCAUGACAAUGCUCCCGA'
p327
aS'GUACUGUUGUACGAUAGUGCGAGAAGACUAUUGCCGCUCGCAUUGGAUUCUGGUAGCGGUCGCGUACUGCACCUGGAGUAGAACUGUACCAAAUAAUUUU'
p328
aS'CAUCCCUGUUGUAAUGACUUGACCAACCGGCCACUCUUCAUUCCCUCGUAUGCCUGCGCGAUCCACCCCCGGUCGCCCGUUAAUUACCAACACCGCUGGA'
p329
aS'UUCCCGUCCGAACGCAAUAACCGCUGUGAGGCGGUGAGAGACCGAAGAGGAGGUCAUACCGUUAAGGGUGCGUGAUUGGACACUCGUAGCAAUCAAGCCG'
p330
aS'UUUUCUGCAGUGAUCAGAUCGAGGUCAGCCUUCCCGUGAUUACGCCGCAAAUUGGUCACGCUAUCCCUGUCUUUCGCCAGAUCUAUAUGCAUCUGCAUUG'
p331
aS'CGUAAUCGCUCUGUACUCGAAUGAAGAGAGCAAAUCGUUUGGACCGAAAGGAUUAUUAAGCAGACAGAGCUUUUCAGUCCUAGUGCGAUCCUAGCUCUGC'
p332
aS'AAGACAGGUGAUUCGACGUUAGGCCCAACUCAAGCCGCCGACUCCGCUCUUACUUGUAGCAUGUGGGCUAUAUAGACGAGCAGACAGGAGUGCAACGCAG'
p333
aS'GUCGUGCUUACGGAUGGUUCACAUUACCAGGAGGUAAUGAUUACUUUUAGUCACAGCAAUGCCAAGGGCUUUUGCACCGUAGUAUGGUCUUUAGAUAGGC'
p334
aS'UAUAGUACGAAGAAUUGAAUGACGUAAGGGGGUCAGGGUGAAUAUUGCCCUAAGUAUUUUGGAACUCCCAGCGUUUGAGCAACGGCUAUAUCCCAAGUAC'
p335
aS'GUGGUAGGAGACUUAACAAUAUAGUACGGAUUGGUAAAACCACUACCGUAUACGGCCCUCUAACAUGUAGGGUGGGUUUAACGUUGGUCUCUGUAUGGUU'
p336
aS'GAUGACUUUUACCGGGUUAAUAGCGGGUAACAGUGUAGUGGACUCAAAGGAAUUAGCGAACCAAUUAUGCUUAUUGGGUCCCUGUUAAUUACUGCUGCUG'
p337
aS'AGUUCAACAUAAUUCUACCGAUUGACAGCCACGUUGGUUGGUACACUUCCGGAAACAGACCAUAUAAUUCUUGCCUUUGGUCUUAGUCCGAUAGUUACGA'
p338
aS'AACAGGGUCGCCGAAGCUAUGUUGGGAUCUUAAGCUGAUAUACGAAACAAAAAACCCAUAUACGACGUUCACCCAUGGGGGACCUAGCCGUUUAGCUUGA'
p339
aS'AUGAGAUAACUUGACGUCAAACUGGUGUAUCUGCGCACUGACGCUUUCGAGGAAUGAGACGAACGCGAGGUGAAUCAAGGCGGAUUUACCGCAAUCUUCG'
p340
aS'UCUCUUACAGCCGUCGAGAAGGUGGGCAGGUCCCGUCGUAAUGAAUUAACGGUCGUCAAAAUUUUUUCUUUUGAGUAAUGGACGGCUUCGCGGGAGUUAG'
p341
aS'AGUGCCUUGUUCCGGCACACCACCCAUAUCUGUUCCCCCUCAUACCAGGCUAUCUUCAGACAAUAUAGUAGCACAACGGGUUAAAGAUGAGGAGGACAUG'
p342
aS'AGUUCCCUUGAUCCAGCCUAUCCGUGUAAACAGGAACGUUGGAUGUAUGAGGAAAGAGAGGUGCGUUAGCUUCUCUGGCUUUGGGUUCUUGAGUUGACCU'
p343
aS'AAACUCUACAAUCGACACGGGUGAUUGCGUACGGCGCCCCUAAAAGAUAACUCUGUGACCCUCCGGUUUUGUAGUGGAUUUGACCUCCCGUUGCGCCCCA'
p344
aS'UAGCGCGGUCGGUUCUUGCGCCAGAAGUCAACGUUAACUUGCUCGUAUGCCUUUGCAUCUUUAGCCCGGGGCGCAACCGGAGUUUAGUCUAAGCGGUGGC'
p345
aS'ACGAUAUUUAUGGAGCAGUCCGGAAGUAAAGUGUCACUUGUCCCGUUACAUCUAUAGUUACUACUUACCGAUUCACGGACCCGGGUUCUUCCGUUUUCGC'
p346
aS'AACAGACGUCUGAGGUUGUUUUACGGACAGCUUCCGAUCGGCGCCCAUUGGUCGCUCGAAGAGACUAGAGACGAAAUCGACCAUGCACGCCGUAAACCAA'
p347
aS'GCCAUUUAGCUAAAUCACCGGACCGACCCCUCGAGAGUCAUUGCACGAAUCGUGAUUGCGAAAAACUCAGAGGACCGCUCCUCCACUCCGUGAGUCAAUC'
p348
aS'CAUGGGCGAUAGUUAAUUCACGCUGAAGGAAUGAUGUGUCGUGAGUAAACGCUAAAAGCCAAAAAUGUUGUGGUACGUGCACUCAAACUAUGGGACUCGU'
p349
aS'CACUCCCGUUCCAUUUAGCCAGGACACAAAGUAUAGCGGUUAAAGUUUGAAUGUGUAUGGGUGAAUAGGUCUGUGAUCAUAUGGGUACCCUAACUAAGUU'
p350
aS'CACAUCAAAUUGCCAUGCUUAACUAUUACUAAUUACGCACGUAUGCUCUUCCCCCAUUACGUAUAGUGCGAGGUUAGAUGAGAAGCGGCGCUCUACGAUA'
p351
aS'UGGAAUAGUUAGUAAUACGUUAGCUGAUAGCUUCGCACGCCCAGCAGUCAUUUACCGACAGAAGUUCUUCGUUCAUGCAACCGGACCAGGACCGAUAGUG'
p352
aS'AUCUCCAGUUGGUACAUAGCGAUAUGGCUCGUCUACGGCAGCAGGACGGCAAUUAAACCCGGCUGAGGAAUAAUUGAAACGUCAGGAUUUUAACCCUCGC'
p353
aS'GGAAAAUACACCUGCUGCGUUAGGAACUGCUUAAGGAUUGAAUCUUAAACAGCAUCGGCUUAGAUCGCUGACGGCUAGGUCAUACAGAAAACGGUGCCCG'
p354
aS'CUCCGCAACUAUGCCAGUGCGCGUGGCGAACCCCCAGUUGCGGCCUGGGUCCCUGUGUAAUGAAGGAGUGUACGGCGAAAGCCAGGUGGAAAAUAGACUU'
p355
aS'ACAAUACAGAUAACCCCCUAUCCCCUCCAGGCUACCUUGACAUGGGUAAUCUGGAGGUGCCACUGUCGUGGGUCCGGAAGCUGUGCCAUGGACGCGGGUU'
p356
aS'AAAUAUUCAUUUAGAAUCGGUUCAGCCAGACCGCGAUGCUGAUGCAUAGCCUGCGGCCUCUCUCCGGAGCCUGCAACCGUCGGAACUUAUCCGCCGGGGA'
p357
aS'UCCAAUUUAGCACCUAUCGAAACGCUUUUCGAUUUAAUGGGCGCUAUACCGGAACAACACAAUGCAAAUGCGCUCCUCCGAAAGGGCCCGUUGUCAACCG'
p358
aS'UUAACCUACGGAUGUGAAUUGACUGCGUCGGUCGCUUUGAGCUAAUGUCAUGUCGUAGUAUCGCCAAGUCUCCAAUAACGAGGUCGUAACCUGGAAUAUG'
p359
aS'AGAGAAAUAGGGUUGAGUUUCGGCUGCGAAUGAGUAAUUCCGGGAGUAUGGAGUCAGAUCCUCGCGUCUCGGAUCCUCCAGUCCUUCAGUGUACGUAAAC'
p360
aS'AUGCGUUAGUUAGACAUGUGUUUGUCGGCCUUCUUCACUGCAUUGGCGAGCUGACCUACUCAAAGUUAGCUCCACAGAUAUUGGGCGCAUGAGCCGAGCC'
p361
aS'AGUGGAGAUGCUAGGUGAAAAGUUAGUCGGGACCUCCUGUGCGAGUUUGGCUUUCGCUAUCCUCUGUCCUUCAAAGCGAACGUCAGGUGUUACGUUGUAC'
p362
aS'CAUCCUAGCUAUUCCUUAUGGAUUUAUUUGUUAGGCAUAAUUGUCCUAGUCGCGCAAGGGAAAUGGAAACAUUCGUGUGAAGCAACGUAAUACUUUGCUC'
p363
aS'CUACAGGUCGGCUGAGGCGAUGGAGGGAUGUCCAUUAUCUGCUGCUCGUGUCGCGCCUAGCCGAGCCUGAAUACGUGUGGGUCCGCUGGAGCGGAUGCUG'
p364
aS'GAUGAGAUCCUAACCCUUUUAUCAUAAAUACGUGACCGCGUCUAUCUCCAAUCACCGACGUAGGUGGUCCGGCACCACUUAUCGAGACGCACAGCUUUAG'
p365
aS'UGUGGGACCCAGCUCCUAAUUAUAUAGGAAACAGAGUGGCCAUGCACACUGGCAAGGUCACAAUGAUUCUAACAUUUACAUAUUGCGGCUUGUAACCUGG'
p366
aS'CUCCUAUCUCUCCUAUUGGAGGUCUUGGUUGGCUACGAUAAGACGCCGUUAAGGGUGAUGCGAAACCCCCUAGCAGCGAGUUGAUCCGGUCGUAAGAGCA'
p367
aS'UAUAUGGCAAUCGCUUACCCAUUUAAAUGGUAGCAUCCGAAUAUUGAGAUAGGGCAGCCGAUCGUAGAGCGAGCAAAUUAUACAUGGGCCCUCUGCCCCG'
p368
aS'CAAAAAACCUUCCGUCAGCGCUGACUCCGGUUUGACGGACCUUAACCGCCUUACCCUGUCUCCACGCAGCACUUGAGAUGUCUCGCUUAACUGGUAACGG'
p369
aS'ACCACAGUGGGCUAAGCCCCUAUCUUCGUGACAAGCUUCUAGACAAAGGUAUGAAGAAGAAUCUUGAGUGGUCUGGCAAUAUUUCGAUUGCCACCGAAAA'
p370
aS'CUGCAGGUCUAUUUGCCAGCGCGUCAUAAGAUGCUCUCUCUCCGCCGGGGUAACUCGUUCAUUAUCAGCAAAGGUGCUGUCUGGUUUCUUUUUUUAUGUA'
p371
aS'ACGAGAGAGAGGUUCGCUUAAUAAUUCUCAACCCCACCAGGGCCUCACUUAAGUGUUGAUAUGGCUCCGGCUAGGCCCGUGAAGAUGAUCAUGAAGGCUU'
p372
aS'AGGGUGCUAGAGUCUCUUCGGCUGCAGUCUCCCACGCCCAAGCUAAUUGGUGGAUGAACCUCGUAGUUGACCAUGCUUAUUCUUCGAGUAUAUAUGAGUC'
p373
aS'CUCGUAGCGGGAACCGCGGGUCAAGUAACGAAGCGCUUUGAGGGCGUGAUUACUGGAUAAACUCGGCGGUGUGCCAAGAACUUGUGGAUCUUUACACCCU'
p374
aS'GGCCAUCCGUGGCCCGUCUCUAAGGUCAGGUUCCCGCCUCUGUCGGAACGGUUGGCCGUAUGGCGAGGCACAUUUUGUUCGCUAGCACGUGGACGGAAUG'
p375
aS'UUUCCCCCCUGUUUUGAGAAAUGUUAUUCAUUGGCUAAAUCUCGUGGAGUGUUGUGAUUAUAUCAGUAGUGAGGAUACGCUACAGGUUCAGUAAAGGUAU'
p376
aS'GCCAAAAGCUGGCUACCGGGCUUUUUCUCUUGAGUUAUUAGGAGUGACCUGUAAAUCGCUCCUCCCUAUGAGAUCAAUUGUGGGAAUGAACGUCUGUCAG'
p377
aS'UGCCAUGCAAGAAGUGAUUACAGCGCAUGUCAUUAGGACAACGGAGGGUCUAGGUCAACAUCCGUCCAGGUAAUCUACGCUCAUUACCCCCUCUUGGGUU'
p378
aS'UGUCGAUGACAUGGCUGGUGAGCGUUGGAGGGGUUUGACUUCCUAGACCUUUGACUUUCAAGGCGCGAAGUGCGGGGAGUAGUACUCAUUCUGCGAAGCC'
p379
aS'GUCUGGACUGGCUUAGCUGUGUCCCACGGCAUAGAGAAUGUAGUGCUGUAAUCGAAAAAACGCUACGGGUGAGGAACCAGUCAAGAAAUAAUCUAUAUAA'
p380
aS'GUAGUGUGUGGGUCUACUGGUUCCUCACACAGCCCCUUAAAUGCCGUAACCGCACUUCGCAGGCUAUGAGGUAUAAAUGAUUCAAGUAAAGGCAAGCGAA'
p381
aS'GGUGCAACAGAGGUCCGCGGCUUGAUCGUUCCUGCCCUACUACCAAUCCAGCAUGAUUACUUGACCGUCCGAAAUGAUUUGCGGAGAAUGCGAGCGAGGU'
p382
aS'CCAAGGGCCAGCCGACCGAUAAGCAGGAGUUUGCACAUAAUCUGAUAUACGACUUCUACCGGGGCUUUGUACUGCGAAAAACCAGUGGUGGCGGUGGUUG'
p383
aS'GAUUUUUUAACUGUUGAAAAUGCAGGGCACGCUUGAUGCUAAAUCUGCAUCUCCAUGGCCAACUCCUUGGUUUACAGGGAUAAAUCAUAAUACCUUCGGA'
p384
aS'GACUGCUAGCAUGGGUUGGGACUCCGGGUUUUACUCUGACGCUGGUUAGGCAGUCACCAAUACGGAUUCUAGCAGACAACAAUAAUUCUGCCAGCCCGGU'
p385
aS'UUCUGGUUUGCUGGGCCGACCAUAAUCGGUAAUCUGGCAGAGGCUCGCACGACUCACUGUGCAGAGCUCAUGAAUUGUCACCCUUCAACGGUCUACACCA'
p386
aS'GCUGGACCGGCUAGACUGUAGUCAUUCUUCUCGAAAGAACCGGCUCCCUAGAUAUCACUGUCGUAUAGGCGCUGAAGACCGAGAGAAUCUCGUACAGCCU'
p387
aS'UCAGCCGUAUGUUACUCCCUUUUAGUACCUGCAUCCUACUAUCGUAAUGAGGUCCCAGUGAUUAUGAAAUGACACAAACUUGAGGCCCACCUUCGGCUGA'
p388
aS'AUCCGUGCAGGGGCUGUAUAAUAACGUUUGUAAUUACACUUGCGUCAGGGACGCUGGGAUAAGCGGCCGUAAGACAGAGGUGUCGUGUUCCACCAAUGGC'
p389
aS'UGGCGGAUGCCUAUUCCACAAACGGCGUAUGCUUUUUCACAUGCCGUUUCAGUGAUCCUACCUCGCUAGGUCCAGAGUAGUCCUAGGCUUGGGACCAAAA'
p390
aS'GGGCGCGUGCGCCUUUUUUGGGUCCACUAUCGGGCAGCGUCCAGCUUAGUGUGUUACAAUCUGUGACUCUCUUCCCUCCUCGUAUCGCUGGCUACGUCGG'
p391
aS'GACUAUACCAAUAUACUUUCAAUAUUGAUUCAGACUAUGUUUCCGGCCCCAUGCAAGAGUUAUCCGUCGAAGACGUUUAUAGUACCUCGUAGUUAACUAC'
p392
aS'CGCCAACGAGCGCGCACCGACGACCUCGCUCCAAAUACCGCAUAAUAUUUCUUGAACUUUACCUGGCUCCCGAAGUCAAGACCCUUGUGUGGAUUGAAAU'
p393
aS'GACAUAUCCGGAUCCAAUCACUAAUUUCUAGGAGACCCUUUAGCAUCACGCCUCUCGCCCAGUAUCGAUAAAGUCACGUUGGGCUAGGAGUGAAGUAGAU'
p394
aS'CAUUCUUAGGAAACCUAGCUCUUCGCCCGUAACCACUGGCGGCCAAGAGAUCAUGUGGCCCCAUUAUGUGAAGUUUGAUAAGGCAGGGUUACGUUCACGU'
p395
aS'CUAAUGUAAUUCGGAGCGUUAUAAUAAGCACAUUGAAGCGUAAUGGACUCAUAUUAUAUAGCCUUUAAAUGAGGCCGUAACAAAUAGAAACUCUAGUAAA'
p396
aS'GGUGGGCUAACUUACUACCUGGAGCGUGUUACUUGUCCGACGUUGUAUGCGCUAGCGCCUAAAGGCCUAGAAUGGGAGCUUCACGCAAGGACUUCGCGGC'
p397
aS'UACGGCAUUGACUCAUCAGGUUGCACACACCGACGCAAAAACUAGAAGCUGAUUGUCCUGCUCCGUGAAAUUCCUCAUGUUGCAGAACUCACGCGAAACU'
p398
aS'AGAUGCACAGGUCGACAUUGUACAGGUAAGAGCAGAAGUAUAAGGUUGUGCUAGCCUUUAGAGAUUGACUUAAUCACUUCCUGCGUGCACACCUGUCUGG'
p399
aS'GGGAGUCCGAUUUAAGAAGCGGAGUCGCCGGAUCAAUUAGCGUCAGGACUAGGUUCGGAGGCCUCCCCGUGCCCAGCUGUCCAUCUCCGGCAGGGGGUUU'
p400
aS'UUCACUAACCCGCGGUCUCCUGCUCCCCAGCUCGAUCUUAGACAGAUCGCGGGGGUCAUCCAAAUGGCAAAUAGUAUCGCACCCCGGGGAUCAGAAGGAA'
p401
aS'CUAGAUAGGAGGAAGCUAGACAAUGGCGAGAUUCUACUCAGCUUAUCAUUCCUCCGUCUGCUAAUCUCCGAGCUUCGGCGAGUCUUGACAAAGGUACACA'
p402
aS'AUUGACUAAACACGCUUACCGCUAGUGGGGCGCCAGGUAGUGUUCCAACGAAUACCUUCACAGUGACUCUACGCACAAAACCACGUGCAGGACCGAUUCG'
p403
aS'AAGGAAUACCUUAUCCUAGCAGAAGAGCUGAUUACAUCCUGACAUUAACUCUACGCCAGGGCAGGGAAUUUGCUGGGUUAGCUGUGCGGGCAUGGCGGGC'
p404
aS'CUGUGGUCGUAUCAUCUAGGUAAUCCCCUCAUGCAGGAGCGCCUCGAAUAGAGUUUUUACGGUUGUACGUGACUCCCUCUACCGUAUGGGCAGGUGGGAA'
p405
aS'AAGUAACGCGAACACGGAGCAUGUCUGUCGCAAACCGUACUGAAAUUGGACAGGGCGAGCAAGCCCUGGCUUAAUAGGAGUAUCGACUCCCUCACAACUA'
p406
aS'ACCACAAUGUGGAUUGACUAUAGGGCGUCUUGUUAUUCAGCAUCUCGGCUCCUUAACUCCCAUUCAUAUCAAAUGGCUCACAGAGUCGGCCGGGGGUCAG'
p407
aS'GAUUCUAUACGGAUAAACUAGGUAUGCUUCGAACACACAAUUUCAUGUUUGCGGCGAGUGACAAAGAUGGCUAUUUGACGGCCGGACGAUUAUGUCGUCC'
p408
aS'AUGUACCCUCUUGUUAUACAUCACAAACGUAAGGUCCAGAGACUGGAUUACCUUGCGUUACUGUCGUUAAUAGAAUGGAAGUCUUGUAGGAACAAUCGCU'
p409
aS'UCUUAAGUACGGAUGCAGCGUAGCCCUCCCUCGCCCUCUAGUAGCGAACGGAUUAACCGUUCCCGACUUUUCGAGGUCAUCUUGGCCGAACACCGAGCAC'
p410
aS'UUGUCUUAAGGGGGACCUAAUUCCCCUGACUCCCGCAAAAACAUGGGUAGUACUCCAAGUCAGUCGACGCACGGGGCCACAUUGCGCGCGUCAGUGAUAA'
p411
aS'CGUUCUGUGAACAAUUUCCGGGCAAACGCGGGUGUCACAUACCUUUGGGCGACACAAACUCCGGGGGCGGGCCUUAUGUGUGUAGGUGAGAAUCUCGGUC'
p412
aS'UGCGCAGAACCCUUAUUAGUGAUGGUAUCGUUUGGCGGUGCGCGUAUGCCUUAAUUGCCUACCACCCCGUUUAUUUGGUACAGCGUUCUGGAAACCAGAG'
p413
aS'GAUAUCCAGCAGAAUAGGAAGGGCCCCGGUAGCCCCCAGAUAGGCAUCUGCACCCCGUUUUAUAGGCAAGCGAUCAGGUUGUCUCGGAAAUGUCUCAGGG'
p414
aS'CCAGUCCAGACGACGUCUCAGUUUGUCCUUCCUCUAAUUCCAUCCGGAGAGUGACUUCAGUUAUGAACUCUAUUGUCACGUAGUUUAGACGGCCAUACUU'
p415
aS'CUGUAAUGGGUUGUAUCGCGGAUACAAGAUUCUGGCCGCGGCGAAGAAAAUGAGAAAUGUUUGGUCGUGCGCCGAAUUGGUACCGGCUAUUCCGGGCUCA'
p416
aS'CGGUAUCCGCCAGUGAGUCCGACACCUCACACCCACUUCGCGAGGAUCAUUGUAGAUCGAUUCCGUGGUCUAAGGAUAAGCAGCACCCCCAUUUCAGAUG'
p417
aS'AUUGAAGAGGAGCGAAACAGGGCUGAUGAAUAACCAGCCGUCCUAUGCAGCGCCUCUCGUCCUCGGACGGUCACCGCACUCUCUAUUGACAUCCCUUGUU'
p418
aS'CCAACAAGUGACCUUAGCACCUCUCUCUUCGGUCCGAUACUCGCAUUGUACGAAUCUGAGGCAACGACGGUUCCAAUCAGUGCGAAGAACUUCAGACUUA'
p419
aS'GUGUGUUGCCCAAAGUCCGUUCCGUCGCCCCGGGGGGGAACCCCGGUCACUCUGAUGUGCUGUUACCCGCAAAUCGCAGUCCGUAAAUCGGUUCAAGAGG'
p420
aS'CACUGCGGGAAGAUAUUGAUGAAGCUAAGGCGCGUUUCUGCUAAAAUGAGCAUUUCAACUUGCUCGUUGUGCAGGCACUACAUCGAACCUCCGAAGGAGA'
p421
aS'CCAUGUGAUGCAGGCCGCGGUGAUUUUACAGACUAGCACAUCACUUGCUCUUCGUUCGCAGAUUUUAGAAACCUUUUGGACUCGUUAGCCGGGAGAUGUA'
p422
aS'ACAACAGGCGGUUGUGCGACUUGUGAAAUCAUGCGCAUCACUACUUGCCAAAGUAAGCGACCAUUAUAGACCUAGGCGAUGCAUUGGGACACGAGUUAUA'
p423
aS'AGGUUCACCGCGAGCCGCUGCUGUAAAGACCACAAGGGAAGUCUGUUCGUCAGGAUCGGACCUCUACCAUAAUGGAAGUCCUUCUUAUAUACUAGUUAGC'
p424
aS'GUAACUUUUUACAGUCGCUGACAGAGUCAGGCUCAGCAGCGAGUAAUUGUGGCUAUUUCUGCGUGGAUUUGAAAUGCGGGCCGCCUUGACUAGUGCCUAG'
p425
aS'UGCUUGGACAGUGCCUAUCUUCCGGGUCUUUGGAAUGUCAUCACAGCUCACAUUGGACCGGCUUGACGAUCGUGUAUCGCUUCCUGCCAUUCAAGAAUCG'
p426
aS'ACGUCAUUCCAAGUCAAGAAAAGAGAGUUACAUGGUUAAAAGUGGCAAUACGAUGUAAAUCCAUGCCUCAACAUUAGAGUUUGGCCCCGCGGACAAUUGU'
p427
aS'GCCCGGUUCACCAGAUCACGCUGCUCAGGAUUGGACUAAAUCGCGAGAGCGUGAGCAAACCGCCACAUAUUUAUUUGCUUGGAGAAGGGAAGUCAUAACU'
p428
aS'UUAAAACAAGACCUCGUGAGGGUUCGUGCCCGUAUGUCGGUAGUUGGCUGUAUCACUGUCCAUGACUAUUGCACACGUAACGGCAAUGGUGUCCUAUUAU'
p429
aS'GCAUCCCUCGACUAAUAAACGUUUGUAGGCACGGUGGGAGUUCGUCUAGAUAUAGCGUAUGGCCGAUCAGAAAAUCACUCAGGCGGCUUAGGGCUUCCCC'
p430
aS'CACCUUAAUUACCAAAGGGCAACCAAUGGGCUUCGUACAACCUUACCCACCAAGGACGCUGAAAUUCUGGGUUUAACCCGUCCGAGUAAUGUCCGGGUGU'
p431
aS'GGGAAACGCUACUGCGCCGUUUAUCUAAUUUUAUCAUAAAUAAAGCCUAGUGACCGAUGACGUUUACGACCCUCCAUUUUAAUAGCACGCAUAGUAUCCG'
p432
aS'CCUCGCAGUACCUUGCAACGUUUCCAACCGUCUUCCGGGCACAUCUCCUUACGAAUUACAGUUCGAACCAGCCAUCUCGUCCAGCUUGGAUUAGUUUUCC'
p433
aS'GCCGUCCUUAUGGUGCAUAUCAGAGACCCCCAUUCUACAGGGCCACUGUAAAGGUAUUAUGACCUACCGGAAUCGCCCCGUUUACGUAAAAUUAGUAUGG'
p434
aS'AGAGCUAAAACGGGCAGGGUAUGACAACCACUGCAAGACUCAGACUGAAUGUCUCUGUUUGGUACAUUCGCAAGACAUGGGCAAGCCUCGAAUUAUAGAG'
p435
aS'ACGGGUCCGAUAGCUUGGUAGGUAUAUAGUCCAGCGGAAUAAUCAUUACACGCCCGGGUGUGUCCCCACUCCAUAGUCGAGACUGAGGAUCCCGUCCACG'
p436
aS'GGCAGCCGUCUUAGAGGACUGCCUUUCCGGUCGGGAAUGAGCAUAAGUGUUGGUUUCGGAACCUUGAGGCCCUACUACAAGCCCCAGCAACCCAUACAUU'
p437
aS'GACGAACGACUACGUGUGUAAUAGAUCGUUCAAACUGACUGAACCAACUUCAAUAGGAAUCUGUAUGUAGUAGACUAUCCGCGUGCACUAAAUCCAUCAU'
p438
aS'AAAGAGCCAUUGGAUGCCGGCUUACAUAGCGCGCAAAGGCGCAUACCCACAUCUGCAAAAAAAAAAUAUGCCCCAGGGCUGGUCAUAGAUAUGCCCGCCG'
p439
aS'UAGACCGAUUUCAUUCAUGUUCUGGAUUGACAAUACACCUGCCGUCCAUCUACAGAACGGACGCAUGUCUAGAUUAGUUGUGGCGUUCUGAAGUGGGUGU'
p440
aS'UUGUGGUUGAGAGUUACAGACGGUGACUCCCAAGGGGCCACUUGGGCCACUCUACCCUAGGAGCCGGAACAAAACGUGUGAGGUGCGGUGUUCUCAGGCC'
p441
aS'CGUUAACCAACUUCCUCAGCGGCACUGUUCCGUAUUCACCUAGCCUUGCCAUGCAGACUGCCAUCCACUGUACACUCGCUAAGUGAGGAUAAAAUCCUGG'
p442
aS'UGUUGACCCAUGCGGUCCUUCCCGCCAGCCGAUUCUGGUGCCUUAAGGUGACGUCUUUCCAGCGCUUGGAUAGACAUGAACACGGUGCACCCCACACUCG'
p443
aS'UGGUCCGUGACACACCCCUUGUUAGUCUACAAACAACGAUCUUGGAUCAAUGCGACCUAUGGUGUGAGCGGUUCUUUAUGAAGUUCCCGGAAGGCACCGA'
p444
aS'UAAGGCCAAUCAUCCGCUCACGAAGCACCCCCGGCCAGCAUGCCAGCCAUUGAAGAGAAUUAACCUGCGGGCUAAGGCCCAAGCAUCGUUGUGUCGAUUU'
p445
aS'AAGGAAGGCCGGCCGCUCCGACUGCUGGGCAUAACGUGUUCACAAUUGUCUAUCCAGAUCCUGGAGCUGGCUUCACAUAAGAGAAAGACCGCUCUAAUUC'
p446
aS'UUCUUACAGCUAAUCUCGACAGCUUCUGGGUCCCGUAGGUUCUCUCUCUGUUACUCAGUGCCGUUCACACGUUUUGAGCGUAGCUCAGAUACCUCUACCU'
p447
aS'UAAAAGCAUGUCGUUGUAGCGCGUUAAUUUGCUUCGCACGGAGACCUUGACGGUUACCCGCCCUGGGGUGAUGCCGUCCCUUUUUAGAUAAAAACACCCU'
p448
aS'UCAGCGCCGGCACACGUAGGAUCUUUCCGUUAGCUAACGGUCGACACUUCGGGAUGAACUGGCCAUACUGAGCUAAGCGUAUAUUCCGGGUGACAGGGUU'
p449
aS'GCCGACACAAAAUGCGGCGGGGGAAUAUAAUCAGAGGCGAAGGCUUUCCAUAGAGACCGUCAUGCCAUCCUUAAUAUUGUCACGUGUUGCCUCGAUAAGC'
p450
aS'CCUGUAACUUAAGACCUUGACUACUUAUCGCUUCCGUUUACCGCCACUAUCAGACCCGCACCUAAUUUGCAAUACUUUGAUACAGCAUAUAGGCUCCUGA'
p451
aS'CGCCAUAGGAAACUGCCCAUCGGUAAUUCGUGGUGUUUCCAUAAUUAUUCUCUCGGGGCCUUUCAUUUGUGAAUUCUCCCCGCAGUCCUAGGCACCAUCG'
p452
aS'CAUGAUUCAUUGGAUUAUUGUGACGUGCCUGCUACUACUAAUCCUGACUGAGUACAAUAACCGGGCGAAACUUAAGAGUUGAGCGGGCCCUCAGCGUUAU'
p453
aS'GAUGAAAGGCGAAUCCUCUACCUAAGUUUAUCACUAUUUGCGCGAUAAAUGUGAGAAAUAACUAGUCAAGAAAGAAUAGGUAGCCAUGAGCGCACAUGUC'
p454
aS'CCUUCUCGGGGAGCGAGUUGUUAGAGCCCCUGUCGGACCGCGCAUCUGAGCGUCCGAUUAGUGGGGGAAGUAACAUUUACACGAAGGGUCACCCAAAAUA'
p455
aS'GUAUGAGUUACGGAGGUUAACCUAUAAAGCGAAAAUGCAAUUUCAUCGCUCGACAUAGAUCGGAACAACGGGCCAUGCUCUCGCUAUACGAACAGACCUA'
p456
aS'AGGUCGAAUCCCGGGUUUUAGGCGCCCGGUACCCGAUAUGGGUCCUCCAAAUUCUAAGCUGGAGUCUGGUGGAGAAAUGAAGUGAACCGAUGGUUGACCU'
p457
aS'AGGAGGAGGUUGCGUCCGUUGGCGUAAUUUUGCACGGGACUGAGACGUCAUUACUGGAAACCAUAGAUUCAUGCAGCGCUUUGAGGAAGCCAACGCCUGC'
p458
aS'CUGGUGUCAGGAGAAAAAUCUUUAUUUAAUCUCACCCGGUCUUGUGAGUCCUAAGAGUCGAAACGCAUGUCCGUUCCUCCACAAUCGCAGAAAGUCUUAC'
p459
aS'AUAUUGGCCGCCCAGAGCUGUCCGCCUGUACCACCAACCUAUAAGGUGACUAUAGGACGUGGUCAGGUCCCAUGAACGUGGGGGGGACGCGAACCCCGAA'
p460
aS'GUCGGUGUAAUGGAUGGGUUAGCCCUAGUAACACGAGGUUUCCGAUCAGUAUGGCUUGGUAGGCAUGCACUUAGUCACGCAAAGGAUUUAGGAGUGAUAC'
p461
aS'GAGCUCCGAGGGACUGGCUCCGAACGUUUGGUUUUAAGUAUGAUCACCGCUUAGGAGGCGGCCCGCCGGCUUACCAAUACGGGUUUAAUAGCUCAAUCGU'
p462
aS'UUGAGGGCUACAGUUGGAGAUCACCAGAACAGUUCGUUCGCCUCCACCACUAGGUUUGGACUUAGAGCGACGGUCCCGUGAAUCCGUACCCGGCUUAACC'
p463
aS'CCAACUCACUAGCAAGUUAGUUCGCGUGGGAUGGGAUGUUGCAUCUACCGAGAAACAAAUGUGCUGGUAUGGCGGUUAUUCGUGGGGGCGUACAAGCCCA'
p464
aS'UACUCCUUGAUGGCAUAUUCGGGUUUCAUUUAGUUUGCAACAGUAGAAAUUGGUUUAACAGUUAUGCUAGCUCUAGAACGCCUGCCUGCACAGUUUCAUU'
p465
aS'GAACCAGUUUAUAUAGUAGUCAGAGACACCGGGCCUACGCACGAGGCCCAUUCGCCUGGCGCUGCCGCGGGCCUGCAAGAGGGUGCUAUUCCACAUUAGU'
p466
aS'UCUAUUCGUUGGACCUCAUAUAUAGAGUGCAUUAGCAAGGGAAUGGUUUGUAUAUUCUGCAUCAACAUGGGUAAUAGGUUAGCAAUGCUUCAGCCGAAAC'
p467
aS'AUAUUGUACGUAUAAUUUUGAAAUUGGGGUAGCGUGUGGUGGGACGUACGGGGUGCCGCCUUCGCCGGGUCUCGGCGCCGAUCGUGGGGUGCAUAAGACU'
p468
aS'CAGUCUUCACCUCUUGGCUGAGUCAAACAUCUAGUCAAUCGUUGUAUUUCCAUCGGAGUAAAAUAUAUAAUGAGACCUCUAAGUGGCCUGUGGUGGAUAG'
p469
aS'UCGUGCUGGAUAAGCGUAGGGCUUCCCCGGCCAGGCGAGUCAGCCGAUCUUCAUUCCCUCGAUGGCCGCCUCAUAGCGUGAUUGUUUUCAAGGUCCCGCG'
p470
aS'CGAUGAGGCUCUGUGGAUGGAGCCCGUCGAGCAGUCUGCUUGGCUGUGAUUCGAUCCAAUGUUACAGGUUUUACUUCCCAGGGGCGGUCAAGUUUUCUGU'
p471
aS'GGUUCCUGAGUAGGUCCUAGUUAACGGCCUUAGAGGACUCGCCAUACCUCCCUAGGAUCUUGGUAAGCUCUCCCAAGGAUCAGUUCGCCGUCGCCGAGUG'
p472
aS'CGCUUUGUGAACCGCGAAAACUCGCGAACUAUGCGCUGUGAAUGGUUACCUCAAUGUGACCCGAGUCUCGAAAUGGGCGACAUACGAAGAAAUCAUUUAG'
p473
aS'UUGAAUAACGCAGAACACAACGUGUACUUGCACUGUAAUUGAAUGGCCACCUUAUUUUAGCGAACUCGGGGAGACUGAGGUUUUCUUCCCGGAAGGAAUG'
p474
aS'AUAAUCGGGAUACGGGGAUCACGGCGAUUAGGUAAAUGGGGAGGAAACGGGUAGGCUCCUGGACCAGAUAAUUCGUCAGGCUACCUAGGUAGUAUUAAGC'
p475
aS'GCUCCAGAGGAAUAUCGGUUCACUCGUUCCGGGCAAUCGUCUCGGAUCGGAUAUUCAGUACAAGUUCCGCGAGGCGGCGUGAGCUCCACACACCCACGGG'
p476
aS'CCCUUGGGCGCAAAAGAUAGGUAUGACGUUACAUAAACUAAGUUAAACAUACGUGCCUGGGAACACAGAACUUAUUAUAUUAUAUACCGAACAUGCGAGU'
p477
aS'GGCACCGCUCUACAAGGCGGGCGGAAUAGGGAAGCGGUUGGGCCCACGCAUCCUUGCUCGUGCUUCGGCCCCUCUAGAAAGGAAGGAUGCAACUGACUGU'
p478
aS'UCCCUUCCCCGCUGUAGGACGCAAAAGCGAAAGGGAUCAGAAAACUUCGAAGCCUCGAGUUGAGAGGAACCGGUUAUGUCUUAGGGGGGGAUUCAUUCUG'
p479
aS'CGCGGAGCUCUUGUCCGCCGGAUCACAUCCGUAGGGCCGACGGCAGGUCUGGGACGCUGUGCGCCAAGCGAUUAUCGAGCCUCGCUAUAAACAAGCGAAU'
p480
aS'UGGACACUUGUGGUCUGUAGCAGCCAGUGACAACCGGGGAGGGGCACAGUGGCGCGCGCACCCACACGCGCAUGUUUCUUCUCUGAGUCACUUAUCGAAA'
p481
aS'UCGGUGGAUGAUGACGUGGUCAACGGGGGCAGCAAUCAAGUAAUGCCAGAGGCCUGUAGAGACGGUCUGCCUCUGGCCGCACAUGUAUUAGCUAUCGGUG'
p482
aS'GCCCGGUUUCGAAUAGGCACGAAGCUAGGAGCCGGAUUUGAUGGUCAGUAGAGAUAAUAGAGCGAAUUCAUCCGCUGUGAGUCGUGGCUGGUACAUGGUU'
p483
aS'CUUUCAAACCGCUAAUAAUUCGGUAGGAUAAGGGCCGCCGCGGUAUGCACAGAAUGAAGUCGCAAUGGUAGUUGUUGCUGACGUCAACCGUCCAGUAUUC'
p484
aS'CCACCGUGUCGACCAAUCUUGUAGCAGCCUCUAUGGAGCCGAGAUCACGUAUAGGCAUCUCUGCGCAGGACUCAGAUCCUUCGCGCUGGGGGGUUAAUCC'
p485
aS'GCACAAAAGAAAAUUGUCGACACCACCGAAGGGUGUUAGCAAGAUGUCGGAUCAGGUGUGUGUUUCUCAACAACCGGCGGAUGAAGAUCACUUAAGCGGC'
p486
aS'UUUUACCCCAGCAUACUACAAUGAUACACUACUCCCACCUACAGACACCUGCGAAAUUUAACCCAUCACGAUAUCAUUACGUCGCCGGCAUCUACUCAGC'
p487
aS'UAUAGCGCCGUAGCGUUCGGAGGAGUGCUUAGGAACUUGCAGCCUUGAGUGGCAACACAAGUCUUUAAUAGCGACAGAGGGACGAUGUUCCACUGCGCUG'
p488
aS'AAUCUCCUUUGAGGUAUUUAGUAUAUGAAUAACCUUUCAGAACUGUAAGGCCCUUUCGCGGUUCGUUGCGCACCUUACAUGAGAUACCAUAGAGGAUCUC'
p489
aS'CCAUCUGGUACCCGCCUGUAAUUGGGACGACGGUGAGCCGUAGGCAGUAGAUGACUCAGCCGGCCCGAUGCCGCGUUAGAGUAACUAAAAAAGCACCCCG'
p490
aS'CGUAAGUUGGCAUAGAUGAAAACCGUUUUUACUCUCUGGGCUUUUUCCAUAUCAAUAGGCUGCCCGUCAACCGCACACCAGUUUAUUAGAUUCAUAUUUC'
p491
aS'CAGAGUGCAGGUUUUCUUCCUACGGGUAUAUUCGGCCCAAGCAUGCGGAGCACCCGGGUUCAGAUGGCCGGCUGGUAUCUAUCUAGUGCGUGACUAAUAU'
p492
aS'UCAUUUUAGACAGUACUACAGAGAAACCCGGAUGGGGGCGCCAGGCCUAGCUGGGUUAUGGCUGUGUGUCAAUCAACUUCACGUCAAUCUAGGCCGUCAC'
p493
aS'AGACCUAAACCAUGACCCCACUCAUAGGCCGGUGAUGUGUUUUUAGUUGAAAUCUGAGCUCUCCAGCAUCCCAGGGGUAAAUUGAUCCUAAAAUGGAUCU'
p494
aS'UUUAUAACGCCCUAGGUGGUCUGGAGCCUCUGAGCCGGUGCGCCUGGCACAAAAGGCCAUGUGUCCCGACGAGAUUGAUGCCGGCACUGGUUACCCACCG'
p495
aS'ACAUCGCUAGUUUAUAGGGUGGACAGAACGAGCGCACGGAACUAUAUUUUGCUUCAAUGUGAGUAGUCCCAUGUAUUUCGGGUAGAGCGUCCCAACUACC'
p496
aS'CACUUAGUAGGUCACAAAGCGAUUUUGAUACCCUCACCCGUUGGUGCGGCCCACAUUCAUAACGGUUUGCAUCCCUUGGCGUACGGCGGCAGUAAAAUAU'
p497
aS'UCGCUGAAAAUGCAGUUCAGCACUAUAUGACUUAGUUAGCCUAGACUGGCUCACCGCCGGGCCGUAAUCUAAUGAGGCAUCGAGCUAUCCAAUCCUCGUU'
p498
aS'UUCCUCAAGAAUCUACAUACCCGUUUUCAAUUGCUCCGCGAAUCCCUAUGCUUGAACGUUGCGGCUAUUUGGCGGGCAUGAAACCUGAAAAAGGUGUUCA'
p499
aS'CUAAAGGGGAGCGCGCCCUCGAGUGCACCUGGGUUGGAAUACUGAGCCCACGGUAUGAGGUAGAUAGUAGAAUAUAGCGAGUUGCUCUUCGGUGUCACUC'
p500
aS'CCGGUCUGUGUGAGGGACGACAGAUGCGCCUUGGACUUCCACUCCCAAUGCGUCCGCGAGAAGAUCGCAAUAUGAGUUGAGGUCUAAUCUUACCUCCCGG'
p501
aS'UUCCCAGAGUAGGAUUGCCAACUUUUGAAUCGGACAUUAUCUUCGGCGAUGUAAUAUGACGAUCGUCUCAUAAGCAACCCCACUAUUACUGAUACACAUU'
p502
aS'UCCACCUCUAAGCAUGAGUUUCCGCAACUUCAACUUAAGAAUCUUAGAAACUCAAUGCGUCGAUAAUAACACACAAAUGUAGCGUCAAACUCGGACUGUC'
p503
aS'AGUUUUCUCAACUUGUUCCGCUAAUCGUGGUUUUUGAAGUUUCGAGCGGUUCAACAUAUCACUCUGCAAGGCUCGGUUCUUACGUCUAACACCGGCUACC'
p504
aS'UCGCGAUACGGUCGACUAUAAGGAUUUCACACAAUCACGCCAGGGGCAGAUUCUGCCAUUUCAGGACCAGCUCAUUCUAUAACCGUUGCACAUCUAUUGU'
p505
aS'CUUAAACCUAGCGUUUAGAACCACUUACAGGAAUUCGAACUCGGACUUAAAUAAUCAUUUACCGCAUGGUAGUUACAUGUUACUGCAGAGGGAACGCAGG'
p506
aS'UUCAUAACCAACUAUACCUCCCACUUAGUGAUGGCGGGGUGUUAAGUCUAUGUACGCUACCAGCUGUACGACUGAGCAGCAAUAAUUCCUCAGGGCUGUG'
p507
aS'GCGUAGACAGCACAUCCCGGAGCUGGGUCUCUCAAUCUAGCGAACGCACUCAUUCAAGAAAUUCCCUGCACUAUAGCUGCAGUAUGGACACGUCGAACUG'
p508
aS'CCCAGCUGGCUCCCACAUGGUUACACGUAGCCUCUCGUUAGCAUUCCGAUGCUGAUCGCACAGGUGGAAGCACCUUGAUGAAUCCGUGACCCCCAGCGGG'
p509
aS'AGUGUGUAUUUCGGCAACGACUGUGUAAUAAGUUCUAAGUAUAACCGAUCAAAAGGGACGCCUAAACGCGGUAAACCUAGUCCAUUAGUCGAGAUGGCCU'
p510
aS'UAACCAUAUUUGGGUUAGGGUUGUCCGAUAAAGCGAAGGCCGAGGCUAUCAACUAUAUUUAGAUGGAUGCAUAGAUUAUUACACCAUUAUACCGUUUCGA'
p511
aS'CCUGUACGAGGCAUUGACUAUAGCGAUCUCAGAAUCUCCCACCUACCAUAUACUGCGGACCGUCACCAGUUCUAUUGCGUGAGGGCGGAUUCUGCACCGC'
p512
aS'CAGGUCCACGGCGCUGUGCGCGGUAUCAUCCGCGUAAUUCAGUUAGUUGCUGGUUACACACGGUCCAAGAGACUCGCUGGACGAUUCAGUUUUCGGGAUC'
p513
aS'CUGAUGUGACCCAACGCCAGCGUAGUUUUUAAGACCCUGGUGCAGGCAGUACCAAUAAGAUACAUAUCUGCGCUUUUUAUCUUGAAAGGGCAUCCGCUGA'
p514
aS'UUCGCGUAUUCCAUCGGAGGUGACUGGACUCUGUGCUUCCAAUAAAAGAUUUUUAUUCGUCGUUCGCGAAAUCCCGUACGAGACUCCGUAGUACUGGCCC'
p515
aS'GUACACCUAAGGGCCCCGGAGCUUAGUCACUUGCAUGAAGGUAAGUGUCGUCAACAGGUGAUGAAUACCCGUGGGAGUGGACGCGGACUCUUGGAAAGUG'
p516
aS'GCUACAUCGGAACACCUAGGAAAGGGGUCGCGCGGUCUUCUUUCUAGUUUGAAAGAACAAAUUGCUGGGAAUUCGCUGUAUGCUGAAUACCGGUUGGUUG'
p517
aS'AGGGCUGCGAGAAACGCAGAUAAGAUGCGUCUAAUGGUUUCAUGGUAGGUAUCAAAAUUCGUAUGAGUACAUUCCGGGUCUUAGUAGAAAGCCUGUGACC'
p518
aS'CCAAAGGUCCUAUACGAGUUCGCUGGCAGAAACUUGUGAGUUGGCUCACCUACCUAUGACAUGGUGGUACGCACGUUCUGAGUUCGUCUUACUGAUGUAC'
p519
aS'CCGAAUAGUCAAUAUGAGGUGGUUGCCAGAUCCAUUGUCCCCGGCGCAUGGUCCUGCGUUUAAUGGCGUGAAAAUGUCAGACGCUGCUCGCUACAUCAUU'
p520
aS'CGAAACUUAGGAUAUUGCGACACUCGUAGUAACAUCCGUCCAACGCCUGGGCUCGAAAUUCCUUUAAAAUUAGGAGCACGCUGUCGUAGGCAUGGAGUUA'
p521
aS'UAAAUGUGAUACAGCGCUCGUCGUCGUCCCCUAGAUUGGUGAUGCUAUCGCAUAUACGUAUUUUACAUCGGCCUCCGUUUAAGUCUUAGAAUUAUCCCUA'
p522
aS'AUGUGGCUCCGUCUGAUUACUGCGUCCGUAUCCGAAUGGUCGAUGCUCGAGAUCCAGGUUUCCGAGUCCCUUCUGGACGCGCGUACAAGAGUCAGUCAAC'
p523
aS'ACCACCUAAUUGAGCCUCUUCGAGGUGGUCCAUAGGUAAACAGCUCUUGCCUGUUCCCAGCCGUCACUCACCCCUUCUUCAUUGGUCUCUCUCCCUUUCA'
p524
aS'UCGAGGCUCACUCUUUAUUGCUCAACGUCAAGAUAACCAAGUGAAGAUUAGUUGGUAACGGGAGUCAAAUAAGGUUGGAACGACGCAUUACGUAGUGUCC'
p525
aS'CCCCCAGCGACAAUAGAGGCCCCCCGGAUUCAUCUCAAAACGUUACUCUGUGUGUCACUCUUCAUUAAAACGCCAGUCGGCGAACCUUUACACAUUAGGU'
p526
aS'AAAUCUUGAAUGAUGUUACGUCGCUCUCCGGAAUGAUCCCAGAAGCUCAAGCAAACCUCGAAGGUGAUCGCGUGAGGGAGCGUGACUUCGCCGAAGUAGA'
p527
aS'CCCCAUGACAGAGAAACAUUGCCUGAGGAAUGGUCGGGCUAUCGACCUGAAUUGGGGCCCCCGCUCUCCGCGGUAUGAGUCGUUUCACUUGCAACACCCG'
p528
aS'AAAAUCAGGGAUAAUACGAACCAUGACACCACCGGUCUAAGGCGGCCUGUGACGGAUCAGGCGAUUGAUUUGCGCUAGUCACUCUUAGACCAGGCCGUUG'
p529
aS'UUUUACCGACGAUCAAUUUACACAAUCUCAGCUGACCUUUAAUUACACCCUUUUAUUUGUGAAAGAUAAAGUUGCAAAAGGAAUGUAUGCACUGAGCACU'
p530
aS'AAGUUGCGCUUGAAAUAGUACUAAAACUGCCCCCUAAGUUUGGAGCGUAAAGCAAGGGAAGGGGCUGAUAUUUUCAAUCUUAACUCGCACUUCUCUACUA'
p531
aS'CGCCGGUUUCAUACCCUUAGGAGAGCAGACAUCGGUACAAUAGGCACCCACAAUCGCGGUGUGCUUCCGGCGUUGAGCAAGUACAAUAUCCAUCAACAUA'
p532
aS'UCGUCGACUUCGCUUGGACAUUGCUCUCACGGCAUGGCGGGGCGGGAUUGUGGAAUUUUUGUUUUCUUAGGCCGAGCAGUAUGCGAUCCUUGGCGCCCAC'
p533
aS'UACCCACGCGCUUGACCUGAUGUUAAACAAACUUGAUGACCAUUAUAUGAAGCAGCGUAAAGCCUUGUAAGAGAUCUAGAUUCUACUGACUAACAGUCGU'
p534
aS'AUGAUCUUUUCCCGGUAUGAGCUUAAAAUUUCCGAGUAAUGCAUACCGCACCAAUAAUCCAACCCCUUCCUCAGAUGGACUAUCAGAGGCUUGGAAUUUU'
p535
aS'CUUGUGACGGACCCACGGUUAAGCACCCGCGUUGUGGACGUGCAAUCGGGAACCACGUCGGUUUCGCACGCCAGAUUUAGAAACAUGGAGUACCCGCAGG'
p536
aS'UCCAUAUAUCCAGCCCGCUUCACUUUUACCAGUGCGGCCGGAUGGUAUACUAGUGUGGAGUACAAUAUAACUUUAGUGAUUGCCCCUAGCAGUUACUGAA'
p537
aS'GUGGAGAGGAUCUACCCAAGAGAAGUCCCUUAAGCGCAGGAUCACCGUUAUUGUGCCGUGACAAGCAACCAUAUUGGAUCGCUUUUUCAUGUGUCGGCGC'
p538
aS'AAUGAGGGCCCCGGUGCUGAACCAACACCAAUAAUCUAUCAGAAUCCGGCACAUUCCACAGAGAUGCGUGGAACACAACACAUCCGGCGGGGUCUCACUG'
p539
aS'GCCGUAUUCCUAUUUUGACUGCUCUUCAGACCCUUUUUUGUACACCCGCUCAGCUUCCACCACGCCCCGACGCGUGAGUUACUAUAAGCUCUCAGUGUAC'
p540
aS'CAGAAGUCGUGGAUACUAAGCAGCGCGACUACGUGGGGUUGGAGCAAGGGAUGCGUCGACAGUGCUCCUCGGGUGUUGAAUUUGGUUAUACCUAUAUCCU'
p541
aS'GGUGCGCAAUAAGGAUGGGACUUGCAUUGUUUCCUGCCACUCACCACUCACAAUUGCUAAUUUCGGUGGUAUCCGGGUGACGUCAAGUCAUCCGAUAAGG'
p542
aS'CGGUCCCUCGGCGUGACCUCCCACGGAGACGAUAUCCAAGAAAGCUAGUUGGGUAACUGCGCUCCACUGGGGCCGGGUCGGGAUAACCACUAGCAGUCCC'
p543
aS'UUGCUAUUUAUAGCUCUUGGACAUGGUACCCGUGAGUUGGUCGCGAUCCGAGAACAUGAAGAAGUUAGUGCGGACACGGGUCAAAGGGAAUGAUAAGAGU'
p544
aS'UGAGCCUGCUUGGCGAUCAAACAUUUUCCAUUGAGUGUCCCUUGCACGUCACAUAGCAUGUUCCAGGUUCGUACGACCCGAUUCUCCGAGACACGGUACA'
p545
aS'CCCUUGGGGCUGAGUCCGUCGAUCGAAGAACCGUUUAGGCUGACUACUAGGACUGACGUAGGAACGAGAAUGCGACCUUGGAAGUCACCCCUAGGAAACU'
p546
aS'AACUCACAGGAUCCCGAGAGUCAUCAUAACUCAUUAGCGGCCCGUUUAACGUCAUCGAAGUAAGUGUUGGGGGUGGGCUUCCAGGCAUUCCAAAGGGGUG'
p547
aS'UAAUUCGUGAAGUUGGAUUUUGAUAGAUGCGACCUAGCAUCUUUUAGAGAAACCUGAUUAUCCGGAAAACCACAGACUGUUUUGCGAUGUGGCUGGGCGA'
p548
aS'GCGCCCUCCUAACCACGUACAGACCAGGUUACCCCGACCUUCCCUCAACCAUCAUCCGUCAGGACUUGCGCCUUUGUUAAAACUACAGUGGGGACGAUGG'
p549
aS'CGCAGCGAACUUUUACCAACAAUUCAUCAAACGACUAUCCCAGAUGGUGUUUACCAAGGAUAGUAAUUCAACGACUGUGCCGGGUACGGCACGACUGUGG'
p550
aS'AUGAGCAACGAUUCACCCAACAUCGUAGUCAUCGUUCAAUCGUAGCCGAUCUCCGAUCUUAGUAAUCGACCACUGCUAUUACAAGAGGGUAUACCAAUGU'
p551
aS'ACUGUCAAUACCAGAUACCGCUUCAAUAAUCGCAGUGCUCUAUAUACUUAGGACGUGGACAUUGGGUAACAGCCGGGAGUGCACGAUCUCCUGUGACAUG'
p552
aS'GGUAGAGAUGCUAAUCAGGGUCUCGUAGGGACGUGUCGGACACCUUACACUAUCCCUGCGCGUAGCUUACGGAGAGCAGGAAGGUUGUCCCUUUUUAGUU'
p553
aS'CUAACAGGCCCCGCGCCUGCUGUCACCCAUGGACCGACCGACGGAUUGAGGUUGAGUGACACUAUGGCAGGCACACCUAACGUCCCAUAAGGCGGGCCAA'
p554
aS'CGCGUAUAAGCACUCGUAAAAUCUUUUAAACAAUCGGAUCUCCAAUCACCUGUCCAACGUGCGCCCGCAUUUGGCGAGGUCUGGCUUACUAAUCCGGAAC'
p555
aS'UCACUAUGCUAGCGCAUAUGCAUUGAUCUCAGCCACCCUAAACCCGCUAGAGCCCUCCAAGUCGCGAUUAGAAGUAUGGGAAUUUCCCAAGAUGAGUGGU'
p556
aS'GCACGGUGCCUCUAAGUCGACUUCCUAUCGACUCUCGCCAAGGAAAAAACGUUAGAGAGGACGAAGGCAGAGGCGUCGCCGUCUACGCCAACAUAUUUCA'
p557
aS'ACUACCAAGCCAAUGAUUAGCUGGCGCAUUUUCUGGGAACCAUACACAGACACCCUCACAUUCACUGCUGCGCCCGUGGUCGUUACACUAUCAACAGGGG'
p558
aS'GGGGAUACGCGGUUAUAGAGAUUGCUAGAUGUCCAGGCAGACAAUACCUCACUUUCCAGCAUCCUUAGUUUCGGUUUGGCCGAUGCCUUAGAUUGAAAAU'
p559
aS'CUGAAGGAGUUACCACGGCCAACAGUGGAGCGUCGGGUUCCUGGGGAUGGUUCUAGGUACCACUAUAGACGUGAUAUACACAUUAAGGUUGCCAAAGAGC'
p560
aS'GGAGAAGACUAAACACGACGAUCCUGAACUCAUAAGGGCCAGCGCGAACAUGGGGCAACUCCUUUACAAGAGCCGAAUAUGCGCUCCCACGGUCAGCGAU'
p561
aS'GCACACAGGUGCGGAUGUUGUCUCGCUGCUGAACUUAGGGGGAAGUAACAGCCCGCGUUAGGCCAGCCGGAACUUGUAAACUAUGCCAUUCCAUGCGAAA'
p562
aS'CAUUCAGUGGGAAAUCGUAGGACCGCUAUCUACAUGCCCCUUACCAUAGUCGCGUUUUCCAAGCCUCAACUCCUCUGGAGUACUAAUGCACACGUGGAUU'
p563
aS'CCGAAUGAAAACAUUAUCAGCGAUAUGCGCGACAGUUGUCUGUGUAGGGUCUGUGUGCCUGAACAACGGUACUAUGCGGUGUUUCGGUCAGGUCCGACUC'
p564
aS'CGCGAACAGCUUUAAUUGGGUUCGACCACAGAACUUGACGGAGCCUAUUUAGUUUGUCCCCCGUACGUAGGGAGAUCGUUGGACCAAUAGGAGAAGCCUA'
p565
aS'AAGUCUAAUUUCUACGGCUCACGCAAAUUUUGAGGCAUCGCAUGUCGGUGCGGUGCUCAAUGGGUUCGGUUGAUGAACAAGAUGUAGCAGAUCGAAAAUU'
p566
aS'UUGCUACUAUUGGCAACAAUGGGGUACGUUCUCUCUUUGUACACAUAGCCCCAUUCGAAUUGGUGGGCCCAAUGGAUACGGCAAAGGAGCGUUCGGCUUU'
p567
aS'CUGUGUCCUCUCUUUUACCUUGCUUUGGCGCCCACUGAAUCACCGCACCUGCGGUCUCAUCACCGCGCGCCCCACCUGCCAGCACGUAGGCGAUUAGCAU'
p568
aS'UAUAGGCAGCGCGGUGCGACCAUUAAACCAUACUCCGAGCGGCUACAAAAAAUUUAGCGUACAGCAUGAGAUACAGGCAUCGUAGCGCACUUGACACACG'
p569
aS'GAUACGGGUGUGCUAACUGAAAGUCUGCCGGCAUCUACUUAAAUUACUAACUAGGGGAGCAGGAUCAAGCCACUAGAUAAUUCCAGCUAACCACAAAUGA'
p570
aS'UAUGCCGGACCACCCCGAGGGGUUAUUAUUGCGCUUGACCGUCUAGUUUAUUGUGCACCCUAUACAGAUCUAUAGACGUCAAUUUUCGGAAGGGUUUUAG'
p571
aS'UGGAGCCCAACUGCAUGCACGUUCGGCGAGCUCUGUCACUAGGUGAAAGAGCAAUCUUCACAGCGCAAUUCUGUAGUGGCUCGUUCUCGGAGCAUCAUGA'
p572
aS'UGCGGGUACGUCUAUAACGUUCCUUGCUAUUCGAAAAUGGACAGCGGGCCGUCUAAAGGUCUCGCGAUGGCGGACUCAGCUUUACUCCAACCUGCUGCGG'
p573
aS'GAUCACUAGCGAAAGCCUUCUUAAGUAGAUUCGUUGAAUUAGUACUUCCGCUCCGGCGGUGCUCUGAACGCCGUUUGGUCAUCUACUGGUUGCUUAGGAA'
p574
aS'UGCCGGAAUCAGCGUGCACUGUGGACCGAUAUGAUAUUACACGACUGAUUGUCAGUACGCAGCGCUCGUCUCGUAGCCGCCUUGCGGAGCGAUAGUACAU'
p575
aS'UACGAAGGCCACGAAAGGGGCCCGCCUUACAUUCACAUGAGCACUGAUACCAUAUUUACGUCCCUAUGUACUAGGUGCGUCGGCUCUUAUAUUUAUGACG'
p576
aS'ACAUCUGAGCCGCUUCAUUGCAGACACCUCUUAACACUUAGUCGGAAAAGGGGCUAGAAGCUCUGACUGUAGCAGAAUGGUCCACCGUAGAGUUCGAUGA'
p577
aS'AUAAAAGUCGACGAGUGAUUAGCGCUGUCAACUUAGCUCGUUAAUCACUUGAUUAUUGCGGAGCCCAGAUACCCCUUCGACAUGGCAGUCGAUGGUGUUC'
p578
aS'ACAACAGGGCCCCUGCGGAGAUCGCCACCAUAGGCAAUUGAAUACUCGACCGGAGUCACACACAAAGUGCAUCCGCCAGUGCCUCUUUGAAAUGUGUAAC'
p579
aS'CGUGUCCAAUAUUUGUGAGCAGGCAGGUUUGAGAGGCUUUCGUGCACCACUAGGCCUCUUUGAUUAUUCCAUUAAGAAUUUAGGAGAAGAAAAGUGGUUG'
p580
aS'CACGUCCGAUAUUUGUUUAUUGAUUCCACGGACGGAGGCUAUUAUUAAGCCUUUCCCUAGGAUUCGAUAGGUGCAAAGAGCUCCGCAGCCCGAGGGACGA'
p581
aS'GAAUAAUCUUUCCUACCAAUGGCGGGCGCAAACCUCUGUCCGCCCCAGUUAGGGCGUACAGCGAAUGUCCAUAUGGGUCAAAACAUUCAGGAUGUACUCA'
p582
aS'UGGCGUCGUCGAAUUCAGCGGAGGCUUGGUUAGUACCCCUCUUCCACUCGGAGAUAUGCCAGAUGACUCGUGGUUGGGUCUGGGGGACAAGUUAUGAUCC'
p583
aS'CAGGUGCGAUUCGGGUAAUGAGUUAAGUGCUUGGUCACACACUCGGUGCAGCGCAGAUUUAUCCUUGCUGUAUAGUACUUAUUACUAGAUUUUUUCAAGC'
p584
aS'GUGCGCUCGUCAGUUAAGAGGCUGCGCCCGCAUCUGAAAACUUCGCCGCUAGGUUCUACAGGUACAUAUUGGCACCGAGAUAGCGGGGUCCCCCACUCGU'
p585
aS'CUCUCUUAAACGGGCGAACACCGAGAAUGACAAUCGUUGAUGAAUUGUGACCAAGAGCAUUCGAUCCUUAUCCUUGGGGGUUGUAAACUCUAGCAUAUCG'
p586
aS'CUGCAUGUCUCUGAAGGUCAUCCCAGACGGCUUGCGUUAAUACUCGAUUACAAACAUCGCCUCCGAAACAUCUUCUGAAUUUAUCAUAGCACGGUGUCCU'
p587
aS'GCCUAUUUCAUUUAAACCCAGGGCGAUGCUAUGUGUCCCUGAAAACAAAAAUGAAGAAAAAAGACAAGUCUUGGCCAAGCGGACACUAGCACUUGGGGCC'
p588
aS'GGACAAUUCCAAGCAUUCACUAAUUAUUCGCCAGCCCGAAUUCAUAGGUGACUUCAUUACUAACCCCGUUCUAAGGAUUAUGCUCGAGGCGGCCACCAUG'
p589
aS'CAUAUGACUUUUAAGGGUCAGUGACUACAUAUCGCCCCAGACAGGACGAAUUUAAGUUGGCGCUCUGCGCGAGAGACUGUGACUGGCGAAGCUGCACAAG'
p590
aS'AUAGUUAGCUUGUCUGUAAUUCCGCUUGGUUAGGUCCUGGCAUAGUCAGAACACGCAAUAACCAUCUCGUUAAUCGCGAUGCGAACAAUCCAAUCCCUAC'
p591
aS'CUCGCUAAUAGCCUGUAUGUUAAGCGAACUGGUUAGAGGGAGAUUUCAUGGGAAGGCCCUCCUGUUCAACUGGAUAUCAAUCUGAUCAGUUUCCGUUUUA'
p592
aS'CCUACAAUUUGCUACUUGAUCCCGCCGAUACCAUGCGUCUACAUGUCGGACAACGCCCACUUCGACACAGCGUUUGGUCUAAAGAUCUGUAGGGGCCCAC'
p593
aS'CACUAUUUGUCACAACUAUCAGGCAUUCGAGUUGUGGAUACUGUUCCAUGGAGCCUCAUCCCAUUGUGGUAACCCCAGGUCACUAUAUGGGGAUACACGU'
p594
aS'UACAUUGCCCUUGCAUCAGCCAGAAACCGGUCACUGUCCUAAUAUUACGUUAGAUUCGAACCUUCCUCGCUUCCUAAUACGUCGUCGUACAACAUUAUUA'
p595
aS'UCGCAGCUUCCUGUACUCGCGACGGAACUCGCGUUCCGGGAUACCGGUUUGGAGCAGAUACGGUGCUACCUCCUGUAGCGUGGUGUCGAGAGUUUAGGCU'
p596
aS'GCUGGAGUUCAGGUCAAACAGGGGAAGUAGAUUACCUACUCUGAUCGACUGCCGUCGAGUUCAUAAUGCUAUAGCUUGUGUUUCGCCGCGUGCGAAAUUG'
p597
aS'CACUAGGGGGGGACCCCCAGGCGCGUAUACGUCAUUACUGUAGGUUAACGACAGUGGCCGGUGCGGCAUGUACCCCGGGGCAUUACGCGGCAGUGAAGCC'
p598
aS'GUGAGCGCGGUUGCGACUCUCCAUGAAGUUCGGGGGAUCGCGCGCUUAGGAACUCCACUUGGCAAGUUUAAACGAAGCCGGGGGCAGCUGAUGGGAGUGU'
p599
aS'UAUUCGCGCGUUACGAUUCGUCGACUAAAGAACUUUAUCCUGGUACAUUAUCGCUGACCCAGAAAGGUGGUAAGUUGACGCUCACUAUCCCGUCUCGGGU'
p600
aS'UUAUUCACCCUGAUUCCUUACGCGUGCCGUCCCCCACUUCGGCAACAAUACGACUUCUUUCGUCCAUAUCGUUGCAUAGCGGGAUCUGCAGAACUAACUA'
p601
aS'GGACGCGAUGGUGACGUGUUCGGGCCAUAGCCCUUACCUUACCUUAAGAGCCAUCUAUAAACUCAGAAUCGUCAGGAGUAGCAUUGUCAACACCAAUGUA'
p602
aS'AAUCUAAAAUGCAAAUCACUUGAUCCCAAUCCACUGAAACCGGUCGGAUGCACAGAUGCCGAAAGCGCGGCCUUCGCCAAUAAUAGGGAUGUGCCGCGCA'
p603
aS'AGCUCCGGGGUCCAAGCGUAGGUUCCGGUUUACAUUGGUAUUAUGAUCAUGGAACCUGGAGAACGGCAAUUACGUUACAUGGCCGUCAAGUCAAGAUUCA'
p604
aS'UUACUGGGGACCAAUGAACGACGUCCGUCUCGAAGCCUUUACCGAGGCAGUAUCGGCGGUAGACUCGUAUACGGUCCUGCUCCUCGAAAUCUCCUGCAGU'
p605
aS'CAUGCUUGGACCUCAUGGAAUCAAGCGCGGUGAUCCCACACAAGUGUCAAUGUGAGCGAUAAACACUCACCGUGGCAGGCCAUAGCACUUUGACCCGGGU'
p606
aS'AAGCCUUAUUGGUCGCGUGCGGCAAACGGACAGAGUGUAGAUCCCUCUGGCUUUAUCGGGCGUUCUGAUGACACACGAUUGCUGAGCCCGGACCGGUUAU'
p607
aS'CUAAAGGCGGACGGCGUAACCGCGCGAGUCGUUUUAAAAGAUUGGGGGAGCCCCUUCUGGUAGCGGUAGGGGGGGUAACCGCAUCUUUGCGGAGUAGAAA'
p608
aS'GCAACAUCCGCACGGGUGUAGUUAUCAUCUGCCUUGUGGUCAAGGUGCUAGACUACCCAUGGUAGAGGCUCCCUUGCUCUCUACCUAAUGGAACGUAGGG'
p609
aS'AUGAUGUGUUGUAAAGGUAUCCACGCUCAUUCUCAAGAACUCGAGCAAAGCACACACUGCGCUUAGUUAGGAUGUGGGGCGUCUGAUCGUCACCUGCCGC'
p610
aS'UGGCCUGAGUUUGAAGACAUCAAAAUUAUCGAGGGGAACCAAACGAACCCCGACGCUCGUUGUAGUACAGACGAAAUAGUACCAAUAGAUCUCUUCCUGG'
p611
aS'AACUAUCGUCGUGACUACAUCUCUGAGGUUGGAUGUUGACUGCUGAGGAACCAAGCCGUGCUGCGCGGGCCUUAAAUUGAAUAAUGGAUAACCCGCCCAC'
p612
aS'CCAGUUCUUAUAGUUUGGGUGUGACACUGCUACAUCCCCGGAGGCGCGGAUGCACGCCAAAAGGAAACCCCGGUCUUUGGUGUAAUACAUCCGCUGAAGG'
p613
aS'GUGCCUUGGAGCCACCUGAACACGUCCCGACUAAGGUAAUCUUGUCCAAACCUCAACCCCGCCCAUACGUCAUGGUGAUAGGGGACCCAAUAGCCCAUAA'
p614
aS'CCCUUAUAGGUACAGUUGGGUCCUCACGAUUUUCCUCGUCGUGCAUCCUAAUGUAAAAAGACCUAGUACACCCUGUGCUUGGUAGGGGAGGUAUGGUCCC'
p615
aS'CUGUGACGGUCUUCAUCAGGGUGCGCUCGGUCCCUAAAACGGUGCUAGUAUGUCGACAGUGUAAGUGAGCUGGUAUGACUCACUGGGGCACUCACCUUGA'
p616
aS'AUCUAUGUAGGGCCGGUUAACGUGAAGGAGCAGUUACCUGCGAAAAGCUGCGCGGGUGCCCCGACGGGCCCUUGAGAAACCAGUCCUCAUACAGGGGUAU'
p617
aS'UCGUGGGCCUAUUGCUCCGACACGACAGCCGCCGGGUACCGAAUACUCGAAAACGGUCCACUCUUAAGCACCAUUCGAGCGGAUCGCUAGUGGACAGCUU'
p618
aS'AGGACUACCGAGGACCAAUGACAUUCUUGCAGAGAUGCCUUUCGUCAAUUUGUACACGGUAGAAAUUGUCGGAAUAUAUCCGGCUCGCGUCUAGUACGUC'
p619
aS'UAGUCUGAAAAACCGGAUAGUUCCGUCAGACCCAACAACUGUGAGAGUCGACACCUAUGUAGAUCGCUCUCCGGGUAGCCUACUAACGAGGUAAAGGCUA'
p620
aS'GUGAGAAGUAGCUCAUAGAUUACCCGUAGGUUGUAGUUUGUCAAAGUAAGAAUGCGGUGGAAGCGACGCGCACCGUGUGAGGCUAGGACGCAGGUUCAGA'
p621
aS'UCGCACAUCAUUGGCGCGGGAACAUCGGCACUGGCGCCACUAAUUUUCUGCUCAUGCAGCGCGACGGCGCCAAGGCGUCGAGAGGUGCGACACUAUUUUU'
p622
aS'UAGUGCAAGUACAGCGAUAAAGCCCGCUAGUAUUAGAUGUAGCAGUGCUGGAGUCUAUCGGGUACGUGCCAUUUUUACCGAUCAGCGGUUGGCAGACGCA'
p623
aS'UGUGGUAUACGGUCAAUUUUCUGUGGUACGCGCUGACCCGGGUACUAGUUAAGUUAACCAUGCGACGGCAAGGCGAGGGUAGCACUGCCCCGAUCUAGGA'
p624
aS'CAUUCUGUGGCACUGCAAUUGUCCUAUCGCCACUACAUCGACACUUCAGUGGCGUGUAACGGGACUCACUCUACGUAUCAAACUGCGUCUACGGUCUGAU'
p625
aS'AAAUGCACAUUGUCGGCAGGCAUAGGCGGGACCCACAAUAGCCGGAAUACGAUAGACAUUAGGAGGGGCUUAUAACCUAUGAUGACCUCGUGACGUGGGA'
p626
aS'GAACAUAAUUAUCCAGAUCUCUUCUCAGCCCUCCCUGGUGUUUGCACGAUGAGGCGUCCAGAGUCACAAACCCCUGGGCCGUUGGUUAGUACGUACAAUA'
p627
aS'CGCCGUCUAUAGUUCUGAUGGCUCAACGGCAAAACCGUCUUAACAGCCACUUUCAGCGGCGUGAGCGGGCCUCAGAAGGAAGGGCCUUCAAGACCGAACC'
p628
aS'GGACGUGCGUGUCACGAAGAGAUUCCUACUUAUUCGGGUCCCGGCCUGCCAGCAGGCUCUAGACAACCCCUAGCUGAGCAGCGCGGCAAUUCAGAUCAGG'
p629
aS'GACUUGCAUAUCAGAGCCAUGAAGACAAUACGAAGUCUUCGGCGAGCCGUUGCCGCCCACUGUCAGAAAGGAGUGCCAAAGAUCACACACGUUAGCAGAU'
p630
aS'AAAAACGAGCCAAUCCAUGAGCUAGGAUGGUAACUUAGACAUAUCCUAAUGGAACGGGAAACAAUAAAGUGCCUACUGAGGUCAUCGCACCCACGGUAGA'
p631
aS'GCAAAAUGAAGGCAACUUAGGGCGGGUUUCGGAGUAAAAACCACCCAGCCGACGUAUUAGGUUCUCUAGUCGUCGCAAAUUCUUCAUCGGUUGGAUUCAA'
p632
aS'AUCUGAGGAAACUUAACAGACCGGGAGUAGUGCCCGUUUGUCUAUAACUUGCCAUUUCACCGCAGGAACAUCACCAUUAGUGUUCAAUAUCACAAUGUUG'
p633
aS'ACAACCGGUUACUCAUUUUUGCUGCACAAGUAUCGCCUACCUUAACCCUAAGGCCGCAUGAGGCUUCCUCUAAUGAAUAGUAGCCAGCAAACUGUUCGUG'
p634
aS'CAGUAAGCCAUGUGCUGAUUGGCAAGGCCCAGACCGCACCGGCCCAUCCGUUUUGCUUAAGGGCAUUCUAGUCGCUCUCCACUAACAAGGGCAGGAACUU'
p635
aS'AGUCAUCGGUUAAGCGAAGUAGCAUGUCAGUAUGAGGCGUCGCGACCAUUAAUGAUAUAAUACGUUUGUAGUUGCUUUCUGAGUCGUCCGAAUAAAUUCG'
p636
aS'GGUGUUACCCUACUAUCAGCCAGUCUGCGCCCCCGUUAAUAUCCACUUCUUUUGCUAGAUGUCCGUCCGUUCACAACUCUGGAUAAAGCUCGGAAAUAUA'
p637
aS'GUCGACUACGGAGCUAGGUCUUUUCGAAUAACCAGAUGGAUCGGUCCAAAGCCUGGCGCUGGAUAGGACCUUCACCAUCGUUCGGGUGCUCACAUUCUGU'
p638
aS'UUUAGCACAGGUGCAAUCUAGGCACUUGGAGCAAAGCUUGUGUCUUCCGGAAGCCGAGACCUUGGGUGCAUAACACUUGGUCUAGAGAAUUAUCCUGGUU'
p639
aS'GAAUAAUUUUGGUAACUACAAGCCACUCCGGUGUCCUUAAUAAAGGGUUUCUGGCGUACCUAGAAUAUCCUGUUCACCACAUUUGCAUGGCUACUUAAAG'
p640
aS'ACUCCAAGACCAACGAUGGGAUAUCCCGUCAAGGUGGUUUAAAUCAGCAUCUUGCCGAUAUCUGGGUACUCCGGUCGCGAGCUAUGCCACUAUCGUAUUU'
p641
aS'CUAAUGCGGGAGGGAAGAGCGAUCAUCUACGUAGGUCAUCCUCUUCUCCCGCACAGUACUCAUUAUUUAAACUAUAUCUAGGCAUCAAUGGUGCGACACU'
p642
aS'CCAGAAGGUAACCUUAGUCUAUUGCCCAGAAAGCCCGUUAAUUGACUCGACCAACAACACGCGGCUGCAUUGCUUUACGAGUACCAGAGCUCGGGGCGGU'
p643
aS'GACAGACUGUCUAGUUACUGCUAUCAUACGACCUAGUCUCCACAAGAGUCUAGAAGUUACCGCACGUCGGAGGGUGAGCUCAUGCGCCGUUUGCCGGUGG'
p644
aS'GUGAUUUUGAUCUAAGUGUGCGAUGGGGUCCCCCUCCGUAACAUUUAUAGACAAAGUCCGUUCGCUGUAUAGUCUAAGCACGCAAUGUCCUCCGGACACC'
p645
aS'ACACACUCGCGUACGCCACUAAAAUUACUAUCCUUCUGGCUGAGUUCGUUACGGGGAUGAAGCGUUUGAACCUACCCGAUGUAGGGACCGGGAUGCACCG'
p646
aS'GGUGGGCUUCUUACAGAAAAGUAUACAUUCCGCCUUUCUCAGCUGGUCUAUAAGUUCAUUACUUACCAGUCACGCAGUCGGCCAACCUUUCAUCUAUUAU'
p647
aS'CGCGGGCAUUUCACGUUACCCUCAUUUACAUAAUGCAAAUAUGGGCCUGGCUGUAAGCCUCCUCCACCUUCACUCACCUUUUUAUGUGGCGCCGCUGUGC'
p648
aS'GAGUUGCGUAUACCAGUUUCCGCACAGAGGGGCGGGCCCGGGGUAACUGCCGAUACUUCGUCUAGUUUGGGCCCGCGGCGAUGACAGGGGACACGGGACC'
p649
aS'AACGACUCGGACGGCGCAAGAUCUGCGGCUGUUAGCCCUCAUCGAGGCGCAUUAUAGCAGCAAUCGUAGAUCCGGAAGGCUCAGCGGCAGUAUGUGGGAA'
p650
aS'CCUACCCCUUAGCUUGCCGGCCGUGCGUGGUGCCGACUCUGUGUUGCUAGAUCCUGUCUAUCAGAGGAGACGCCCGAUCACUCUCCUGGGUACCUAAAUG'
p651
aS'GCAUAGCCUCCUUAGCGGCUUGCUUUAUUCUAUCCGGGCGGGCAUACAUUGGUGCUUGGAUGGAAGCAGAGACGGGCAGAUGGAGGACGUCGCAAACGCU'
p652
aS'UUCCUUUGAGCGUCCAGGCGGCCGGUAAUCUGAUGCUUUAAAGUCUACAUUCCGCCAUGUCUUCGCGUGAGAACGCCUUCCGGCAUACGACGAUUCUCCA'
p653
aS'GUUAAGUGUAAAGGACUGGAAUGACCGUGCUCCCUGAGGUUUUCGCUCCUGCUAUCCCACUUGAUUCAUAUGGCGAAUGAGCCUCAUACUGUCAACCCGG'
p654
aS'UAAGAUCAUUGGGAUACUGACAGUUAUAGCUUUUAAGAUGUCAGACUUUAGCCCAGUCGCCGCUAUUUCUACCGCCCGGUGCAGCGAAUUGCUGAGCAGA'
p655
aS'UUACCGGUCAGCUUACAGAUCGCUGCCACCCGAAGAGUUAUUAAUACGUUAUGUGAGGAAACUGUGCACCGGAGUACCCUCCCACUAUGAUGUGUGUGGA'
p656
aS'GAUUAUGGAAUAUGCGAAUGACCAGCGACCCUCGGCUCCGGGCCGACGUAUGUCCCUGCUAGCGUACACCCCCCUCUAUCUCCGCCCUAGCCGCAUCAGG'
p657
aS'ACACACUAAAAUUUCUCCGGUCCCGAUUAAGCUACUUUUAAAUCCGCUAUAUCUGCGUAUUUACGUGAAUCGGUAAUAGUUAGCAAAUUUCAUAUUACAU'
p658
aS'CUACUGACCACACACUGGCACGAUUCGGGUGGGUAUCUACUUAGUUGUGGUGGCCUAGAUCCUGGCUACCAGACGAGAUGAUUAUCAUACUGGUACGCCA'
p659
aS'UCCCGUUUUCGAAUAUAAAGGCUCCCGAGAACCUAACAACAACAGUGUGGAUUGUGGAACCUCUAAAAGAAGGAAUAUCUCUGUUCUUUUUCACCCUAGC'
p660
aS'AGUCGAGGAAGAUUGAUCGGAAUACCUGCUUCGCACCCACUUGCCUACUACCACUUUGUUGACACCUUCCCGUUGAUGACGUAGAUUGCUCCCCCAGAUG'
p661
aS'GUUCGACGAUGGAUUUUCACCGAACGCACGAUAGAAACUUGAGUGUUAACUCCGCGCUUCAAAUUGUGCUACCACGGAUAUCGGCUGGGAGUCGAAUCGC'
p662
aS'GCGAAGUACCAUAGUACAUCAAUAUGCUCUACUACGUAGCCCGGUAGCUUACGCCCGGGAACAGAACCAGAUAGUUGAUUGGUAUCUCAACGAAAAGCCG'
p663
aS'UCUACACAUGUUUAAAUUUGCAGACCGCCACUCGUUAACUAUAUAAUAUAAUAUGCACCGAGCUGUACCUUUUAGACAGCCGGACGGGCCUCCUGGCAGA'
p664
aS'UCCAAGUGCUGGAGAUCUGGGGAGGGGCCCAUACAUUCGAACUUCAGCGACGUUCACCGUUCUCCUGCCCUUGAAAGUUCUUAUACGACAACCGAUCGGG'
p665
aS'UGAGUGUCCUACUGCAAGCUGAAGUGGUCAAGGGCUCUACGUGGUACAUCGGCGAGUUCGGGACCUCGGAUCUAAUACGUAAGAUGACUAUAAAUGCUUG'
p666
aS'GUCAAGUUACUUAAUAAUGAUAGGGUGCAAAGCCUAGUCGUCGUCUCCCUGAACAAAGAUAUCACGGCGCUCUCCACGAUGCCCAGCCACCGUUGUCAUC'
p667
aS'UAAACGGGACCAAAGCUCUUUGAGGAAGACUUCUAAGACUUUAACGCUUCGCAAGCUCAGUUUGGAUGCUUAGUACACGUAUUCUUCUCGUGUUUAGACU'
p668
aS'UGACGUGGUACUAGAGGCGCUACAACACCUAGAAAGUCAUAUCCCCUCUUGAGUGGGCGUAUCGUUUGUCCUUCAGCAGGACCGCAGGGGUCCCGAAGCG'
p669
aS'AGGAAAUCGCGUUGCACCCGCCACAACCUCCAACACGCGAGCGUAAUGAAUAUCUGACUGAACGACAAAGUCUUGGGGGUGAACUUGGACUCUGUCAACC'
p670
aS'CUUAUGUAGCCCAUACUAUGUGCCUCUUAUAAGGGCUCGAAGUUGCUUCCAUCAAGAAAUACGGAGAGCACGGAAAUUUUUAACCCUAUAUUAAAUGGCU'
p671
aS'AACUUUGCAUAAACAUGUAUAGUACUCCUGAGAUUAGAAAAGCAUAGUAAAGCAGUGGCCCCCGCCUAGAACGCACUAGAGGUCCCACAUAUGGAUUACG'
p672
aS'CUCGUACCUGGGUACUUGGCGCUCUAGCCCCGCAUUAAGCGCCGCCAGUAAGCUGUCGCCGUGACCCGCGGAGCUCUCGCAGACGAAGAAAGCGAUUAUU'
p673
aS'UGCGCUCCGCCUUCAGGCCAGCUGACGGGGGGAACUUCCCCGAUAUAGAUCACUCGCUAUUUAGACACCUGUAAUGAACGGCUAACUCGUUAAGGGCGCG'
p674
aS'CGGUCCCCAAUCGUAUCCCAAACCUCGCGACCUUUGACCGACAGUGUGUGAUGAUAGUUUGAUGUAUUGAUCAGAUAUUACGAUCUUGAGGUCUCCCUCU'
p675
aS'GAAACAGCGAAGAAGGUAUCUAAGGACGGCCUGGCUGCGCUCGUCCGUACGUAAGUGGAAUCCAGGCAAUUCGUCUUAGAUCCGUGGGGUGAUUUUCAAG'
p676
aS'GAAGUCCUUCAUGCGCCGUAUAGGUGGGGCAAGGUUUGUUGUCCAAAGCACAGGCCUCCGGCCUGGACCAUAUGCCAAAUCUCACCUGCACGGUCUGAUC'
p677
aS'AAGGGUAGGUCCUAAACUUGAACGAGGAUGAGCGCAUAUACCUGGCAAGUCGGGUACUUUAGUCCCUUCACGUAGCACAGGCGUCACGACACGUGAAGGA'
p678
aS'UAUCUCGCCGAUCAGUAGAAACCGCAUUAUUCGACGAGGGUAUCCCGACAGAAAGCCGGCUGAUAUUGUCCCGCCUGCUGUCCAGGAGCUGGCGUAUUAC'
p679
aS'ACCAGCGACACUCGCCACCCCCGGGAAACUACCUUUCACGAACGUGCGAAACAUCACCAUCCGACGGGUCCGGUAUCUACCGCGUCUUGAUACGGUAUUG'
p680
aS'CGGAGCACCAAGUAAGAAGCAAGACUGGCCCUGGGGCAUAUGUGUGACCCCAAUCAUUCUGUCCACCGCGUGGGUCAGACUACACCGGGUCGGCUGUGAC'
p681
aS'UCGGCGUUUGGGGACUGCUCAACGUGCUCCAAGUAGCAUAAUCUGUGUGGAUAGGCUGACUCUUCGAUAAGUAUCUGACCAGGACCGUUGCAUACGUGGA'
p682
aS'GUUUGCGAUCGUUUGCUACUUACGCAGUGGUUCUCGACCUAGAGGGGAGUCUUAUUAACCUCUCAGCUUGUGGUUUUACGGAUAAACGCAACCGGUCCAA'
p683
aS'CGACAAACGGGGAUGGUAGCCUGAUGGCCCCGGCCAUAGUUGCCCCGGGCGUCGGGGGGUGAUCUCGCGGCUGAGCUACGAUUGAUGGAUGUGGUCACUG'
p684
aS'UUUCGAUUUAACGGGUUUUUCAUGCAGUGCCACAGCCCGCAAUAUACCAACGGUAUUUUCUCGUGUGUCGUACACAAAUGCGGACGAGAGUAGAAUCAGG'
p685
aS'ACUCCGUAGGGCGGAGUCGGCUUCGCAACAACCCACUCCUAUACAAAGUUCAAGACUCGUUGCUAGGAUGUAUCUAACUCAGCAACGUGUAUACUUGACC'
p686
aS'CGCUGGCGAGGACGGCUAGGAAGCACUGAGAGCAAGGAGAAUUCCUUGACAGUACCUGCUCGGGACGACGACGUUACACUUUCGGGUAAGUCUACUCGGU'
p687
aS'CGGGUGUUGGUGGGUUUUUCAUAGCCGACCUCGACGGGGCUUCUCCAACGUCCCCGUUAAGCGCACCAACUCCUUGGGAUGAGGCUAUUAACCGGGUCAC'
p688
aS'GAGUCGCAAACCGCGGAAGCUGCCCCCAUAGAUGGAGGGCCGGCGCAGUUCAACCACCUGUGACUGCUUUUCACAAUAUACAACGGCUAAAGAGAUGAUC'
p689
aS'UUCGCCUAGAGAAAGCGGAUAUGUAUACCCGACAACGGGCACGCCCUACAGUGUUGAACUAUACUCAGGGACUGCGUCCUGCGCGCCUAGAGAAUGUUCA'
p690
aS'AUUAGUAAACUAGAGUGCUAACUUCACCCAAUCCUGGCCUCCACGUUUCUUGACCUUAUCACUCCCCGACUCGCGCACAUUGACCGUCUACCAUAUAUUA'
p691
aS'CUGAACCAACGAAGAAUUUUAAGAUCCCGAUUUCAUUAAUUUGAAUGAUAUCUGGUCGCUAUAUAUAGUGAAGAUUUGGCAGCAGGUUUAUAGCGCUCAG'
p692
aS'CUCAUAUCACAAUAUAGAAGAGCAUUCGGGGAUCAUCAUACUAAUAACGAAUGGAGUGAGCGAACUAGGGAAAUUACCUUGAUUUACAUCAUGGCUGGGA'
p693
aS'UCGUUUCACCUGUCCCGACAGUGACAGAAUCCGUCGAAUAAUGUGUUGUCAUGUAGCCCCACGCAUUUGCACUACUGUUUCAUGAGCGCUUACUCGAAGU'
p694
aS'CGAAAGCAAUGCCAGUAAUUGACGAAGCCGACUCCGCAUCACAAGGGCGUCGAACGUGUCGGCGAACCGCUUUAAGGAGUGUUUACUUGGGAUUCACUUG'
p695
aS'AUCGGCACCAUUAUACCGUACCGGUGCCUACUUUUCCGCUGAAAUAUUUUUAGCAAGCUCAUAAGCUAGCAAUCGCCCGGUUAACCUCGACCUGUUUGAC'
p696
aS'CAUCUGACCGUUGAAUGAUGCGAAGAAUGUAUUGACGUCGCUUGUUCCGAACCCCUGAACGAUGGCUUAACCAUGCCGCAUGAACCUACUGGUAACCACA'
p697
aS'UCAGGUAAAGCCUCAGAACGGUGAGCGGGACCGCACACAGGAAUGCACUAGUCAUAGCAUUAGCUCUGCCCUCUGGCACAUCUGUCUCCAAUUCCAGGAG'
p698
aS'CUUAACAGCCAAAUAGCCAGGGAGACUCUUUAGGCCUGGGCUGCCGGGGAACUCCUCGUGGCAUUAGGAUCCUGUUGUCAUCUGAUGAGGAACUGUGCAG'
p699
aS'UGUUAAAAGGGCGAUGCCGCUAUUCGUGUUGGAGGUCUCUGCCAAUAGUGCGGUCCAUUCUGCGAAAAGUCGAUGUAUGCCAUCUUUCCUUAUGAUUGAA'
p700
aS'ACGCGUGACCUAAGUCGUUUCUUGAAGGUUAAACGAGUCCGAUGUGAAUGAAUACGCGUGAUAAACCUGGUCCGUGUAGAAGGGUCGAAGGCUGCGGACA'
p701
aS'GAUUUUCAACACAAACACUAUGCCCAAAAGAGGGGCCAAGAAAUUAUGAACUCGGCUAGUUGCGGGGGGCCCCUAACGGACGUCUCUUCUUCCACGACGA'
p702
aS'UCUUACCAUAGCCAUUAAAAGCACACCUUUCUUUCACCAUAGUUGAUUCCGUGUCGGGUUUCUAGCGGUUACUCCCGAACUGCAGAACGUAGCAUCGCGC'
p703
aS'AUACGACGGAUCAACCAUCAGCACAGUCGAGCCGUGCUCUCGAUUCAUACGAAUCGGUUCGCUUAAAUGGAUACCCAUGCUCUUUUGCGAUCGUUGGUAC'
p704
aS'CCGGUGGGCUUAUGGGGCUCAUUGAGAGAUAACAACAGAAUGUCACUGAUCAACCACCACGAUAAAGGUCUUUUUUGACGAAGUGUUGUUUCCCUGCCCA'
p705
aS'UUCCUUCUUGCAGGUGGAAUUAAUUUGUCCGAACGCCAAAGUGUCACUGUGAUCAGGGACAACUUACCCCAGCUUAACCGGCUGAACCGUACCGGGGCAC'
p706
aS'CAUAGAAGGUGGCUCCAGGGAGCGCCGCUCUAUCCGGAUUCUUGACGCUAAGAGCCGUUACGUUGUGACUUGGCUAACCCUUCUGGUUAGGUUAGAAAUC'
p707
aS'UCAAUUCGCGGGCGGCUCAAUGAUCUUGUAUCAAUACAGAGGGCUGCAGAUCAGAGACGAAUUGCAUGUGCUCGCUUAAUCACAGCUCUAGAAGGUGCUA'
p708
aS'CAGGAUAGUCGUCUCGUGCGAGUCGUUAUAGUCAGUAUCUGCGGUAGCCUCGGCACUAGAGAAACAAACAGCUAAAUCACGGCAACAGUCUGUUAAUGAC'
p709
aS'UCUCAGUCUGGGGUUACUCCUUGUGAACUCUGAUAGUCUCGUAUCAUGGUCUUUGGAGUUUUUUUCGGUCGACGCCGAAACGUUUUGUCAGGUGUGGCGA'
p710
aS'CGUCUUACAAUUUCAGAUCACGCCCAGACCACGCACCUGCGGACAAAUUUUUCAAGCUCGACGAUCGCGCGAGAGAUCAUCGUGGGGGAGGCCUUUGAAA'
p711
aS'CAGUCUCUAAUGAGGAAGGGCAGCCAACAGGACAACAAUGACUGCCACGAUAUCAAUGGACCGACGAUGAACCGCCGUCGUGCAACCAGUAUCGAUCGGC'
p712
aS'CCCUCCAUUGGGCGCGUGUAAUAGGCAGAGUAGGUAUGCGUGAGGAGUAGCGCUCGCGCCCCGGGCAAUGCAACUAUAUAAGGGUAACGCCCGCGGGCGU'
p713
aS'CAGGUGGGAGGAGCGUUGCGAACCGAAUGCGCCCCAGAACUGCUUAGAGCCAGUCCUCAUCGUAUAAAGCAAAGCUGCAUAUAGCACAUGUCGUUUCCAA'
p714
aS'UUAUACCACAGGUAUACGUAUUAGCAGAUUAUUCUAUUUAUGCGACAGAUACACAUCGGUUUGCGGGUUGGUCCCACGCGGUGGUAGCAGUGCUAAAACG'
p715
aS'GUAAGAGGAAGGACUAAGCUACUUGGAAUUCCGUGUAUCAUGUCGGGUGUCCCACGACCGGGUCUGAUAUCUGGCCUGGACUCGCGCUCUCACUACGGCG'
p716
aS'CUCGCUUCAGGACGUGUUAUUUAAAUCUCCGUAAUCGACUGCUAUUACCGCUACGGUUACUGUAUAUGCGACAAAGUAAGGGGGAUCUCUAUUGAGCAGG'
p717
aS'AAACGCUUGGUAGAAUGGUUAAACUUUAAAGAUGGGAUUGUAAAUUACAAUAUCCUGACCCUACGGCGGCCCAUAGCCGGUCCCCCGUUGUAUAAGGGAU'
p718
aS'GUAGCCCCGUACUGUUUAUAUCUAUCGCCCAAUGCGAAGUUGGUUUUCGUACCUCUGGUAGUGGUUAUGCGGCCACUGCGAUGUGAUAACUGCGGGGGAG'
p719
aS'AGCUACGCAUUUCGUUACGCCUUGUUUAUCUGACUUGGAAUAACUAUCAUCAAUGGCUAGACGGGCUGUGCUAGUUGGUUUCCUAUAGUAUCAACGGUCC'
p720
aS'CGAUUUUGAAAGUAGCGUAGCCUUACUUGAAAUUCGAUCAAUGACCAGUCAGGAAGCUCCGACGUGUGCAGUUAGAGCAGUUUAGUUGUAUGAACGGGUU'
p721
aS'UACGGAGCGCUUUGAAAAUCACGGGCCGUCGAUUGACCAUAGAUCACAUUCGAUAGAGCGUGGUCCCCGCAGGACGGAAUGAGAGAACCUAGACAAGGAA'
p722
aS'GAGUACAACCCAUCACCGUUUCGGGCAACAUAGCGCGCUCAACGAAGAGAAUACAAAACAUCUAUCCACUUUCGUGAUUUGUCUCUAAAUAGGCUUUCCA'
p723
aS'GGGUACAAUCAACCUUAUUAAAUAGCAGAAAGAACUAGCUUGUCUUUCAGAAAAUGGUGUUAAAUGAGAUCGCUUCGAGCGUGUUGUUUAUUUGGGACGU'
p724
aS'UAGUUACUCAACCAACCUGCAGUUUCUAACGAAAGAGACAGACACAUACGGUAAACAUGCAUACUAUAGCUCGGUUUCAGUUAAGUGAGACCGGAGAUAA'
p725
aS'AUAGACCGCUGCAAUUCCCGGGCCUAUGAUGUAUCAGCCCUCUUUUUUUAUUUGGGCAUGAUUGGCCUCUAUCUUAAUGGAGUGUAACGCUCGCAGUGUU'
p726
aS'CGAAAUAACUAUACCGUAGUGCUCUAGGAUUGAGCAUAGAAAGGUAAUGGGUCUGGAGCACGCCUGAGGUGGAAAAGGCCCUGAUCGGGGAGGUUUCUCG'
p727
aS'CUGCGCAAGUACAGCGACACGCCGCAAGCUACCGGCUGGGCCCUGUACCUGUACGAGGUUACCGCCACAGGCUAACUCGGCGUAGCUGUUUUGUAUGACG'
p728
aS'GCGUUCACCAAUGCAGGAUCGCAAGUGGCCCAGGUUUGAUGCACACAAUCUGGCAUAAGCUGAAGGGAUGCGGGGGGUUCGCUUCAGGUCUUAAGGAGAU'
p729
aS'CAGCCGGUGUGGAAUCAAUCCACGUACGAUGGCUGAGUGUUUCCUCACUACAUCUAUGAUCAAGAUUCAUCUACAACUUUUACACUAAGCGGUAUCUACC'
p730
aS'UCCGUCACUGCGUUUCUACUUGGAACCGCGCGCAUCUGGAAAGGGGCAAAAUUAUGGUCACGGUCAUAGUACUAUAGGGCGUCAUGGUCGUUCACUAUGG'
p731
aS'CUACUUACCCGUAUAGAGUGGCCAGUAGAAUAGGGUUACGUUUCCGUCUAACCACUAAGGUGUGAGUUCGUACUACUGCAGUAAAUGUGAUGUAGAUCCA'
p732
aS'UCCCCCGCCACCGCACGGGACUGGAUGUGAACGGCAAAUCCAUAAGGAUUCUUCUAGUCCAAGGGUUGCAAGUUUCAAUGUCGUAAAUGCCUCUGGACAA'
p733
aS'ACAUGGAAGCGCCGGCCAAGAGCCUCUCGAUACCCCUUCCAAGUGGGAUGUAGUGCCCCUAUUCCCAUAGUAAAGUACGUUUAAGCAAACCGUAACAGCA'
p734
aS'AAAAUAUGCUGAUCGCGUCGUUAGGUAUUCCAGUCGGCAACGUGCUUGCGCGCAGCUCCUCCACAGAAUCGAGGAGAGCCUAUGUGCGUGCAUAUAAACU'
p735
aS'AGCGCUAGGAGCAGGAGGGAUACCCCCCAUUCGUCAAGCCUCUUCCGCACGCAUAUAUGCCUCAACCUUUCGAUAUAAGCUGCCAUGUGAACUCGUUGCU'
p736
aS'GGUCAGUUUACGAGCCGAGACAAGUAGUUGAGCUGCACAGUUCACGGCCAGGAGUCCGGACGUUCUUAGUACUACGCCGCCUAAGGAACUCCGUUCCCCC'
p737
aS'GGUGCUCACUGCGGAAUGUGCGGCCGAGUUACCAAUUUGUCAAAUUGCGCACACGAGCUCCAUAACACGCUCGUUCCAUGCGGUAAGAUAACCGAUCCUU'
p738
aS'CAUGUACAAGUGAAAACAUUGGACCCCUUUUACAUUCCCAAGAUAUUCUAGUUAACGUUUAAAUAGUAUGCUUAACGUGAAUAGGAGACACUAUCUUGGA'
p739
aS'CGCGAGUCCGCGCGUAUCGGAGCGAGUAUGAACCGAUAGAAUGAAGUGCCCAAGCACACGCAAGCUUGGAUAGGGAGGUCACGGCUAUUGUGAGCCUCGA'
p740
aS'UUUUAUACGUUCCGAGCUGUAUCGACGCCGGGACCUAAGCGAGAGUCCUAUUUAUAGGGUACACGCACACGCGCGAUAGCGGAUCCUUUGCCCAGGAAAU'
p741
aS'AUAAAUAGACGCAACAGACCAGGAAUGUUAUCACUCGUCUGCCGUGAUGGUAGUCGAGCAGCCACCAAAUAAUGAAGUCAAAGUUAUUAACUAUGCCAAG'
p742
aS'GGGAAUUGUUUCAACAACCGAGAAUACCUACUGUUUCAUCCUAACUACUAAGGAACAUUCAAUGGUCCAACCUUCCUGGCGGUACCGUGUAAUGGGAAUG'
p743
aS'AAAAGGCCCAUCGUGGAAUUUAAUCGGCAUAAACGGCAGUCCAGGUCUGUGAUGAACCCCUUUUGUUAACUUAUUUAUCACUACCUGUUUACUUACAGAA'
p744
aS'UGUAAUCAGGUCCCCUGAAGGUUACGAUCUUAACUUUUACCUAACACACUGUGAAACGUGUCUAGAGGGAGGGAAUAGGUAUUAAAUGUUAGACUCCCCC'
p745
aS'ACUGGGCACCAUUCAGCAGCAAUUAAUGGUCAAAGUUUCGUGUCCGGUUGCUCAGAACGUGCUUUGCCUAGGGCUACGCCAUGUUAUUGGAAAUGCUGGU'
p746
aS'CUAAGUCUGUAGGCUUCAAUUUGCGCGUGUUCCAGGCUCACAAUCUAUAAGUCGACAAUCUUGGCAGUCUGCGUCCUAUAUCUAUUUUGAGUCAAUUUCA'
p747
aS'CCAUGUAUAGCGAAAGGUGAUUUAUCCCGUCGGAUCGCGCCUUCGGAUACUGGUCCGCAUUUGCUAUGUUGAGCUGGUGUACCCCGAUUUAAUAGGGCUG'
p748
aS'GGCUCCGCGCAGGGUUAAUUCUUGAGCUAUUAUCCACGGUGUUGUAAUGUUACAAACGCCGAGAGGCACGCUCUAUCUAGCUCCCGGUGGGGCGGGGUCU'
p749
aS'CCACGGGAUUUGGAACGACACUUUCUUUACCCGCAGGUAAACUUAGAUCAAUGCUACAACCCAUCACUAGUAACAGGUAGGCCCGUUUUCGACCUCACCC'
p750
aS'CCGCGUACCUCGCGGUCAAAGCGAACUGGCAUGUGGAUUGUAAAGUAAUCUACACCAGACAGAUGGGACCUGAACUAAUCUAGAUCUCCGCUACGCGGGU'
p751
aS'UUGCUUACACGGUCCACAUUCGGGUCACAAGCGGGUCAGCGAUGCGUUUCUACUCUGUUCAGGUUCCUACUUUGUUCUGCACGCUAAGUUCGAUGCUACG'
p752
aS'GUCUUCGUACGGCGUCUGCGGCUAGUGGGAACACAUAUCAGGCUGCGGAGUUCCGGUUCGGACGGCAGGAUAUCUCACACGAGUAUCAGCAACAGGUCUC'
p753
aS'CUGCGAAAAUGGAUUGUAUUUGCGUCACUGUUUUUAGGUCACAGUUCUCGAUAGCCUAUUCCCAAAGGUGGGAAACUAGGCACGGUCAAUCAUUAGGUAU'
p754
aS'CAUUAUGGUGAACAGUUGAUUCUAUACGUAAGCGUGCAAUGUUUCCUCUCGAGCUCAGUUUGCGUCUUUCGUCGUUAGCGGCACACAGCCAUGGUUAGGC'
p755
aS'GGCACGUGGGUGGGAGACGAUCUGCAUGUCGAAAGCUCAUGUCACUCCAAGGUGUACCUUAAGCAGAGAAGACUAGUCCAUGUCCCGAUGGCUUAUAUAC'
p756
aS'AAUCAUAGAAAGAACAGGUUUAAACGGCAGAGCAGAAACGCGGGGAGCGAGUGCACUUUACUGAUAACGAGGGGAUAUGUCAAUACAGCUUGUCAAGAAU'
p757
aS'GAGGGGAUAGUUAAAACCUCGAAGGGAUAAUUCUUAAGCCUGGUCACUCUGAUGCACCGUCAGGUCGAAUGGACGUUGCAUAGACCGGCAAAGAGCUCAC'
p758
aS'CUGAGGAUGGAACGUCGUAGGCAUGAUGGUUAGGACGCGCUUUGUCAAUAACCAAACUGGCAGAUUGUUGUGUAAUCAGCUAAUGAUGUUUGAGUGUCAA'
p759
aS'GCCAGAUGGCAACUCUGCGUGAUGUCGGGGUCCUCGCGAGGACAGUCCGGAGCGGGGACUUCAAUGCUGGAAAAGAAAGGACAGACUCUCGUCCUAUCGA'
p760
aS'AGUUGGCCUCGUUGUGUUACGGGGAGAGUUAACUGAAAAUGGGUCCAGGGAGCUAUGUUCGCAAGAUAAGCAUGCGUCGAAUAUGCGCUGGUUCUUCAUA'
p761
aS'AAGAGCUUCCUUUUUACCCGCAGACUUUGACUAAGCAAGUACACCACUGUAAUAUUUCAAGGGCAUUAUCCACAGGCGGGGAAGAGACGCUCGAAAGGAA'
p762
aS'UCCGCCUCCAGCGACACUCCUGCGGGGACGCGUCUUUCAAAAAGUUAAGCUAAAUACUUCGUUAACGGCGCGCGCUUUACCGUGCGCGAUAAGGGAACCG'
p763
aS'CAAUGGGGCUGUUGGCCGGUUCUUGGUAUCUGUGUGUGCUAGAUCGGCCGUACCUAGUUGUGCGAGUUCAUACAAACAGAAAAACCUCGCGUAUAGACAG'
p764
aS'AUCACAUCACGCUUAAAUCAAAUUAGUGAUACAGUUAGUAAAACGAAUGCGAUUCGUCGGAUAAGCGUUGGCUUUGGACAGGCUAGAUCAUAAGGCGCCU'
p765
aS'CUCGGGCCACGUUUACCAUGCUAUACUGUGGAUCGCGUCUAAGGGGUUUAGAGACGCUUUAUUGACUGCUACUGCCAAGGUUUGAUAAACGUGCGGACUU'
p766
aS'UCAGCGCCCGCAGCAAGAUUCGGUAACCAUUCUAGCAGAAAUCUAAUUGUCUGCGCUCCGCGAGCCGUACGGAACCCAGCUCAUUGAUAGUGAUUGGGCA'
p767
aS'ACCUUCGUCUAACUGCUUCCGUUCUAUUUCGUGCGCGCGUUAGACCAAGGUUUCGUCUUACUACUUAGCCAGGCGCCAUUUCAUAGACUAGAAACGGGGU'
p768
aS'GAAACGUCGCCAAAACCGACCCCUAAAAAGCCCUUUUGGACUGCACAGUCAAGAUUGCCGAGGGGAAGGUUCGGGUAGUGUAGAAGGCGUCCCAGGUAUU'
p769
aS'GCGUCAAGUUUCUCUCUAUAACCCGGUUAUUAGAACGAGAGUGAUGGCUACAACGGUUCCAAUCAAUGGGGCUUUAUUCUUAAGGAUAGUUAUACCUGCU'
p770
aS'CGCGUUCCAGCAAUUCAUUGUUGGUCGCUGCUAAACCCAGACUCCAGAUCGAGUCCUACGUCACAGGUUUAGCUCUCUGCUCGGGACGCUAGGUAGUAUC'
p771
aS'ACGCGCCUCAGUCCGACAAGACUGACAGAGACACAAGCCGAUAUAGGUGGGUGCUUCUGACACGCAAGUCCCUUUGGCCAGCCCGCUAUACACUACCGGA'
p772
aS'CUCGGUCACGUCAUCGUAAAUGCUCGGUAUGACCAAUCUACGAAACGCCUUCCUCAUCCAGCAUUAGGUAUCUGAGACCCGAUCGAGAGGUAGCUUCUAA'
p773
aS'GGAGGACCUCUUUUUACAUCACCGAUUCUUUUCCUAUUCGCUGGUAGGCCUCGACACGUUGCAAACCGGCGCUAGGUGAGGCUAUAUAGGCCCUUGUUUC'
p774
aS'GCCCUUCGAAAAUUCUUCGCGCAAAACAUGCAAUAGUCUAUGGGGAGAGGUCGUACAGUAACCCGAAGGUUGCUUCCCUAAGAACACUAUCUUGAGUGUC'
p775
aS'GAUAGUUGAUAGUCGAUCCGUAGAGGAGUACCCAUUACAGUCUGUGAGAAUCCAUGGGGUCACGAUUUAGGGGUCCCUCCUUUGCUGAUCUCAGUGGGAC'
p776
aS'GGGUUGCUCUCCCUCCCGUUGAACUUGACCACGUUAACGUGAGUCUCAACCUACUUUACGCGACAAAAGAGAUCAGGCUUAUCGGCGACUCCAGCGUCCA'
p777
aS'UGAAAACUGGGGAGUGCAACUUUUCAUGCUGUGCUGUAGCAUCGCGCAUAAGGACAUGCGCGGUUCGGACCCGUGCGAUGCCGGCCGUCUUCCAUUCACG'
p778
aS'CCCAACGUCUGGACCCAAACGAAUGGGGACGUCGUCUCUCGGCACAACACGCGUCAAGCACGGCAUGAAGUACCGAUACCUGUAUUAUUGAACGUAGCCC'
p779
aS'UAAGCGAGCAUUGGUGAGCAUUACCAAUACUUCACGUCUGUCGAUAUCUAAUCAGCUUAUAACCAACUCCCGUCGCUGCCAUAACGCCUUCCCUGGACAA'
p780
aS'AGAACAUUCGGCAUCCCCCGCAACCCUUACUCGGGAGCCCAUGUUAACAGGCCUCUCAUUCUGACAAUAAGGGUGUACGAGCAUUUAUUGCAAUCAAACA'
p781
aS'UCCAUUAAGACACCAAAGCGCGGAGGGGACUUCCCCCGGAGUACGCGCCUUCUCCAUUUCCAUGCGGCACGUCGUUGGCGGUUAACGCGAUGCGAUGAUA'
p782
aS'CUUUUACUCGCGGCGUCUCAAGCACGACGAAGAGGUAUCCGAUUGGCCAGAGGUGCGUGCUCCAGUGAACCAAUAUAAUGCUACUACCCUUAAGUGAAUA'
p783
aS'CCAGCUCGGUGCCCUCGCCGCCGUUGCUGGUGAUCGCACUCUGGUGGUUUGAUAAUUGGCGAACGUGUACAUGCAUGCGGAGUUCACAGAUUUAACGUCG'
p784
aS'CUCUGCGCGGUUAUAGUAGCGCCCGAUGAUACAAAGCAUCUCGCUACGUUCUUUUUAGGAUCGCUUAAUCACCUUAAAUAUAGCACGUAGGAGAAAGGUG'
p785
aS'CCCGAACAAUCAGAAAGUUCACCUUGCCGCAACCCCCAAUGACAUUUUAAGCAAAUGGCCAGCUGGUUACCCUAGUUGCAGUGAUAUAGAACAGGCGCGU'
p786
aS'GUUGGAUUAAGAAGGGGCUUCGUUUGCAUGACUAAACGCCGGCCUUUGGCCUUUACUUCGAUGCCAGCCUGGCCGAUAGAAACUAACGCUAUCGUGAUGC'
p787
aS'ACCUGGCAAGACCCCCGACGAAUCCGAUUAUGGCAUAGAAGCAGGUGGCAGUGCUCGAUCUCGACUGCCUAGCUAUCCCGGCGGUGGUAUGUUGCGAACA'
p788
aS'UCAUAACUUUGCUCCUUUUCUAUGGCACCCUCCCUCUUCUACCUUGAAUGCAUGGAUACAUGGAUCUUUAGGGCGCUAUCGUACAGCUUGUGAGCCGACG'
p789
aS'GAUCUUAAUCUUGGUAAGGUUGGGAGGCGUAGAUUGCGGUAUCCGCAAGGAACACGUGUCGCGUAGGGUCCCCCACACGUUCCCGCCUUAGCUAAGCAUA'
p790
aS'CGAGCUAGUUCUCGGCCGUAGCCAGACAAAGCGCAGGUGAGAACCGUGCGCUCUCGCCAUAGGCGAGUCAGCCAGCCUCCCCCGAAUUCUAUGUCGGGUU'
p791
aS'CGCGUGGGGUACGGUGACGCUGAAUUGCCAUACUAACAGUCUCUUUACUGCCAAUGAUCACGUGCGUCGAUGGUGGAUCUUGCAGGUCAGUAGUAUACGA'
p792
aS'GGUAGGAAAUGCGCCACGAGUGAACCUCCGAAUUUAUGAAGAUACUGUCAAGAUUUGUGCUUCCCGCCAGCGCCCCUGUCCAGCGGCAGCCUGCACAGCU'
p793
aS'UCGAAGUAUCGGUGUAAUCCUUUUUGUACGCCGUAGAGGUUAAAUCACUUGUUCAUAUUCAAUAGCGGAUCGUAGAAAGAGAGACUACGCUAUGCUCAUA'
p794
aS'AAGGAAAGGCCGGUGAAUACUAUCCACACAGUUGGAGUGCGCUUUCCCGCAUAGGAGCACUACGGUCGGAUGCUAGAUGAGAAUGACCAACUAUUUUUGG'
p795
aS'ACAUUAUGCUGCGAGACAGCCGCCAACUCGAUUAGAGUGCUAUAAACAGGACCCAGGAUGCUCAGAUCAUCUCUCCUUUCGGAGGCAGGGGGUCGGCGUA'
p796
aS'GACCUGGCCCAUAGCAGGGCCUAUACAAUCUACGCGUAGCGGUCAUCGGAUCUUACCCUAAUACCACUUUUGCACGCCCCUUAGCAUUGAUCUAGCGGCG'
p797
aS'CAAGGACCACGCACCCACCAACCUUUUCCUAGCCCGACUGGUAAAUCGAGUCCACGCAGUGGAUAUAGUAGAGCAAUGGACGGGCAGAUGGGAUCAUUAA'
p798
aS'UAGAAUAAGAUAACCCUGCGGCUUGGUUGGUGUUAUCGGAAGAGUGGCAUCCACUUUCCACCGAUAACGGGCCCAUCGAGGCGUCAUUUUGACUAGUGGG'
p799
aS'GAACUCUUCAGCUGGGAUCAGCACCCUUUGAUCUAUCGGCACAGGAUAAUUCUGGUUAGUUAGAAAUCGAACGUGUACUCCUAAACCUGUUAUGCGUCAU'
p800
aS'UUUCAGACCUUAUAAUUAUUUUUCGCUCGACAAGGGCCGAGUCGAAGGACGCUUAAUAGGCGGACUGACCAGUAACCAUUUCCAAGAAAUCUUAAUCCUG'
p801
aS'UAACAAGCGGCAUGCCUCCGCUUUGGCCACGACUAUUAUACAACGCCGAAAGCUGUGUUUAUAAUAGCUUAUGACGCGACGACUUGGGCGCUUUCCAGUU'
p802
aS'GCUACAUAACGAAUUAACGCGUUGGUCCGACCCGAGGAAGUGGCGUACUAAUCUGGCGGUUUACCGGUCCAAAAAGCUACUACUCGACGUGGCAUACGGG'
p803
aS'GGAGAGUUAUUGUCAUAAGGACUGCCCAAGCCGUACUGUCCAUCUACGACACGCCGAGGUAUGGUAACAUACCAUUUUAUGAGGACUAAGAAUUCAACGU'
p804
aS'CGCCAUUUGUACCUAUCAUCACGAGCUACUACAGUUAAGAUAGGAAUAUCCGCGGCAUCUCUAAGUUGGAUUUGACUAAAGCACGGACUGAGGAAUGCUC'
p805
aS'AGUCACGGCGGGAAGGUACGGUUUUCUCGGACCGUCGCGGCUGCAUUAGAUGUUUUUCGUAAAACAGCGUUUAUUUGGGACGUCACCGGUCUAUCCGGUC'
p806
aS'UCACCUUGUAUUUACAUCAUGGCUGAUACGUUAACAUUUGAAUCUACAGGCAAACUAGUCAAUUUGCGGAACCGGAGUGUCAACCAUGAUGUCAGGUGGU'
p807
aS'GCAUCGCUGGGUCCGCGAGCAAUGGCCUGUCUCAUGAGCUGAUCUCGAACCCUGUGCAUCUGAUUUGGUCUCAGAGGCUUCAUAUUGUUGAUUGCGCGAA'
p808
aS'AUCGUUUCAGCUGACGGACAAGUGACCUAUAGAACUUCAACAUAAGUGAGGGAUGAGAGGCUAAUUCGUCUGCCGAUGAAACUGGGGAAUGAACAAACAC'
p809
aS'UGCCUUCCGAAUAAAUUUGAGUCCGUAACGCCGGCUACAGUUCUGGUCUCAACGGAAGGCGUGUGCGCUACCUUGAUCAAUAGUCCACGAGCAAGCCACG'
p810
aS'CACCGUGGUAGUAUCAAAUAGGUUCCGUACAGGUGAUUUACGACCGGUAAGGUUAAGCCGUUUAGCGGACGGACUUGCACCCCGAGCCUAUUUUAGUGGU'
p811
aS'UGUAACCGAGUUUCGUAAGCAGCGACUUUCCGUGGUCGACAUCGAACAGAGUUUUUUAGUUGGGGUGGGCUAUGUUAUUAGACUCUUUGAUGCGCCCAAG'
p812
aS'CUUAGCGGUGGAGCCAACAGUCGGCAGUUCCACGCGAAGUGGAGGGCCAUUUUAGCGGCGUAAUGAGGCCUCUCUGCCAUAGCGAAAGUGGAACCACCUU'
p813
aS'CGGCAGGCAGUUCAGGCAUAGACUGCUUCCUCGAUCUAGGAUCCCCAGGCUAUUAGGAGUAGAACCCCGUAAAAGGACCUAUUGGUUUUUGCGAGUGCGG'
p814
aS'CGAAGUUCCCAGCGCGGCGGCUGAUUCAGCAAACUUGCUGGCCAAAUGGCGCAGAAGCAUGUUUAUCAGCGAAAAGAAGGGGCCCUUACGCUCCCGAGGU'
p815
aS'UUGGUUAAACAUGUGGCAGCCGUCUCCCAGGCGACAUGGCCUUCGCGCGCUCGAGCCGCGCGUGCAUGAGCUAUAGAUAGAUUAAGCCCUGCCUUAGUAC'
p816
aS'CGAUACAGGUCAGUUGAAGACCGGAACUCGGAAUGAUGGGUAACAUCGUGCAAUGCCGGUUACCGAGUGUUGUGAUCUAUAACAGCUCUACAUCGAGUAA'
p817
aS'CGGUUACCGCCGAGUCAGAUAUCUCGUGACUUGGGCUGCCUCCCGCCCGUUGAAGCUAUUGGCCGGUGGCUCAUGAGGCCUGCCCACACGCCACGGCGUG'
p818
aS'AUGAAAGCUCAAACCGGCGAUAGGACUCACGACUUUUCGUACGGGAUAUUCGUGGCGAAUGCAUAAUCUAUCUUCACAACUAUCUAUCCGACUUAUGGUC'
p819
aS'CUACCUACUGCUGAACGUGGCAGGAUUCCCAACUCCCGCAGAUGCGUGGUCGACCUAGCCAAUCAGACAGACAAGGAUACGGUGCUACUAAUCUGCUAUU'
p820
aS'CACCCUGAGAAUGCUUGAGCCAAACUUUAUGCGAUUUUAAAGUAGUAGCUAUGCUCUAAGGAGCGCCCUUUGAAAUAAGAACACUGAGUAGCGGUAAGUC'
p821
aS'CACAGAUGUGUCGCAUGAGACAUCUCAUAAAGCCUUAGGGUUCCCGGGAUUGUGCUCUUGGUUCGUAUGUUCACAAUCGCCCCGUUAAUCCUCGGGCCCU'
p822
aS'CGCCGGCGUCGUAUGUGACAACUGCAACGGCCCUGACUCGUCAGCAGUAGAACGUUCCGGUAAGCUUAUCCCGUACGUUCGAGGGUCCUUAAUGGAAAUC'
p823
aS'UCGAAGCCAGUCAGGAAGUAUAUCUCACGCCCAUCGCCCUAACUUAGUCUGCUAUGCUGCCGUAGACUAAGGGAGAAUUCAGGUGUGUCACGUUCUGUUG'
p824
aS'GCGGUUCUCCGUCUAGCGAAUGAGCUGCGUUUUUUGGGAACGGAAAGAUGGGCACAUACUUAAUCGGUUCUCAAACGAUGGAGCGAAGGACAAUGGGCCG'
p825
aS'CUGUUCUCUACUCCCCCGGGGCACGGAGUAGACUUCUUAUUGUUUCCGAAGUCAUGGAGAGAGCUAAGUAGUCCUUCGCCGUGACAUCACUUGACGGGUG'
p826
aS'GCCCGGGAGAGCUCCGUUGUUACUCUGUCGUGUUGGGUACGGGUAAAACGUGGCAGUCUUCAGAGAUGAAAAUAUCAAGGGACGCAAUGUUUCCACCAAA'
p827
aS'GGGUUUGAUUGGACCGGGCUGACAACGAUGGCUUUGGAUGUGUAUUAUGACCCUCUCGAUUCUUUAGUAUACACGUCUUCCGGAUGUUAAUCUAGCUUUC'
p828
aS'CGUUGCCAUGUAUCCUGGGCCACCGUAACUCCUCAAGAGUAAUUUGACAUGUCAAAGUUGCAAUUGGGCCGGUGUCGCUCUACAUGGGCUGCAGAUGUUC'
p829
aS'CAAAUGUGCUCGUCGGGAUGUUAAGCGGACGAGCUAAUGGCAGUGGCCCGAAACACCUCGACGAUGGUCCCUUGUCUUAUCACUACGUACAACUAACAGC'
p830
aS'GGAUUAUGAUAUUCACCUAGUGAUGUUGUUUUGGCUUCGGCUCAUGUACAAGGAGCGAAUCUUUUUCUCCAAUCCUGAAUGACAUGUGUGUGCAGUAAAC'
p831
aS'AAACGCAGCAUUUCUUCGUGGGUACGACCAAGGGACUGAUAUAGAUGUUUCGCAGCUAGGGAGGUCAUUCAACGACUUGUAUCUUUCACACGGCACACAA'
p832
aS'AAUCAAACAAAUGUUAAAUGGGCCAACUGGACAAUACUUUAGGCAAUCAAGCGCAACAUUUUACGAUCGGACUCAAUAAAUGUUUCCGGUGGAAUUCUUG'
p833
aS'CCCUAAAUCGGGUGCAGACCUGCUAGGGCGAAUGUCCAAUGAACAGGAUGUUUUGUCUAUCGCGUUGCUUUCUCACAGGGUUUCAAAGCGUCGCUACAGU'
p834
aS'AAGGGCCCCGCGAAGAAAGGUGUCUCUGGAGUGUUAGAAGGAUCGGAAUUUGGACGGUGGGACCUAAGUCUGGCCCGGAGCACAAAUACCUGAAGGGCCC'
p835
aS'AGCGCCGCACUAAUAGAGUUCUAUCUGCCGUGCGUUCGCCGAGAGACAGAUUGCUGCCCUACAACGUAUGCUCAUAAGGUCCCAUCGUACGCUGGGUAAA'
p836
aS'AUCCUCGAAUGAGCUGAGCCUAUAUCAGAGUGUAACUCGAUAUCGAGCGACUAAAGUGGCAUUACCGCCGAUAAGGAUCCUCGCUUAUCCCUAGUGCCAC'
p837
aS'CUCGCCGACACCGAGAGCCCGCCUGGCCGUAAUCGACUCAUAUCAUACCCCCUGACCUGAGUCCUCCCGUUACCCCCGUGGACCGCAGUUCGUUGCCUAG'
p838
aS'UAGUCCUAUGUUGACUUCGAACCUCAUCACCUUAGUAGUAUCACUAUAAUCGACGUACCUACUAGGUGAAUCUACCCACGGACUAAGCCGCGUGUGGUUG'
p839
aS'GGAGGCUGUGUACAUUCAAACUCACAUCCUCAAUGAUCCAUCAGGCUUUGGAUUAACUUCCCUGGUUUCGGAAUGCGCCUGUCUGCGCUAUAGACACCUU'
p840
aS'GCCAGCAUCUCCGACUUAAUAAUUACUCGCUUCCUAAUGCGCGCGGUUAUAACCCGCGGAGAUAAGGUUCGCGUUACGCCUCUGCCCUGCGUCGGGCCAA'
p841
aS'CACGAAUGUCUUAGGGUUAAUCCGCAGGACCGUAUUGGCAUGAACAAGCUGAACCUCCGUAAUGCUUAAUUUCGGUCUAGAUGGAUAUGCCAUUAGUACU'
p842
aS'UCGAUCGGCGCGGUUACGACCGGAUACGAACUCAUCUGGCCCAUAAAAAUUGUUGUUCCGUUGGAAUGCAGAAGGGGAUAAGGUUGCGUGGUAGGGCAUU'
p843
aS'CAGCAGAAACAGCUGAACCUCCCGCAGCGAUUGCCCUGCAGGCCCCGCAGCGUGGAUGAUUGCUCAGAUAGGCGUUUGUAGACCUCACCAGUAACGUGUC'
p844
aS'GCAGUAACGAUGGACGUCGAGAUUCGGAGGUGUAGGGAGCUUUCCGGAGACCUGCUACAGAGCGUGCUAGCCAUAAGCAUUACAUAUUAAUUAUGGAUGU'
p845
aS'UUGUAGUCAUUACUAGCGAAACAUAGUUUGACCUAAACGAGCCGAUGGGGAUUAAGACCCUCCUUUAAGUGCUUCUAACUUACAAGCGUGUCUACUGCGU'
p846
aS'AGCUAGAAAUGGAGCAGAUAGCUUGGGCGAGGCCAUUAUACUAUAGCUCACGUGCUUAUUCAAAUAAUAUGGAUAGUGAUAGAUCCUCCCAUCCAUUGCA'
p847
aS'UGUCGCGACAUUUCUACCAUUGGUUGCGCCGAGGAUCGACAACAAUACUAGAGCCUAAAAUGUGUUUCGAGGGGCCAUUCGCUCGGACCAGCCUAGGUUG'
p848
aS'GAGGGGACGGUAUCCAGAGCGCGCGGGGGCUAGUACCCUUAAGGGUUCUUGCUCUCCUCUUCCUAAUAUACCUAGGGGAGAGAGUCCGCGGGCGUUCGUA'
p849
aS'CAGGCUCGUUUUCUUCAAUUUUCUGACUCCACUGUACCUGGCAGUUUUUUACUUAAUGUGAAAAAAGCGCUAAGGCACAAUUAGAGAGCACUUCGAUAAC'
p850
aS'CCCCGGCCCGCACGGCCAACACGUAGAAGUGGGAUAAUCAACGAUGCGAGGUUGGUUUCUCGUCUUCGCCGCCCCGGGGUUCGUCUACAAGCAGCGCAUA'
p851
aS'AAUAUUAGAGAUCCUUUAUGACGUUGGAAUAUGUAGAACGUCCACGGCGCGUGAUAUCCCUCCGGAGCUUAGUCAUUGCUCGUUGUGACCCAGAUCAAGU'
p852
aS'UACGGCCUGGCUACUAAAAAUCCUCCUUCUCGGCACGCUUCAAUACUAAUACCACACAAGGUGUUCGGUAUGAUUGACUCUACUAGCAAGGGCGCCAACU'
p853
aS'AACUGGAUGUGCCGGAUGAAGCAUUCUCGGUUCCACGAAGCUAAUAAGAAAACGUCUCCUUACGGUAAACCCGACGGUGAAUCCGAAGCCAGCUUCUGAC'
p854
aS'GUUGUAAAUACGACUUAGUACUGCGGUCAGAAUGCUCACCCCUGGGCCAGUGAAUCGGUUUAUCCGUACGCAAAUGUGAUAAGGUUAUCUAACUUCCGAU'
p855
aS'AUAAAAGUCCUAUCUUCGCCCGGAAGCCGCCUAUCGUAGGUGUAUUCACGGCGGGCUGGUUUAUAUAAAAUAUCCCUCACGUAACCACAGGCUUGGUUAC'
p856
aS'UGACUCACCGGUCAGGGUCCAAUGGGACGCUUGGUUUCAAGUUCUGCUGAGCACAGGAGACUAGAAGUUCCCAGAGUUUACCCAAUUCAAAGUUUAGCAU'
p857
aS'UUCCGGGUCUAAUUGUGACCAAUGACUCAUUCGAGCUCCUCUUACCAAGUAGUGGGCGUCAAACUAAGGGCCCUCUGCUUAGGCACCAUCGCUGCGAAGU'
p858
aS'GCGUCAACAGUUAGAAAUAGAAACGACUUUAGUGACCGACGUAGUAGCCAUCGCUGAAAUUACCUCCCUCCCACGUUUGUCCGGUAUCGAGCCCAGGAAC'
p859
aS'CCCUUAGCUAUACUUAGGUACCAGGGCGGUGAUUCUAUCAAGUAGGUGGGGCAAGGACCGCUAGUACUUAAGCGAAAACAAUAUUCCCUGGGCGGAAAGA'
p860
aS'GUGCAAUUCAUCGCGUAGUCAGUAAACCCCCAAGAAACCUUAUAAGGUAACUUCCCUUAAAUAAGCUACUUCCAUCGUACGCUUGGACACGCUAGUACGG'
p861
aS'GCAAGAGGUGGGCUUACCGAUCAUAAUACGAGGUGCUGUGUACACCCUAGUUCUAUGCAAUACGGGCCAACGCCUAAAACGGGCAUAGCGCGCGUUUUCG'
p862
aS'GCCUGACGAACUUUUGUUCGUCGACAGUGGCCCAUACAUAAUCAGCGAGAGACAAUCCUUAGGGGUACGUUCCUCCAUCUACUCCCGAGGAACUUCUACA'
p863
aS'AAUGAUUGACUGCAGUAGAGAGCCCUAUACCUAUGCGAUGCACAUUAUGAGUUUCAUCAGCAGGAGACAUCCGUGCCGGGUUUACCCCAAACUGGGGUGC'
p864
aS'UUUACACCGAGCCUUGCUAUUCCACAACUAGUCAUGCCGGUACCUCCGGCAGCUACUUCAGCGUUCGCCAACUAUAUUGGGUUACCUGGCUAGUACCCGC'
p865
aS'UCUCUUGGAUUUGCUGAUCCUAAUUCCUGAAAUACUUUAUCGACGUACUUGGUAUUUCGCACCAUAGUACCCCGCCCUUCGAUAUCAGCUGACCCUCUCC'
p866
aS'GUACGGUUCAUGAUUAAGUUCAGGCGACGUCUCGUCCGCGCACCGAUCUUGGCGUUCCGUUAGACUUUCCUCUGGCAUCAAAGACCAGGACCCGGACCGG'
p867
aS'ACUGGGUGGGAAGCGAUAUCCUCUCAGACGGUACAGGUCAUUCGAGACUACCCGUUGCAUUGAGACGUAGUCCCCUGCGAUUCUGCUUCGAAUAUGCAGU'
p868
aS'GAGAUGCGCACGGGUUUCUUAGACGUCGAAAACUACGCCACAGCUUCCCGUCUCCAACGUUGGUCCUGGCGAGCGAAUAAAAUCUCCAACGGUUUACCGG'
p869
aS'CAGAAUCCACAUCAUCACUAGGUGUAGAUGAACGGCCUGAAGAUCCAGACCUGAAUGCCCCACCACACAGGCCUGAGUGUAGGUCCUCCUCCAUAGCCAC'
p870
aS'UACAAACUGUUAAUCAUUACGUCUAGCCAUUCGGUGGUUGCUCCUGCGCUCGGUCUAUGCGCGUCCUCGAAGUUUUUGAGGUUUACUGGGACCCGUUUUU'
p871
aS'GAGUUCGAAGCAAAAAUUAAUGCGAUGCACAAUUGUCAUGCAGCGGUGGGGUUAAGUGGCGGUCUGUCGUUGGCGCGAUCGCUAAUAAGUGAAGCCAUGG'
p872
aS'UUCGACGAGAUGGGGAAAUUUGUUGCGUUUAAUGUACGAGGCAUUUUUCCUCAUUAAUUGUCCAAUAAUCGGUUUGACGAUGCGAACCGCGAGUGAGGCA'
p873
aS'GCCAGUAGGCACCUACGUUCAAGGGAGAGCAAGUAAAGCACGGCUCCCGCUGGGCGAAAACCGAUGUACGGGAUCGUACAUUCGCACAUCCCACUAACCG'
p874
aS'GUCUAGCGUAGAUACAAACAAGGUUCGGAGAUCGUUGCCCUAAAUCAGAAUCGUCUCGAGCCUGGGCUAGAUAUAUACGCAACUGACCCAGCACGAGCUA'
p875
aS'AACCCGGUAUCGCUCUCUGGGGAGCUGUUGACGAGUGGUUUUCAGUGCUGCUACGAUGCAGAAAAGCAAUAAGAGACUAGUUUAGGUUGAUCGUUUCAUA'
p876
aS'CAGGCUCAAUAUGUACGUAUUUAAUUGGCUCCUAUGAACAUGCUCUGCGUCUAGAGCCGAAGCCGGACAUCCGCCUGCGGCGGUAGAGUCCGCUGUAUCA'
p877
aS'CGAUGGGCUUUGAGUCUUGCGCGCAUAAGUGCGACCGAUCCUAGUUAAAAAAGGCCCCGGAGUUAUGAUACCAUGGUGGCGAUAUCUCUGGGCCACGGCG'
p878
aS'GCAAGUCUACGCGGCCGCGCUGAACAUUAUCGAAUGCUACUUCGAACUCACCAUGACGCAAGCGACGACUGCCAGGAAUAAUAGCACGGGUUAGCCUGAU'
p879
aS'UUCGUUUCGCGCGUUGGCUUGGGAAGACUGUAGUUGCCCGAGAUCAUAUUCUUCGAACAGGGUCACACCCAUAUCAUUUCAAUUGCGUACACGAAUUAGC'
p880
aS'CCCUCUAAUAAUAUUGUGGCCGUCUCCUGCCAAGGAGACUGGACGUCUUGCACCGAAUUGGUUACCAGCCAAAGCUCCUGUACACUCUAACACACCACUA'
p881
aS'CCUCACUGGCAGUCUGCCACAAGCCGGCUACUACCACCGAGUGGGAAAUUGUUCCAGAGAUUAUGUGUACAUCCGUUUCAGUCCUUUACGGAGUUCCUUA'
p882
aS'GGCUACGUGAGAUAAUCAUCUCAUCGAACCAUUGUCAGCCAUCUCUUAACGAAGAGAUAAACCCAAUUACACCUUCACGGCAAAGAAAGGCGGGACCUCU'
p883
aS'CAGUACAUGGCGGUCGUAUAAAGGUACUACUAUCUUUCUUUGUAGAUUCGGCUCACCGAGAGAUUGAGUCCAAUAUGGACCGCGCCAGCUCUACACCAGG'
p884
aS'CGAAAACAGCUACGCGUCUAGUGUUUUGACGCCCCACAUACGCUAAUGCGUGUAAGUUACGGUGGGAUACAGUCAAGUCCCGUUUAAGUGCUGCCCCCGA'
p885
aS'CACCGCGCUCCUCGGUGUGACCACAAAUACCUCGUCUUCACAACGGUUGCAUCACAUUAUGACAACGCUAAGAUAUAUUGUGCCAUUCAUUCAUAAUCGA'
p886
aS'UCGAGGAGAUCGAACAGCUCAUCGUUCCAAUUGGUCGCUAUAAUGAUGAUCCUAAGUGCCAGGGACCCGGGACUAAUGAUUCUACCUUUCCAUUAGUUUG'
p887
aS'CCCGCCCAAUCCGUUUAUACACCGUGUGCGAAGCGGUGCAGCCUCCCCAAAUUUACAGAAUAUUCCUUGGGUCUUAAAUUAGUCCCACCAGUGUACGGCC'
p888
aS'AUUAUGCACUUGAAAUGAGCUUCUAUGUCGGUCUCACUUGUGGAACACCCUUUUAUCUAAUAGUGUAUCUAAGUUUGACCCUUGCAUUCAAAAUCGUUGG'
p889
aS'GAGAGUGUUAUGAUAACGUCUGGGUUAAAGGUGACGAGUGAAAAUAACUCAAGAGAGCAUGCGCACUUGGCAACCCGCGUGCGCAGAGCACUACCGAACC'
p890
aS'UACUUCAGUUCAGUGGCCUUUGAACUUAAGAUAAUAUAAUACCUAAAUCAAACCGGGUUUGGUUAAUAUAUACAUCGAUGGUAGGACGGGUGAAUGAUAA'
p891
aS'CGUAGGCGGCCACACUCCAAUAUGUGCAUCACUAAGCCGAUCUAAGUUUUACAAGAGAGGUUCAGAGGUAACCCACUCAUGGCUAAGACCCCGGCGUUUU'
p892
aS'UAACGAAAGUCCCGGAUGGCCGCCCAAGACUAGCAAGAUUAUUUUACGGAGGGAGAUGAGAGCUCUCCCCAUUAAUCGUAGUCCGGCGAGCAUCUGGCAA'
p893
aS'UGACCGCAAAGAACACCCCAACGCCACUUCGUUUCUACCCAACUUAAUCUACGCAGUCUCCUGCACCCUAUACCAAGCGGUUACCCUGAAAAGCGGGUUG'
p894
aS'AAAUAACGUUCACACGGUUUUAGACGGUGCCUGUACCCCAAAUUGGCCUGAAACGGGAGGUGCGCGUCAGAGGUCAAGUAUAGUAGAGGAGUAGGAAGGC'
p895
aS'GGGGGUGCACCCUCAACUAGGCUGCCUCGGGCCGCUGAGGAGCUGCUAACUUGAGAAUUCCGGUCCACGGUACAUGACCUAAUUGGGAUCAAAAUCGCUC'
p896
aS'GGGCUUUGCUUAGAAAUCUGUAAGGCAGCGUACGGUUCUAGCUGGUUUGCUCCUUCCAUGCCUUUUUGCAGAGAACUGCAUGAUCUACGCCGUUCCAACA'
p897
aS'UCCGACUUCCUCGUAGCCUUUUCAAGUGAUUCCAGCAUUUCGUUGGCUAUGCUACUUAUGCCGGCAUGUCUUAGCGCUUCACUUGUCAGAUAACUGCUAG'
p898
aS'CGAGCGUCUUCGAGGCGUCAACCACAGGGUGGCUGUCGGAUAAAGCGAGUUAAGACCCUAUGUAGUUAGUCGCGAUAGGUCAGUCCCAGUGUUAUUGUGC'
p899
aS'GUCGAGGAUACCCUGGUUCUGUGACUAUGAGUCCUUAUAGGUCCAAAGUUACUCAAAAUAUUAGGGCACCCCACAAUCGGAUCGGCGGGCCCGUACGGCU'
p900
aS'GCAAGGUUUAGACGGCCUGCGUCGUCAGAUUGAAACAACAACCAGCCCGCCUGUCUGACGCUACAAAAUGCCCUAGAACUGUAUAACCCUACGUACCAGA'
p901
aS'CCUCUGCAAAGAUACACAGACAGGACUGAGUCUCGUCUGCUGUCACUAAUCAUUAAAGCCAUUCGUUCCGCGCCAAUUCUUAAAGAAGUCCUCGGUUUGC'
p902
aS'AGAUCGUACGUGCUAAUAGAAACUGACUUGCACCUUGGUACGAAGGCGUAUGGUUAGGCCCUUCAUGAUUGAGCGGGUGUUAAGUGCAAACUCCUCUACA'
p903
aS'GCUGCGCCUCGAAUUUCCUCCAUCCUACGUGCCUCAGGACGCCCAGAAAGUUGGUUCCACCCCAUAUGGAAAAAAGAAGUGGACUUUGUUUAUGCAGGGC'
p904
aS'AGAAUAGCUAUACGUGCUGUACGGCAAAGAUUACAGAUAGGAUAAUUCAGAGUGAAAUGCAAUUGCUACUAUUCAUGUCGGGUCCUUCAGUGUCCUGCGC'
p905
aS'ACAUCGCCUACGUCUCCUCAUAUCCAGUCUACUGUCCGUACGGCAUUUGAUCGAAAAUAUACAUCAAGUGGUCCUGCCUUAGAUGAGAGAAGGUUAGCGU'
p906
aS'UAGAUCAUGCCCGCAUUUUUAUUGACCAGGCCCACUCUGCUCAUCACUGCUUGGAUACCGUUUCGUGGCGGUUCGUCGUCGAGGAUCGCGAAUUUAAGGC'
p907
aS'CCUUUAAGAGGGACAUCUUUCUCUGCACCUAGCGUGGCGCACACUGGAGUGCCCACUCGUCGAUAUCAGUUUUAUUCUGUGAGAGGUUGGGUCAUGACAC'
p908
aS'AGUGACCUAUGAAACUCAAGUGCAUUCUACGCAAUCUUGCGCGCCCGCUAACCAUCAGUAGCAUGGACUCGUAUUAGUAAUCACCUUUCUUGUCCUGCGG'
p909
aS'UAAUACAAAUACGCGAGAAAUGCAAAUCCCUAUAUACACGAGUUGCCUGGGGGAUUAUCGCGUGUGCCCAAGCUGGUAAAUACAGUGCAGUAGUUGCAGA'
p910
aS'AAAAGCAAGAGGACCAUGUCCGCUGCGGUGACGUUCGCAACAUAUUGAUAUUCCAAACUUCAAAUAACGAACAACAUUUUACAACCGAUGAACUAUGUGG'
p911
aS'CGUUUUUAAUCCCCACCGGAGAGCUUGCUGCGAUGCAUGCUAUCUCUAAUGACAGCGGCCUGGUGUGUAAGGGACUGUGCUGUGAGUACGGAUAUUAGCA'
p912
aS'AAGGAGCACGAUCACAGCCAUGACGUAGCACAAUGGCAAAACUAUGCGAUCAAAUACUCACUUUUAUCCAGGUGGCAACUUAGGUCCGUAGGGGCGAAGG'
p913
aS'ACUCACGUCGCCUUACACGCGGAGAAAAGGAGCUCAAAGAGGGGAGGCGGUCCCGGGCGCUAGGCCGCCUGCGACAGAACGUUCCGCGACUAACUACCGU'
p914
aS'GGUCUUAAACCCGGUCCUGGAGCGCUAUGACCAGAACAGUGACGCGAGCAGUUGACGCUUUACAUGGAGACUGCAGUAGAUCAGGCGGUCCCAAUCAUCG'
p915
aS'CACAGCGGACGCCGUUUGACACAGAUGGUCAUUAGUAGUCCGAUCUCCUAGUGAGAGUCGAUGUGCAAAGACCUCCGCCUCGCACGCUUUGUUAACUGUG'
p916
aS'GUCACUGGUUAUAAUUGGAAACUGCGUCACUACUCAUGGCAAAUCGCGAUUCUUGGACUGGAAACUUCACAGGUAUCGGAUUCGGCUUAACGCUUCUACG'
p917
aS'GUUUCGCAAACGGCUACACGCAGUUUCACAGCGGCUUGUCAAUGCUUCCUAGUACAGCAGAUAAUUCGCGCAUAAAGAAUCGUCUCGAUAGUGCACCACA'
p918
aS'UGUUCGUCCGACCACCGUAAUCGGGUCGGGGAAUAUACAUAGAAGAGUCCGCCUAUUGGCUAAAGCCACCGUGCUAAGCACUCUAGUAAAAUUCGGUAAC'
p919
aS'ACGAUUCGUGAAUUAGAUUCGAAACAUCCCAUCCGUCACCUAAUUAUUCGAGCUCAUACAGAACUGCCCUUUUUUAGCACCAUGAGUGCUCAACGUUGCU'
p920
aS'UUGCCUAGCGCAUUUCGUUAUGGGCUCGAGAUCGAAUCUGUCAGUCGGAAAUCUCAAAACCCAGUCGCUCUUGACCGCGCCAGCGAAGCUACCACGUUUC'
p921
aS'UUACCCAACGAACGCCCCGCAUGGUGGGGGCGAGUAAGUGUCGUGAUUCAAGUGGUAGGCUUAGCAACUCCAUGACCAGCACCGCAACAGCGGUGCCUUA'
p922
aS'ACGGUAGCUGUGAAAGGCGUGUAGUUUUGUAGGCGAAUUGCUAUGAGACGUCACCUCUGUGGACCAGUAGCAUACGCACGGAUGGCCAGUCAUCCGAAGU'
p923
aS'UCCGCGGGGCUCUCCGAAUAUAUUAUUCUACAUGUGGUUUCCGGUAAGGAAGCAUCGUCCUCACUGGGGUAUCGGAUAGUACAUUUGGCACAAUCAACAA'
p924
aS'GCCGUGGGCUGGAUCGCGUAGCGUCGGAUUAUGCCCACUGGGUAAGAGUGAUGUCAUACGCCGAGCCUAUCUGACGCUGGGCGACCAGCGAUCGCUACUC'
p925
aS'UGGGCUAUGAGAACUAGCUAGCGAGUCCCGGAGUACAUAUUUUCCAAGAGGUCGGGUAGUUAAGGCUAGUCAGCCGAGUAGGGGCUAGACUCCAUGUUCG'
p926
aS'CCAAUUGCUUCAUACGAGCCUGGAAUCUCCGGACAUAGUCGUCACUCUUGAAGCCAAAGAGAACCAGAUGAUAGGUCCCUUGGUAAGUGGUCUCCUUAUU'
p927
aS'AGUACUUGACUUUCAUACCGCAAGGUCAUAGGCACGUCGUGAUUAAUCUUCUAAAGUAACUGAACUCAGUUUACUCCGCGCGACACCGACUUCGCUUCCC'
p928
aS'UUGACAUGGCGCUUUAUUAUUCAACAAUCCGCGGAAGCCGUUAGAAUCAUUAGUAAUGAGUGCAGGUGAAUGCGGACCAACCCAUCGAACGCUUCGCUUA'
p929
aS'CAUACAUCGACAUACUUCUAGAGUCCUUAGACGCCACUGGUCGCCGCUCUUUGACGAAAACUUUAUUCAUGAAGAUCAGUACGCCAUUAAGAGGUACACG'
p930
aS'UUGCGGAUUCGCUUGCAAAUGAAUUAGAUCUUAAAACUGUAGUACCGACUAUACGUAGGGUUAGCAGUCGUAAACCGAUGCUUGUUACUAGUAAAAAUCU'
p931
aS'CCCGGUGCGUCUGUAGGUAUGAGACAGCGAAGCACGAAAAAUGCCGCGGCAAACUGCGCCAUCGAACAUCAUGUCAAGUCCCUUUCUUUUGGACUUGUUU'
p932
aS'AGUUUUGCGUAUGGAGCGCCUAACUAGAUAUCCUUAGCGAAGGUCCUCACGUUGGGGAUCACGCGUCGGACCUUCAGGCAGAUCCCCGGUUAUUAGGGAC'
p933
aS'GUAUAACGACGAAUCGUUAGUAGCCUGCCCUAUAGCCAUUGGUCAGAACCUACAUAAAUGCGAUCGGACCGGUCGAGUCUGACUCUCAUUUUGCGUUUGG'
p934
aS'UCGGAUGACGCUUCAGCACGGUUUGUUAUUUAUAUGCAUUCGGGGCGAACAGAGAAUAUCGGGUUAUAAAGACUCUAUGCGCCGGCAUGCCCAGCUUCCC'
p935
aS'CUCGAAAGCGAAUUGACUAGCGGAUCAGCACUGUCAAGAUACGAUUGAAGCUAAAAUUAUGGAUUAAGGGGUCAGAUCGGAGUGUAGCGUAAGGCAGGCA'
p936
aS'CUCCUGAGAUGCGCGAACAUACGCUAACCGGACAGACUGCCAACGGCAUCGUCACCGCCCUGGCUGUUCCCUAUUACAAGGAUUUUGGCAUUGACACUUU'
p937
aS'CGGUCCUACCAGGUUAUACGCACACGCAACGCCCCUGAACCUCCAGAUACAGGGUUCCGCUCAUAAUGGCACCGAUUCCCAAGGGCUUCUGCCGGGUGAG'
p938
aS'AAUAAAGAAGUGCGGACCUAAUCACAGAAUUAGUAGAAUAUGAUGGUAUCCAUUCUGCGACACCCCAUCCGGUAAAGAAUACCGAAGGGGAUCCCCCAUG'
p939
aS'CCACCGGUGAUCAGAGCUUGAAGACGGGAGUGAGCCUACCUACUCUCGGGCAUCAGUCCAGCUAUUCCCGGAAAAUAAAAGGGAGGGAUUGCUGAAUAGU'
p940
aS'AAUACCCCUCGCAUCACUAAUAAUGCUAAGCGGGUCGCGAACAUGAAAAGAACUGGAAAAGGCGUGCUCAGAAGUCUACUAGAACCAGACUCGAAUAUAG'
p941
aS'AAGAUGGCACUGCGCCGGACUUGCAGAGUUGGGAAUUCGGCGAGGCGCUCUUAUAGCGGUCUUCAGCCAUCGGCUAAUAAGGGGUGGCCAAGUGCCCCAU'
p942
aS'AUGGCCGAUGUCAUCGGGUUUCCAUCCAUGAGGGGAACUAUAAUCUUAAGUGGGGAGACAUCUUUAGGAAGGCCCACCUCGUUUCAUGCGUGCUGUCGUG'
p943
aS'UAGGCCUUGCAAUGACGGCAUGAGUUCGUUUAAUGGGUUACCGCCUUACUCAGUUAAUUAUGAUAUCAGUCGCAAUAGAUGGGGGCAAGCAACCUUUCAA'
p944
aS'AUUCACACUAUGCCUGUACCUUGAGAUUAUAACAGGUUAGGGGAUCGUAAUCGCAAACGUCAUCCAGGUCCGUACUUAGUCAACGUCAGGAACGCGAAAA'
p945
aS'CUCCACGAGAGGUCUGCUAUCAUAAGAAGUGUGUAAGUUAUGGGCCCGGGUCGACUUCCUGGAAUGGUGGUUGUCACGGAUUAAACCAACAGCGCCGUUG'
p946
aS'CCGUAUCUAUAGAUUGAGCCUCGAACGAGCUACGCACGAGAUUUAGGUUUUAUACUGCAAUUGCGGGCGUUAAUAUUAGAGGAUGGUGAGCUAUAUAGAC'
p947
aS'GUUCUUGGUAUCUGGUUAGAAUUCUACUGUUCAAGAGGGCUGUUCGGUGUGCAUAACUAUUCGCAUGCAGGUGCUGCUCCAUGUUGAGACAUAUCAAGUU'
p948
aS'GUGGUACAGGUAGGAAUUACGAUGAAGCCUGUGCUUCCCACAACAGUUUCGCCGCGUAGUUGUACGCUCGGCGGGGAUCGGAAUUCCUCCCAAAUAUGUA'
p949
aS'AGGAAAGUUGAGUAUACAUCACUAUCCGCACGGUUGCUGCCUGCCCCGGAGGGAGAAUCUUAUCCGGUAUAACCAGGGUCUCCCAAAUUGAUACUACGAU'
p950
aS'ACCGGAGCGCCAAAGUGUAACAUGAGUCGAGUCUCGCCUCACUGGCUUCGUCCAAGAUGUGGCAGGUGCUGCCUGUGCUUUUCGCAAACUUAGAUCCAAG'
p951
aS'GGCCGGACGUCUGACUGCGUACACGCGUUUUAUUCCUACCAUACAAGGGUCAUAUAAGCGAAUGCUCGAGGUAGCCGCACUUAUUCCCGUAUACUUUACA'
p952
aS'GAUAUCGUAUUGGCACUUCGGUAAUCACGUUUAUGCACGAUUUCCGUAUUUUCCGCCUAAGCUCAGAUAAUGCAUCCUCCAGCUGUCCAGUAACGAAAUA'
p953
aS'CUGUGACGGACCUACAAGCUGUCACUAUUCCCGCUGCCACAUUGGAGUGGUUUCAAAGAGAACGGCCUAGCAGACUUUAGGUCCAUUGGAAUUCUGUCGG'
p954
aS'CAAAUGGUAAUGAAGGUCGAGCGUUACACGGACCGUUGACUCCGGCCCAAGUCAUGCGAUCAAGAAGUCACUAGGACUAUGUUUUGAUGUCGUCCUCCCC'
p955
aS'AGUGAUGAAAACUUCGGUCUCGCUUUAAAUUAUAGACGCAGGCCACGAUACCAAGGCAUAGUCUUCUGUUGUUUUGACAUGGGAGUGAUAGACCUUCGGA'
p956
aS'CACAGUAUUCCACGCCCGUGAUUGACACUGGUGCCGGCGGUUGUAUCCUCUUGUCGCGCAUAGCCGCAGAAUAAUUAAUAGACAUAUGUGUCCGUUUGCU'
p957
aS'CGUUGACGCACUGAGAUUGUUGGGGUGGUGAUUCAGUGUUUACGAUGUUCACGCUAAUUCUAUCCGCUGUGUCGGUCGAGAUCGCUGCGGGGGUGGCGCC'
p958
aS'GGGGCCUCAGAUUCUACUGACGCAAGUCAUUGAAUCUGCGGGAAAUAACGAGUGGUGUCGCUAAGUUUGCUGAGCCGUAAGCACCCGGUUGCAUUCCAAU'
p959
aS'UCGACUACAUCACGUGGAUCAAAGUUCCUCAAUGGGACCUUAUCUAGAAGGCGAAAUCAAUCUUAAGACUACACAGCGUCCGCAAUCACAUUCGGAACCA'
p960
aS'GGGGGUAAAUAACACUUUACGAGGAUCAUAGUGAAUAGCAGCCGGUCGUUGCCGUGCCCGGGCGCUCUAUAGAUAAGCCUUCACACAGAAGAAGUGAAAG'
p961
aS'UACUCCGCUAGAGUUGAAUGAAUGGUCACACCUGUGCGUUUCUGGCCAUUAACUUGCGCUGGUCCGGCACCCGGAGCGGGCUCGUGGAUAUCGCGCUCGG'
p962
aS'GCCAGGCUCUUCAUGACGACAGGUAUGGGUAUGGGGACGUCAAUCUAGAUUACGACAAGCGUUACUGGUAGUGCACAAGAAUCACGGGCUAAGCGAAGUG'
p963
aS'CCGCGUCCCAAAACCUGGGUCAGACGGGCAGUAACGGUGUUGCAGCCCGAGGAGGUGGAUUUGUGUACCGCGCAAAAUGAUAAGGGAGUGGCAGCUAAGC'
p964
aS'GGAACAGGAUAAGGGGCUGACAGUACCGCUCAAGGUGGGUAACGCAUACGAAGAUUCCAGUUCCCGAGGGGUCCCAUACCAACGGAGAAAGAUUAUCUCA'
p965
aS'CCAUCGCGUCCUAAAUCACCGGGCUUAAACAAGGGAAUCCAACUGUAGCAAGUUGACUGCACGAUGAGACGAACAAACAACGAAGCGCAGUGUAGCACAU'
p966
aS'GCGGUGUCUAAGCUGACAGAAGUAGUGUCGUACGCGGUAUCGCCCCCUUAGAAGCGUGUGAUACAAGCGCACGGUCGCAGCCGCUACUAGUAGCGUGAUC'
p967
aS'AAGACAAUCACGUGGUCGCGUCACCUGCUGGCGUCUCCGCGUACUUUGUCAGAAACACGGCAUAUCUCUUAUCCUUGCGGCAACCUCGCAUGCCAUACGA'
p968
aS'UCAAAGGGCCGGGUCUGAGAUUUUGCCCCUCGUCGGGUACGGACGAGUCAUACUGCGAAUCCCGUUACCUCGAACUCUAACGUCUCGGUUACGGUCCGUU'
p969
aS'GGCAACGCGUGAUUCUAAGGCCGUAGGAGCGGUAUAUCUCGGCAGAGGGGCCUUUUAUUAGGUGUACACGCGCGUGUCUUUUGCCCGUGUAUGUUUAGUC'
p970
aS'GUGGGCUCACAGGUUCAAAGUCCAUGUCAAAUCAGGAAGGCGACCAAUUGGUCCCUCAACCAAAUCCCAACUUGUGCCAUAUAUUCACGGGGAAUACGGC'
p971
aS'GAUCUGUUUGCGAAAGGUCAUUGCGAAUGGAGGACAUGCAUCAAGUGCACUGCCUGUUUAAUAAAUAACCUGGGGAACCCUACGCCCCGAAUAACAAAAG'
p972
aS'AGUCGUCCGUAUCUCGCGAAAGGUACACCCUUUUCACGCCGCCCGGGACCCUAGCUGAUUGGGUACGCCCACUCUGAGGUAAUUAUUCCGGUUACCGACG'
p973
aS'UUAUCUCUCCCCGCAUGAAACAGCGAUAUAGCAGAGAAUGGGCGCUAUCAUUAGUGUCAGUGUACCACGGGAUGCCAUCAAGCAUCGAGUAUGCUUCAGA'
p974
aS'UUCACAGUUAACCUGUGUACAAUUCUUUGUGUUAGCGCAUAGGCCUACUCUCUUUCUGGUUGAUAGCCAGGUAGUUCGUCCUAUACCUUGUCGUUUUGGU'
p975
aS'GAACCCCCCGCACGAGAAUGCACCAUAAUUAGUCGGGGGCAUCUCAAAAGCCGUUAAAUUAUGCCAUUUCAUUUAGUCACAUUGGCGACUAAUGGACCUC'
p976
aS'UGGUCCCAUCUAGUGGAGUUCAGAGCCUUCUGGUGAGCAGUGGCGGAUCGAUAAUAUCGCAGCCCUCGCAGCUAGUUAGACCCGUACGCGGGUUGGUGGC'
p977
aS'GUCGUCGCCCCCUGCCUUCGGCUGUGAGACCUCAGCCUCGUUCCGGCUGUUCAUAGCCGAGGGUAGACUCAGCUUUCCGGACAUUCUGUUGUGUGGCGGG'
p978
aS'GUGAGCGACAACUAUCCAUUCUCUUUCUAUUGGUUCGAGCCGCUAAACACCUACUUAACACGGUGGCCUCAUUAUGUACACUGCAACCCACUCAUCUUCU'
p979
aS'UCAGUACCAUGCAAUGGCGUCGGAGGCGUAGCUCGUGUGAUCGUAGUCUCAGGCCAGAGAUUAUACAUCGCGACGGAAUAAUCCAAGUCACUGAAUGUCC'
p980
aS'UGUCGUCGUGUCUACAAAACUGUGGUCCACAUCACCUAAAGCUAACGCCUAAGGCAUGGCGGACAAGAUAGUGCAAGAAAAUCGUCACUAUAAGAGGAGG'
p981
aS'UCCAACCACAUAAACAGUAUCCCGAGCGGUGUAAAGCACGCUCGUAGGUGAGAGCGAUACCCAAAUCACGCAUGGAACCGGAUUAUUUCAAGAAUGAAGA'
p982
aS'AUUGAACGGUUUCACUCAACUAUUAACUAACUGGUACAUGCGUUAGAGAAUGGAUCCUGUUUCCUCCAAUCGGAGUGAACAAGCGAAGUGUCCCAUCGUG'
p983
aS'CUAGACGGUACUGCAGUCCCGCAUGUACCAGCACCAGAUAAACAGUCGAUCGUUGGGUAUUCCCAGGCCUAGUUGACCCGUUUAUGGCUACUAUAGAGUA'
p984
aS'UUGUUCCUUAUGAACUAGGUGAUUAAAUCCUUCCGGGGCCUACGGGGACCAGGGUAACCUCCUAUUAAGAUCCCUUUAGAGUGUGGUGGGGGGUGGACCG'
p985
aS'CUACCACAUUUCGCGUACGGAUGCGAACUGGCGAUACGAGGUAGAGUGAUUCAGAACCGCUGAUUUCAUUUACUCCACAGGUGACCUGUCAUAUUGUGUC'
p986
aS'CCGACCGGUGGGGAAUUGUCCUUGCUUGUAAUCCGGGUCUACAUUCUGCAUUCCUCGGCCAUUCAGCGGCAAAAGCACGACGGCGAUCCCCUCGUAGUUG'
p987
aS'GACCUACUACGUCAAGCCUAACGACACUGGUACAGGCCGGAAGCGCGCUGUUUCCUCCUCUGCUCUGAAGGAAGCCAGGCGACGUCUCAGAGUCGCGCGA'
p988
aS'GGUCAUUGUAGCCGGGCUCGUCAUAUCACAUUACCCUCAAGAGACAGGCUGGGAAGGUUGCAGCAAACGCUGUGUUAGGUCUUUGCGUAGUUCGGCACUA'
p989
aS'UAGACUAAAGUAAGCGAUUUUACUCCCGUAUGGGGUCUGAGGCGAAUUCGCCGCUAUCAUUACAAACAACGUUUUAUUGAGGAGUACACCAAGUCCGAAA'
p990
aS'GGGAAAGCUUCUCCAACCGUUUGCCCAUCAGCCCGAGUAUUCCGGUUCCUUAUUCAAGUCUGAUAGUUUAGAGGGGCUAUAGAGGCGGGGCGACGCAAGU'
p991
aS'AAAUUAAUUUCGCAGUAACUGUUCCUGCGGUUUCGCAGCAGUACCUGCAAUCGUCCCGUUCCAUCUACUAGUACCCGAAGUAGGUCUGAGCCGCUCACGG'
p992
aS'AGGGCACAGAUUCCCUGACUCGAAAGCACUCCACUUCAGAACGCACGCGAUCGUAACUGGAAUUCGAGGGCCCGACCUUGAGCGUAGAAAGAUGCAUCGG'
p993
aS'GGGUUGAUUUACUCUGGCGGCCAGAGGCCGACAGCUGCGCGCAUGACUAUUCAAUUGAAGCUGAUCUGCGGCCCGGUAGGCGUACUUACAGACGGAUUCU'
p994
aS'AGAGAUGUACUCUUCCUUCCUUACCAAUUAUUGUUAUACUCGACCGCGCCCUGAUAGAGAAUACGAGCCUGCACCGGGAAUGGCAUCAGAAUCUAAGUGC'
p995
aS'UAACUCCAAACUAGCUUCACCACGGUUCGAAUAAGAUGCCGGAUGGCUAAUGCGAGUCCCGACACAAAGCGGACCAUACCAAUAGUUAGCCUGUCACAAA'
p996
aS'UAAAAUCGUGAGGUGUACAGCGGGAGUGUUGUAGUGUUGGCGGGCUGUGUCCCGGUUUCUUAGGGCCCUUUGUGCAGUGAUCAACCUUUCAACGCCUUGU'
p997
aS'UUUUGAGUGCAGCGGGAGGGCCCGGUUUCACUGCUUACACACCUCCGGUGACGUGAACCCGUUCAGUGGAGUUGGAGAUGACAUGUACCAAGACGUCAAG'
p998
aS'GCUAUUCAAGUGUUUGUUAGCUCCUAUCCUUACGGCUUACUUCAGCGACCUUAAGGCGUGUCUGGCUAAGGAAGCGCACUGAAACGAUAACCGAACGGGC'
p999
aS'GGCCGCUUAAGCGACAAUAGUUCGAACCAUAAGGGGAUCUUCGACCUCGACGUUAUUUCAUUGAUUUUCCAUUCUGUAGGACUACUUCUGCGCGCAGGCC'
p1000
a.