(lp0
S'UUGUUCUUAACUGGAUGUUCUCCACGCUGGAAUUUUAAACGCAUCAGGUGUGAUCCGUGGAAUGACAGAAUUCCGGCCUGAGUUGCUGCUACGUUGGCUU'
p1
aS'CAAACCUACUGACCUUCAUGCCCAGAGCGUGUGUAAGUAAGUGCCCCAUUGGAUGACUAGGUCGCUCAUUGAAGUUAGGAAAAAAAUGUUACCGGCUCAC'
p2
aS'UAUAGAUACUCAAGUCAUGGCCAGAGACUCCACUAAACUCAGACACCGUGAGAAUUGGCAAUUUUACCUUCAGGCACUGGUGUAUCAUAUGAAUUAUCCG'
p3
aS'UGGCCGAAAUGACUUAUCAAGCUAGGCUGCUGAAACCUUGCCCACGUGCCACGAGUCUCAAUGCAGCGCUGCUUCGUAUCGUGAGAACUACCUCUGGCGA'
p4
aS'CAUGACAACAGUAACGUGUCGCAUGUUAGUAAGGGUCACGUAUAGACGGUGUCUCCAGAAGGGAAAUCGCUACCAGAAGAUAAACAAUCCGUCACCCUUU'
p5
aS'GCUUGGGUACAACGUGACAAUAAACGCGAUUAGUGACUUCGCGCGGGCAGCCCUGCCUUUUAAUACUACACUACCUUUUUUGUUUUUAUAGCCGCGUAGC'
p6
aS'UCUGUGGAUAUGGGCCCCCACGUAGCAUCUUCUAAGAGCGGACGUAAAGGAUGAAGUGGAACAUUAAUAGCGGUCCGCAUUCCCCAACUUUAUGCGCGCA'
p7
aS'UCGGGGGUGAUCAUCCUGCGGUCACUCUCGCGAGCCGUUCGGAAGUGGACUCUCGUCUUAUUCAUUGAAAGAAGAUGGAAAGUAUCUCAGGUCAUGUCCU'
p8
aS'UGCGUUGGAUGAUCCGCCCCGAGUGACAGGUGAUAUGGCUGGGACCUGACGUUUUCUAUAUUUCAUAAAGCAUAGUUUACCAUGGUACCGAAUGAGUUGU'
p9
aS'ACGUCGUCUAUUAGCCGUGAUCUUCCAAACAAAAAAUUGCCAAGGAGUUUGCUGGUGGAUAGAAUUGAUUACUUCAGGAUUCGGUAACCUCCUAAAUAGU'
p10
aS'CAACAAGCGCGGAGCGGGACCUGUCUGUAUGUACCCGAUGCCAUUAAAUCAUAGGUACCGUACGAGGACCUUGAGCAAGUUAUUCGUAUUAAGUCUCAAG'
p11
aS'GACCAACAGCACAUAGAAAGGGACACCCGAACACAUGUCAGACUGCUAUAGGUAAUCUAAGGAGCCCAACGGCAACCUCACUUCUGUUCGCAAUUACACA'
p12
aS'UAAAGCUAUCUGGAACUUCGCGAUUCACUGUCCCAUGUUUGGUACUGCCUGGUAGGAAAUCGUGCGUCCUGUAUCACGUGAGAGGGUCGUUACGUGGGCA'
p13
aS'AUUAGCAGCAUGAGCAGGCGAAAUUUACCGCACGCUUAGACUAUGAAAGUCGCUAUUAAGAUAACGAAUCAAAACUGCGUUUGCGCGUCGACUUGUCAGC'
p14
aS'ACUGAGUGUAUACCACUUGGGAAGGCUUCAACCAUUUCAGAUUUCAACUAGCGUAGGGACGGCCCCUUCUUUAAUCGCGAUGGAACCCGAGUCCGGCGUC'
p15
aS'CCGCGAUCUGGGACAGAAGAGCAGGUCGUGCGCCCUUAUAUCUGGGCGUCGCGCGAAGAGACUUAUACUUGGUCAUGAUCCGGCCGAACCAGCUACAUCA'
p16
aS'UCGUAGGCCCAUAACGAGUUAGUAUAGUCACCGCUCUAGAUUACCUUAUUGCCCAUCCGAGGAAAACUAAACCUCGACCGCCGUGUAUUCGUGGUAGCGA'
p17
aS'GUCGUGUCGAAGCCAGUUUCUAGACUAUGGAUACACUUAUCAGACUAGUAAAUUGGGGAGUACGGACAGCUUGAGAUCAAGGCCCCCUGAUAAUGUCAGC'
p18
aS'GGCUUCGGCGAACUCGAUCGAGAUAUCUCAGGCGCGCGGACGUGGUCGGUCACGUGUUUUUUGCUCGAUAUCCCCUCAAACUUAGAGAGGCGGCGAGAGC'
p19
aS'CGAUUGAGUCUUAUCAGUACCCGCGUGCAAUUCAUUAACCCCAGGGGUUCUACAGGCCUUUUAUUUGUACGCGUAUUCAUCUCGCCAUACUGGAAAGCGA'
p20
aS'CGUUGUGAUCGGCGAGAUCAGAACUAUUGAUUAGAACCGUUUAAAUUACGCAAUCAGACAGAUCUUCAGGUCAGCGUUUCGUUCAACCUAAAGGCGUGUA'
p21
aS'UAAGGCGGGCUCCCCGGGUUCGCGCCUUUAUACUCCGCCGUGGAGAGAGCGGCCGUGGCGACCCCUUCUACCGUCCUUGAUCAGCUCCGCUGUGUUAAGG'
p22
aS'GUGCGAGUAAUGGAUCCCUCUCCAAGCUGUCGGACGACCUAGGUUUACAGUCCCUGAGCUAGACUUCGGAUUCGAAAGGCAGUUCGUUUCAAUGUGCUUC'
p23
aS'CCUACGGUGUCGGCGUAACCACUAUCGGACAGUCGCGCUUCCAAGUUCCCUCGUGGCUUCGUUUGCAGCUCCAGAUGUUGGAGCUUCUCGUCACCGUACC'
p24
aS'AUGGACGUCGCCUAGGCCAUGCUCACAGGGACGUUCAAAAAAAACCACUUACACCGUAUAUGCAACACAGAAGAGCGCCUUUCUUACCACUGAUAUACUC'
p25
aS'CAGGUCGGACGAACACGGUACCCCGUCGGAGUACAAGAGUUCUGUACGUAGCGAAUACCGUCACCACGGCACGGAUCUGACAAAUCACGAAGUUUACGAU'
p26
aS'UCAUGAACUCAACGAUACAAGGACUAUCGACGGGGAUAGAAGAGGCCUAUGCAAUUUCGUCUCAGCGUCCUUCGAAUAUUCUACAGGUUUUAAUAUCGAG'
p27
aS'CAUAAACCCCCGAUCUUUUGAUGUGGCCACUGGGCAAUGAAAACAUGUGUCUUGCAUAACACCUACCCCCACUGUAUGCUGCUAGCCGCUCGUGCCGAAA'
p28
aS'AUUUACCUUCGGGUCUUAGGGGUCAUACUUUACGCCCAUGUAAGGGAACCGCUUGAGGGAUCGAAGGUCAAACGCUCUGGCUCUUCUACUAACUCACGUU'
p29
aS'GUGUGUAGUGCUAAGGUGCAGGCUUAACAAGGUCGGCUUUCAGCCUCGGCCGUUGAUGCGAUUUCCGCCAACGCCUCCUGGAUUAAAUUUAGUAUCUCAC'
p30
aS'GCACGACGGCUGAGCACGUGUUGCCCUUCGAAUUAGAAUUAUCGCGACAUGAUCACCGGAGCAUCGGUGAUGUGACAUCCGCCUUACACCACCCAAUAAU'
p31
aS'UGGUAGACCAGAUAGUCACAUUUGAUGCUGACUGACACAUCCAAAGGUUACGUCGUUUGAGAAAUCAUAUUCACGCUAACCAUGUAGAUUCACGUACAGA'
p32
aS'UUCUGAUACCUCAAUCGCCACUUACUUGUAACAGUAAAGUUGAACAGGAGCAGUGGAGACUUUUCACGUUCGCCUCUUCGGGACAGCUCGGGUACUGGCA'
p33
aS'ACCGGCCCGAUAGUAUGUUUUAAAUUACCGGCAUAGCCCGCCUGAAUCUCUCUCAAAAAUAACGAUGUACUCCCGACGAGCGGUGAUGUGAUCCACUAUU'
p34
aS'CACCUGAGUAAUCCGCACGCGCGAAAAAUAAACCUGCCCGUAUAUGUGUAAUGAUCGCCUACGGCAACAGGAUGUGCUGCUCUCGGUGCCCGUUAUUAUU'
p35
aS'CUUAAACUGUCUGGAAAGAGUCUACUGAAGCUGCCAUAUUCUAGCAUCCAUUCGUUGAACCCGCAUGGCGGGGUUGGCGUCGUCAGGUGGGUACGCAGAC'
p36
aS'GUGAUAGGGAUAAAUCCUCUGGUUGAUCCAAUUAGUAUGCGAACCAGUAGCUCGACAGAGCUAACCACUCGCGCUCGCCCUCCUAUAAUGUACAUUUCUC'
p37
aS'UAACCUUGACAUAGCCACCUCCUUGAUGCGUCCGCCUGGCAAAGCCCCGGAUCACGGGCCUAUGGAGUCGCUCGACGCUAUUUAAGCCGAUGUAAGUUAA'
p38
aS'CAGCGUAAUUUGAGGCGGAAUUAUCGUAAUGACCGCACAUGCAUGGUUGUGCGAACGAGCUUUGUUGUUUUAGUAAGCUGCCGUUUCAGUUAAUGGGAAG'
p39
aS'AUGCCGCGAUUUGGUUUAAUCCCGAUGAACCCUUGCCUGGUGGAGGAGUCUUUUUCCUCUUUGUAACCAUCCAAGGAAGCAUACAGGAGAAAGGUGCAGU'
p40
aS'CACGCUUAUGAGGCUUUACAGCCAAAAGACUCAAUGACUAUGGUUUGGAGUCUCUUGUCGAAUGAACACUUACAUGCCCAGUCGUCCAUGCGCAUACUCU'
p41
aS'GACGCCUUCGGCCUCUUAAUCUGGGGUAAGAUAGUCGCGGAGACGUUGGGCGCAGCGAAUAGGUUGAGCCUAGGAGCAGGACCCGGAUCGGUGUGAAAGA'
p42
aS'UGAGUAAAAGAAGACGUACUGCAUUACCACUAAAUCGGGCGUUCCAGUGUGGGAACUUAGACCAUCAGACUUUGUCUCUGUAAUCACUUAGCCGUCCUUC'
p43
aS'UGCAAAACAAAUUAAAUGACAGAACCUGAUUAUUUAGAGCGGCCGUCGACCGAAUGGCUAUUUACGUGUCCCUAGCGUACCUUGCUGUAAUGUGCGCUAA'
p44
aS'AACUAGUCACCCCCGGAGCUCAUUGACACUACUCUUAGAAUUUAUAUGUCGAAGUAAAUGAAAAGAGGUGGCUCACUGUACUGUGUGACAUAGCACCUCG'
p45
aS'AGUGGCCCCUCAUGUUCGGCUAUACCUAUUUUGAUAUAUAAAUUCAUCACCUCGUCGGUGCUUCGUCCCGCCGAGCAGGACAGAGGGUCUUACCUAUUAC'
p46
aS'UGCCUGAACGAUACGUCCAGCGGUUUGCCGCUUGCAGCGCUAUCACCUAGCCCCAAGGCACCGUCAAGCCGGAAAGAAUCUACCGCCAGAAUAGUGCAGC'
p47
aS'AUAAUUUCGUACGGGGUAGGGAUAAUGGAGGCCAGACACACUGGACUUGGGGUCAUACUAAAUCUAAACCCUUGUAGCUCUCAACCAACGAUUACCAUCC'
p48
aS'CAUUCACAAACGCCAAGCGUCGGUUGAGCUACCGAGCUACGCGCAGGGUCGGUAAUGAUGCUGGGUAAGCUUAUCCUGGACAACUGACGCAAGGGUUGGG'
p49
aS'GAGACAUCCUUGGUGAUAACUGUUGCUUUCCAGACUAUGGCUCAUAAGCCUUCGUCCCUCAGGUGUCAAAGCAUUAAAGCUAUCGUUCGUAGCACUUGCC'
p50
aS'CAACUACUCUAUACGAAUGGUCGUUAGGCGAAUACCUGAAUAGUACUUCCAGGGGGAGAAUCGGACGCCAAAGGGUCGUCCCUCAAGAAAGGAACGGCUC'
p51
aS'AAUCCCCGUUUGGAUAGGCUUAUGACCACGUUAAGCGCCGCCUACAGUACUAACUACGCCAUCAUUCGGGUAACGGAACAAGAGUAGUCCAAUCUAGAUA'
p52
aS'UCACACACCCCGUACAUAGCAAGUCCUACUAAAACAGUGGCGUACUUACAUGGUUGGUAAGUGUUGAGAGACGCAGUUUCACUUUCGGAAUUGUGUAGUC'
p53
aS'AUGUCGCUCAGCCAGGUCGUAACAACUAUGAGUAAAUUGUAGCAGGUGGGUUUGAAACGCGGCCAUUGCUUAUGGUAUCGCAGUGCACAGCCGCAUCUGG'
p54
aS'GAAAAUCGCGUCACGAGCGAUCAUAGGCUUAGGAAUAGCACGGUGAAAGUAACCUAACACUUCUAUGCACUAUUACUCACCACGGCAAGAGGUCUAUAGG'
p55
aS'UCUCGGAACGACUCAGGGCAUUCAAGGACGGCCAGAUUGCACUUUUUCUUGUUACUCCUCUGGGUGUGAAAUUGGACGGAAAGCGAAGGGGUGGAUCGUA'
p56
aS'UUCGUCUUAAUGAAUGGAUAUGAUCCGCUCCGCUGGAGAAGCUUGGGACUAAUCAGAGCUCCUUCGUGUUUCAAGACACUCGAUUUUAGUAUAUCUUGUU'
p57
aS'GAGUUUUUCAAUAGAAAGGAGCACCCUGCCCGCUGCGUCCUCUACGUGCAAGCUAUUCGGACAGUGUGCGGAAUCUUGUGGUUUUAGAAGAAGCAUCAUA'
p58
aS'ACACCAAUCAUACCUUCGACCGCAGCCCUGGCAGACAGGUGGUGAUGUGCUUGCGUGCAGUAUAGCUGAAGAUGGCGCACCAGUCUUAUGGCUUUCGCGA'
p59
aS'GCUAAACGGCUUCAUAUUGUAUUAGGUCCACUGGAGGCGUGCGGGAAUGCUUCGACUAAUUCUGGUUUGAUUUGCUCGCGUCUAGUCCAUCCCCGCCUAC'
p60
aS'GUGCUUAGCUUGCGCGUAAAGUGCACCUGGCAUCUCCAGCCACUACGUGUUAGUACCUGCCAAAGACCAUCGGGAGCAUGUAGAUAUGCUUGUAUACGCU'
p61
aS'GUCCAGCUGAUUAAAAACUGACUUCAUAGUAAUAACGAGCAUCCGAGGGCGCACCUGUGGACUCCUUUAGGGUGGCAGUGGUACGGAUACCGCUGUCAUC'
p62
aS'CUACAUAUCAGGGCUAACCGAGCUCCCCAUCGACCAAAACGAGUUUGCUGGCGAUAGGCUCGCAAGGCCCCUCCAAUCAUGCAUCUGACCCUAGGAUCGU'
p63
aS'CCGCAUGUCAGUCUAAGACCGGAACAUUACAGUCUUCUCACUGGGCCGACCGCCUGACUAUCCUCCGUUCUUUUAUAACACUCAGUUCACUGGUAUACAG'
p64
aS'CACGAGUAUGUAGGUAAUACAUGAAAAGCGCGAUUGUCCCGGGGCUCUAUGAUAUUAAAGGGGGUAUUGUCCCGCUUAGUGUGGAUUUGUUGGAAAGGUA'
p65
aS'GGAAGCCACUCCAUGCCUUAGAGUCCGGACGAUGGACUAUUGAAGCGCAUGUGGAUGCUUGUUACUGUUUGACCUAGUACUAGUGUUCUCUGUGUCCCGC'
p66
aS'UUCCGCUAAGAAAAUCAGCACAUGGCCAUAAUGGUGGCAACUCACAAAGCCUGUCUUUGCGUAAGCCCAUGUAAGCGCGGUUCGACUUGGGGGCCUGGCU'
p67
aS'CUUUUUUAACACGCGAGAACUUCUCUAACGUAUACCAGGGGCACGUCUAUUUCUUAUAUGUUGCACUGAUGCCCUUAUCUAUUAAUCGGGAAUAGACAGC'
p68
aS'GGCGAAACAACAAAGCUCACGGGUCAACCAAGCUUCAAGUCACUCAGGUGUCUCAAGAACUUACCUACAGAUGUAAAAGUACAAUCCGACAAAUACCACU'
p69
aS'AUAGGUGGAAGAUCAGAAGUGACGCCCUGACAGGCUAGGCGGAGUAGCUUCAAUGCUACGUGGUGCUUCUCGGGGUCUGCUGCGCAUAUCUAGAUAGCCG'
p70
aS'UAGUCUCGUGGCGAGCCUGGCUUCAGUCUCUGAGCAAGCGCGCGACCGUAUCUCGGCAUGUUUGAGAGGGCUUUUGAGUUAUAAUAAUUCUCACUUAUCG'
p71
aS'AAAAAGUAGUUAGCGCGUCGCAAUUUCCGGACUGAAACCCAGAAUCGAAUCAACCUGACGUACCAUCCGGCUGCAACUAGGGUCCGACAUUGGAUACAAC'
p72
aS'UAGGUGCUGGUAAUGUUGCUUCGAUAUCAGAUCUCUGCGAAAAGAUGAUGCCAAUUCCGGGGACUGGCAAGUCGGUCACUUAUCCGAUGUUAGCCAAUAC'
p73
aS'CACAGACGUCACGAGCUGAGUCCGGGGUAAAAGCGCUAAUCGUCCCAAUACUCUAGUCUGGCUCACUCUCCGGCUAACCUCAUGUAUGGUGACGCUUAGC'
p74
aS'AGGUGAUAAUUUGGCCAUUAUGUGACGGGGCUCUCGAAAUGUGUGAUGCGCUUGUCGGACCAAGGGGCGGCUCGUCAAAUGAAUAUUUGUACACGACAGU'
p75
aS'UAGCGGGCCGGGGAGGAAAUGAGUAUCAAGUAAUCCUUGUAACGGCAUGGGUAGCGACUUUGCUUAUUUGCCUCGGGGCUCUCCCUCUUAAGACGCAGUG'
p76
aS'GCGCGGUCCCUGAGUGCUCGGGGUAACCAGCCGCCGCAGCCGGAGAAGUUCAUUAGAACCUAAACCGUUCGGCCCUGGAUGGCCCGGGCCUUGUGGGCUA'
p77
aS'UCUGAGCGUGUGUUACAGCCCAACAUAGGACUGCAACAACGAUUUUCGAGAACACCUACACAACCGAAGGAGCCGGUUCAAGCCGCGGCUUAGGCUACCC'
p78
aS'ACUACGCGCAGGCUUGGUACGACAGAAAUAGCCCAGGCCUUAUUUUCCAUCCACAAACCCGUGUUUUUUCAGGAGUUACCUAGGCAGGGCGCAUGGUUUA'
p79
aS'GGAAGCGCCGCGAGACAUGCGAGGGAGCUUAGCAGGUUUCUCUUGGAACCAAAUCUGUUCCGAAUGGGCUCUCUUUAUUUACCUCAUGUACUGGGGUCGC'
p80
aS'GCGUCCUUCCUGGGAGCCCUUAUCGGACAGUGAAUCCAAAAGGUGCCGAGUUAGGUUAAUCUGUUUGGGUGCGAAGAGAGUAUAGUGCCUUACCCAGGGC'
p81
aS'CGCUCUGUACCUGGAUCUUGGCAGUGGUAUAAGACUCACAACAGCAGUUUAGUCCUAGGACUCUGAUGAAUUUCUGCUGCUCUUGUCCACGGAAUAUUGA'
p82
aS'AUUAAUGUCGCUGAAACGUAGUAUAAAUAACCUUGGGAUUAGCUGUAAUCGGGGACGGCCCCCAGUUGGGUUAAAUUCUCAUAACCUAGUGUGGGUGUUC'
p83
aS'AGAGGUUAUGGAACGGGUAUGUUAGGCUCCGUAGGCUCCGAAGAGGAUAUCAAGCAUACCUAUCUGCCCAACUGGUCUUCAGGACCACCUCCUUCAUUCC'
p84
aS'UCUGUUUGCGAUCUCUCGAAUGUGGCGUGGUUAACAUAGCCGGGCGCCUGUGACGACGAGUUAGUUAGGAGUACUGGGGCAUCUGAGGUAAUCUGGUUCA'
p85
aS'CGGUUAGGAAGCCGCACCUAUUCACUAGAAUCAGUACAUACGCAUCUCGACCUCGUCCGUUUACAAUGUGUGGUCGUUCAAAUCCCCAACAGUCCGUUAG'
p86
aS'ACAUUAACAUUGUCCUCUCCGUGGGGACUCACACAUUUAACUUGCCCUAGAGGUCAAUGCCGGUUAAGCCUUCAAUCGUUAGACGACGGUUCUCUCGUUU'
p87
aS'AGGCCUACACGGAGUCUCCGAGCGGCCUGAAGCAUGUCGCUGCUAAGGCGAUCUAUUCCUGCCGAUGGACAUUGGUACAGACACGCCCUUCAUCUGGUUA'
p88
aS'GAUCCUCGAACUUGCCAGCGAGUAGCGCCUGCCGGUAGACCGUCUCUAUCUACCCGUAAGUUUCUCGCAGGAACUUUCAUAACGCCGGUUCCUCUAGUAG'
p89
aS'GCUACAUUCCUGGAGUCUAAGUGCACUACUCGGUCUCGCACUCCGAGGUAGCUCCUGCAACGACCGACCACGUUGUCAUAGGAAGAAGGUCGUUCGGAUA'
p90
aS'GCUGACUAAGAGUUCGUAAUGGGCGCUAGAAUAAUCGGGCCAUUGAGCCCAACGACUGUCCUGCAGUUAUACUCCCCUCCCCCAGGGCGCCCUCGCAAGC'
p91
aS'GGCACGGAACAUGUUGGGUGGUGGGCGGUACCCCCCCUUCCCAUAGUUGCGAAAGCGAAGGAUUUGGCCUUAAGCAACUCUCUUAGCCUCGCCUGAUCCG'
p92
aS'AACAGGAGAUUCCGGUGCAUGUGCGCAGGUUCAUGCCACGCCCUUCGAUACUCGGUGGGUACGCAUCCGCAAUGGAAUUCGAAUUACGCUCUACACCACC'
p93
aS'CUAUGGGAACUUGACCUGUGCUCGUCGGUGCUUUCAUGCAACCACCCCACGCCACCCAUGUCAUGAAUCGCCAGCCUCCGGAUUCGGACACGUCCAGUUU'
p94
aS'AUGUAGGCACUCGUGGAGGCAGUUUUUAUGGACCCAGAGAACGCAUUCUAAGUCCAAUUCUAGAUUCGAGCCUCUUCUUAUAACCCUUCGGCGUAAAUCA'
p95
aS'UCGACAGCAUGCAUUCCCGAUUCGGGGUGUUCCUUGCUUUUGUGGGUGGUAUAAUGAGAGUACAGUUUGCUAAAUCGAGGCCAGGACAUCUAGCAGCUAG'
p96
aS'AGGAUAUACCAAUGCUGGUACACUGCCGCGCUGUAAGAUCCCGCGCUACGCGGAUAUUCACGUCCAUGACUUAGCCAACCGCUGGCGAUGAUUUCUCGAG'
p97
aS'CUCACCUGCCCUUGGAUAUGUCGCAGCCAAUUCCCAAUGGAAGUCAGACACACCCUGGGGAGCAUUCGACGCUGAUCCAAACGCCACCUGAGGGUCGGGA'
p98
aS'GACGGGGCCGAUCGUCCAUAAUAAGUCUCGCAAGUCCGCUAAGAAAACACUAAGUUCGUUGAGCACGGUCCGUCCAGUGCGAAGUGAUAUUUAGCUGGGG'
p99
aS'GCUCCUUGGCCACGGUCAGCAAGAUGUCGACGGACCAACACUCGAAUUAACACCGCAUCUCCGAAUUGUUUAAUUUAUGCAAAUGAUCCUGUCUGCUAGA'
p100
aS'UAAAUCGGGCCCGCUUGGAUUCCCGACAGACGGCAACUUAAGACGAUCAGGGACGACACUAAGCACAUCUGGGGGGAUAACCAUUGCCAGUUCGCUGGUA'
p101
aS'CCACGGCAACUCCCCAGCUUACAAGGACCGGUGUAUAGCUGCACACAUCAGCUUCAGGAGAUCUUCAGGUCAUGUUCUUGACACCGUAUGCAACGUGGGG'
p102
aS'AAGUUUGCUCCUUAAGUAUAUCAAACCAGGAGUAUGUACUCGGAGUGCCGCGUUACAAGUUCGAGAUCCGCUCUGGAACCUUUACGAAAGUCUACGCCAU'
p103
aS'UUAUAAGGGUUUGGUGCGAUUAAAUAGUAUCCGCAGAAGCAAUAUACGUAGAGGUACACUGAAGGCGGUUAGGGGCUUGACGUCACUCCCGUUAUUCCGG'
p104
aS'CCCAGGAUACCAAACCAGGCAAGAUCUCUCCGAUCACAUAUGAUAGCCAAACCCGCACGCUGCAUCAUCAAACUCCAAGAGGGAGCAUGGCGCAAUCCUG'
p105
aS'AAAUAACCCGACAAUCCGGUCCUCUCUUGGUGAAGAUGUAGAUCAUUAGCAUCGGCGCGACAGCGGUAUGUCCGAGGAUCUCAGCCGCAGGGGUUACGGA'
p106
aS'GUACAUGUCCAGGGGCCUUUGCCUUCGGAAAAUCCUCGCGCAGCAGCUUACGGGACGGCGUUAACAACACGGCCAACUGGCAGAUCGAACGUCCUUGGGG'
p107
aS'GUCUACGUCCCCCCGAUUCUUUUUCUCGCAGCGUAUCGCACCAGAAUCUAUUCAAUUCGGGGAACCUAACGGUAUUCAUUCCAAUCGAGCACAGGGAUCC'
p108
aS'AAUGGCAUCUCGGAAACAUACCAGUACCACCUCCGCGAAAAAAGUAAUAUUCACCUGAGGUCGUAAAUAGUUUAAGGAGACCCCCGCCCGUAGAAGUUGA'
p109
aS'GAGAAACGUAAGGGACAGAACUAUCCGAAGCUGGGCCCAAUUUCACGCUUCUUAUCAACCCUGGCCGGCGCCUAGCGUAAAUCGCAGCUAAAAACUCGCA'
p110
aS'UAAACUCUGUGGCUCCGAAGCACUCAAAAUCAUGAGGUUACCCAAGUAUGUCCCACAUUACCCGUAGAACCCCAUUGUCCUGUACGGUUGGUGUACCGAG'
p111
aS'CACCAAGGUGUCACAAGUUACUCAUGUGAAACUCUCAGUCACGAAUCUCGGCUCAGAUUUCUAAAAGUGGAGCAUGACAGUUAAGUGUGAAAGAGAGAUA'
p112
aS'ACUACUAUUGGGUUAAUCCCAGACUGUUAGGACAAAUGAGAUCCAAUCUUGUGGAUCAGGUGUCGUCGACGGUGAUGACACCCAUCGCCUGUUCACUGAG'
p113
aS'ACACAUUAGUUGUAGCGUUCGUGAGCACAUGAUGUCAGUCAUUUAAGCAAAUACUACAACGAGGGGGGACUCUGGGGACUUCCAGGAGUGAUUGAUACCA'
p114
aS'UGCGCACAAAUCGACGUUGCUGGUGUCCGGCUCUUCGCAGAGGGGUGGAGGCAGCUCUUCGCAAGCCCGCGAGCUGGGAGGAAUUAGCCAGUGGUAAUGU'
p115
aS'AGAAAGCUGUCCGAACUAGCCACCCCAACGCGAUGCACAAGACACGCCGAUUCUCUAUCCAUCGACAGUCGUGCCGGUAUUGCUUUACGUGCCGGAAGAA'
p116
aS'UCAGUUACCGUUAACGAUACGAAGUAAUAGUCACUGCGAGUCUCCAUGUCUGGUUCGAACACCACAAUCCGGUCAGAUCGGAUUAAGAGGUAUGUUUUCA'
p117
aS'ACUGAUAUGUGUGAUUUUAACAGUCUUAUUUCAGACGGGCCUCGACCUGUAUCUGGAUUGAACGGAUGCUAUCAAGCACCCAACUGCCCGCCCCUGUGGU'
p118
aS'CCUAUAAAGGUGCCCGAUGUGCCAUUCAAACAUCCUCACUGUUAGGUUAAGCUCGACACAUACUGACGCAGGGCUUUUAGCAAAGGCACGCUUGAUUAGA'
p119
aS'CGCCAUGGGCGGUGCGACAGUGAAGUCGGAUGAUCGGUUUCUGUUACAAUCCAUACACUGCCAUCGGAGGCCAACCGACGCGGGGGAUGAGAUGAAACUC'
p120
aS'CCUCCAGUCACCAACGUAUGGAGAAUAUAGGUCAUUUCAAAGAGUAGUUAUAUGGCUCGGGUGGCCAUGGGAACCCCUUACAUUGCGUCUGUUGUCCGCG'
p121
aS'CGCAAAUCGGAGAUCCUAGAUGUCUCCUUUGUAAGCAUAAACACCUAUUCACGUACUAAGGUAUACUGCUCGAGGCACAUUAUAACGACUGACAGGUCAA'
p122
aS'UUAUUCGACAGAGGUAGGUAUCCACUAAAUGGCCGGCGAGUGUGUGUACAUUGACCUAGAGAUGCUGUUGUUGAACCUCAGAACUUAUGCGGAGGAAUCG'
p123
aS'AGCCCAACCACAUUGGCAUCCUUCCCUAACUGGUCAAUAGGAAAUACGCUGAGGCGCGACCCCCUCAAAACCGCGAAUUUGGCUUUCUUAUGAGAGUUGU'
p124
aS'CGUCUGAAAUCACCCGCCAUUUGUGUAGGGGCCGCUGCUUUGACGUCCGGUGAUAAUAGGAUCCCCGGUUAGCCCUUAAGGCAGGGUUACCAUAAAGCGG'
p125
aS'UGCGUCCCACGUUAACAAAGCACCUCAACCAUGGACUCACAUCAAAAUUUCUGGCGUCGGAGUAGGCGGAGGAACGCAUCAUACAGGGAGCGGGGCCCAA'
p126
aS'UGUUCCGAUAAGUUCUCUAGCCUGACAAGUUUUUGAAGAGACCCGCGUUCCUCGGCCACCGAGCAGGUGAGUAAGUGUCUUGAAUGUGAAUGAGACCUGU'
p127
aS'GUUUGAAAUUAUGCGCUGUGGCUGGCCAUUCCAUUACUACCAGGACAGAUCAAAAGUUUUACAGCGCACCUUGCCUGGUUGGGAGCACCUAAGCCUGGUC'
p128
aS'AGUCCGGGACCAUCAUGCUCGGCGCCCGGAAUAGAAUGCUGUCGUUUGUUAGCGUAGAACAUGAUGGCCCCCCACUACUAACUAUAUACCCCAAUUGCAG'
p129
aS'UAAGUUCCAUACACUAUACUUGCAUCGAACUUGUUCUGUUGACCAUGCAGCACGUUAGCCAACUAGUAAUGCGACACGCGCUAUACGACCGUCAGUCCGC'
p130
aS'AUAUACCAUGAGCCGAACCAUCAUCUGUACGGCUCCGCACCUUUUGACAAUCAAUUUGGCCUGGCGGGGCCCGCCCUUGUGGCCGCAGCGCACUCAAAAU'
p131
aS'UUGGAUAUGGGGGGAUGCGUCCGUGAAGCGUUCAACCGGUCUCUCGGGAAUUCCAUGAAUCAUCUCGAAUAAACAAUCGGUCCCUUAUGAUUAGGACGAG'
p132
aS'UAACGUGCUCGCGUCAUCUGAGCGCAGAUGCCAAAUCCCCCCCCAGAACCCCCUAUUUCGCACCGAUUACUAACCCAUCACGCCUAGUGUUUUUAGGCGC'
p133
aS'CACGUCAAACUGGUAUCUUAUAUUGGGAGGUCCACAUAUGGCUGCCUGUCGAUCAGCGGGCCCUAUGAACGUAGGGCGGCUUAACAACUAGGGCGUCUAC'
p134
aS'CAGCCUUCAGCGGCCCUAAGAGGGCAAUCAGAGUCAAGUGAGCGUGAAUCUGGGGAUCGUCUCCAUGACAACGCGCGGUCACAGAGCUACGAAGUCUUCC'
p135
aS'UAGGUAGAUAAGGAGCAGGCCGGGGACGGCAGGACCAUGGAAACAUCCUAUCUGCUUGUAUACUACGGGCCAGAGUUCACGAGCAAACAAUAGAGGCAAA'
p136
aS'CCUCCAAGCUACUCACAGUUCAGUCCCUCAUUCGCUAAUACAACUGCAACCAGACGCACUAUGGUAGGAUGCAACUGAGUUGCCCAGGGACACAGUAGCA'
p137
aS'ACAGCAAUCUGGAAGUCAGCUAGUGUGGUUUUCCUAUUCAACUGUAGCAACAAUAUGCAUCUGAGUACAAGCCAUCAUUGGAGAAUAUCUUACUCGACAC'
p138
aS'GACUCCCUAGACGAUACCACAGACCAGCCCUCGUGUAUGAGUCUCACUCAGUCAUGUGAUUGCAGGUGGUGUACAGUAUUCUGCGUCGGUUGCUUACUCG'
p139
aS'CCAUUAGCUCUGACCGCCGGCGGACUGCGGAAAAGGAAAUUGGGCUUGGGGGCUUGUUUCCUCUAAGUACGCGAGAUUAUCUACCAGAAUUGACCGUCGG'
p140
aS'CGUCUGGAGCUCACGUACGACCCGCAUGGAUACUUGACCACACUACCCAGCGAUGUAUGUGUUGUGCAGUGGGGGCCCACAACGUCUAUGGCCUCGAGUG'
p141
aS'CGUGAUCUCUAAGUCCCGCACCUAUGUAGUGGAGCUGCUAAUUCGCAGUCAGCUGUCCCAGGUUUGGUAUACCGUUUGUGGAAUGAAACGAGACCCCGUA'
p142
aS'AUCUAUAUGUGAGUAGCCCCUCGGCUCUCGAUGGAAAUGCCGUUGGAUUCCUAUUCUGAGGCAACGAUGCUACCUAGCACCAGCUCAAAGGACUGUCCAG'
p143
aS'GCUGCAAUCAUCAUCGUCCAGUCUAUAACAAGCCCGGGUUGAAAAGGAUGGCAGCGCAAUAAAACCCAAUUCCGGUAGGAGGUGGUGGGUUGAAUAGAAG'
p144
aS'CCUCGAUUUCGUACAUAUCGAGGGCACCUUUUCAAUCGCAUCUCUUCGCGGUACGAGCUGUGCAAUAACAUGCCUUCGGGGACACUGGGACCGGGUUAGG'
p145
aS'CGCAUGACUGGAGGUAUCCGAUUGCCCUGUCCCAUACGACAUCCAGUCCUAUACCUACUCGUUUCCUGGAGGCUGGUCUGAUAGUUCCUCGAAGCUUGCC'
p146
aS'ACCUAUGGAUAGCAAGGAUACAUCAAAUGGCACAGGAGCAUUGUUCGACAGGUCCUUCAUUCGGACAAGCCCCCUCUUCGGCGGGAGCCCCCUCGCAACA'
p147
aS'AGUCCUGUUUUCGGAGGGCUGGUCCUUCAGCGUCCAUCCGACGCCGUGUCACAUCCGAUAUGACUCUUGUGCUUGUGGGGCAAAGCAGUAGAAGCAUCUA'
p148
aS'GGCUUGUCACAUCCCUGAAUGACUAGUACUCGCCGUGAAUACAAACCGACCUCAGUCACUGCAAUCGACUAGUGGGCAGUAUUCCCGGGUGCACAAACCU'
p149
aS'CGCUGCGGUCUCGUCAUACGCGUAUGGCUUCAGCUAGUCUGAUUCUAAAUCAGAAUGGCAUUGAGUUCAUUCUGAUAUAUUCAGGCCCAUUAUAGUAUGA'
p150
aS'CAUUGCAACCGCGGGCUAGCUGAGUCUGUUGCCAUAAAUGCCAGCCUGACAUCGCUAAAAUAUUGAACCUUAGUAUACCUCCGUGAACUUACAUGCUGUG'
p151
aS'GAGAUUGUUUUUUCCGGUGCUGACUUGUCCAUGUGUGCCGCUUAUGCAAGGCACGACCUGUCUUUUCAACAUCGACGUAUCCCCUUAUCACCCAUGGAGG'
p152
aS'GAAUCAAAGCUAGCACCAGGGGUCGUCAGAGUUAGACAUUUACACCCCCAGUGCUCGAUUGUUGUGACUGGCCAUGGCCCUAGGAGCCGAUUUACACGGC'
p153
aS'GAUUCCGUCAGCUCUUUGACCUGGGGUGCGUCGUGCGUGCGUUUCUAGGAUAUAUACUCUGAUAUGAUCCCUUAUCACAGGAGGAUGCUCGCCCAUGGAU'
p154
aS'AAACUGCCAUAGUACUGGCUGGAUGAAUACGUGACCUAGACAGCGUGAUAUAAGCCUUGAUUCAGCACGUGUAGACUCCACUUCACAACAGUAUAGCGCU'
p155
aS'ACGAUGGACAUGCGACCGACAACAGAAUACUAGUCAUCCAAGACUUCAGACCUGACCUGUGCAUGUACGCGGCUACUAGUUGAAAUACCAGCCUAUUACC'
p156
aS'UCGUCGGCAGUAGCUAAGUAUCACUGGGGAAGAUCAAUAUAUACCGACCUAUUCACAUCGACACCACUAUGGGGAUUUACGUGAUGGGACUUACGCGUUA'
p157
aS'UAACGGGUGUAUAUAAGACCCGCACGCGAUUGGGCCAAUGGCCAAUCGCGAAAGGAGAUUUGGCUGUUUCACGCGAAGCGCAGGGCCUCGCGAAUUACCA'
p158
aS'GGAGGUACGAGGACGUUGUAACACCUUGUAAGCAUAAGCCUUGCGAUAGGUCAUUGUCUAAGGAGCUAUAAGACUGUUUAGGAGCAGUAUUUAAUCACAC'
p159
aS'UGUCACGACAUCUUAUACAUCGAUCAUCUAGUCGGUCGGGAGCCCAACUCGUUAUGUUUUGGCUGAACGCUUCGAUAGCGUUCCUUAGCAUCUGGAUCCA'
p160
aS'CUAUUGGUAUUUGUUCCGAAAGGUCGCGGUGAAGGAGAUGGCUUAGACGUUGAAGGGAACACCAGGGCGAGAAUAACUCUAUUCCCGAACGUUCGCGGGG'
p161
aS'GAUCGCCACUGGGCGACAACAAUAGUAGGGGCCACUUAUGUUAGUAAGUCCUAUUAAUCCCUUGGCACGAAGAGUUUACUACUGAUCGUGGGCGUACGUG'
p162
aS'CCUUCCCCUUACCAUGAGCCAAGCAGCGUAAUUAUAUGCUCAAAGGAACAGCAUGUCUGCCGGAUACCCUGCUCUGGAGGUGGGUGAAACUUGUCAGCUC'
p163
aS'UUCACUUAACCAUAGUCCCAGACCCAGGCUAAAGCCUCCACGUAGACAUCUCUGACCAGCUCGCUGGCAUAGUGUGGAAGUAACAUCCAUUGUUCUUCGU'
p164
aS'GAAUGGGUUGCGUGUCGAGAGUGCUAUGGGUGUCUAUAACGAAAACCUCCAUUCCGGAAAAUGGAACAGCUACUCCCCGAUAACAGGGAUACACCGUUUA'
p165
aS'AUCAGCCCUGGGCCGCCGCAUCUUGCCAGGUGCUUAGUCGCCGCGACCUUUAAGGUAUUUUGUGGGCCGCGUUCAUCGAACCUGGCAUGUGAGCGGGAAG'
p166
aS'UGGGUGGCGCCCUGCUCCUCCGCGAUCACUGGUUGCUCCGGCAACAGACGUGCCUUACCGUAAGGAUUCCCGUAAAGGGUCCAAGUGUGGGCCUUUUUAU'
p167
aS'CAGGUCCAUAUAGCUGUGGAGCGUUUGGCGCUGGAUAAUGAGCCUGUUUAGCCUCGGUCCCCUCUUAGGAGGUAACCGAUGUAGAUCUACCAUGCGCUGU'
p168
aS'GAUGCACUGUCGAUAGCGUCAGUGAUAGGGCGAACGCUGCAUUACCUUUAAUAACCCGCCUAGCGUGUAUAUUGGUCCAGCCGAGAUAAACUUCAAAUUU'
p169
aS'GGCAGGUGUUGCUGUCAGAGAGAUUAAUUCUACCAAGCCAGAUGGCCCGUCUCUAUCGGUGCGGUGUUAUCGUUUGCUGCAUGCUGUGAAGGGCUACGUG'
p170
aS'CCGGCAGUGAGGCAUCUUUGCCGGGGACCUCUGUUGUCUUCAGUACUUUACCGCAGCGAUGAUGGACGCCACGAUUGUAAUUGGAUUAUAAGAUGUCCAA'
p171
aS'UUAUCGUCCAGGGUUCGCCACUUCAACACCGGCCAUACGUUAAUAGCGAUAACAUAAGAUAUCGGAGACUCUCACGUGAGAUAACCGUCUCAGGGUUAUC'
p172
aS'UCAUGUUGGACCUGGUGGGGGCGGUAGUGGGCGGUAGCCUAUUUAGGGGUGAGUUAAACCAGUAUUAGGAGGAUCUACACAUACCAUGCGGCAUCGCUCA'
p173
aS'UAAACUGAAUUGCUGGCUAGGAUACAUCAGGACCUCAGAUAUAUUGUAACGAAGAUCUUAACCAAUAGACAAAAGUACACCUACCUGCGAUCUGGUCGGA'
p174
aS'GGCACGGCGUUAAGAGCUGAUUGCACUUUCUGUGCUGAUAACGUCGGCAAUUGUGAAAGCAUCAAAGUUAGGUCUAUCAACAGUUUCUUUUACUUCGCCC'
p175
aS'CAGAUCAGGGUACCGUGUCUGCCAGUACACGACCAUGGUUCACGGCGUUCCGCGAGGAGGAAACAUGGUGUCUAGCGACAACCCAAACUCUGACGGAGCU'
p176
aS'GGAUUAAAAGCACGUAACCGCCUGUCCCGUCGACGGUCACGAGGCCUCCGACACGUUGGUCAUAGGACCUAGAACGGAUGGAUAACUUUUCGGAAAAGUC'
p177
aS'GCCACUCGGAGUGGCGUAUACAUCUUGACAUAUCUAUCUUUCCAUGAAUGGAGUCGCAAGAUUAUAGUCUUCAUCAGGGGGUGUCUUGUAGUGUCAGGUU'
p178
aS'UUUCCGGCUAGCAACGUCACAAGCUUGAAAGCCGGAGGGCCCCCGUUGCCCUGUGUUUCUGGACACCGGCGAAAAUGGUGCCGUGCCGAAGAAAUCCCUU'
p179
aS'UAGUUGAAUAGGUACUACCGCGGGAUAGCUCACUCAACAAUUUCGCCCUAGCGCGAGUUUGGGUAGUGCCUUCGUAUGUAGAGAUCUAUUCAAACGUUAU'
p180
aS'GGCCACUGAUUAGCUUUUAAAUCUGCGACUUUCCCGAGCGACUGGAGCCUAUCAAAGCUCUCUAGAUGCAAGGUGCCCUGCGGUCGAGGGUUAUGUUGGC'
p181
aS'UGUUGCGCUGGCCUCGGUGCAAAAGGCGUAUAAGGCAAUAGGUCCGUUCGUUAGAACGUCCGCAGCUUUCUGCACUAUGUUUUGCUCACCCAGCCGCCAG'
p182
aS'GGCUUUUCGGAUCGACAUUAGUUCGUCUCACCCGUCAUACCGUUGGUGAACGUGUGUGGGUACUUUGUCUGCUCCAUCUGCACGUUUACUACGUGUCGUG'
p183
aS'UUGGUAUGCCCCUAGGAUUAAUGUCUUUGUAGUCGCUGACUGCUGGGAAUGUAAUCGGAGCGGGGGUACACUUUAUUGGUACGGGUGAAUGAUCCUAAAU'
p184
aS'UGUGUUGCUCCACAGCAUUCACAUACAGCUAGACAACUACGGUAGUAGACGGUAAGGUCCCAGUAUCGGAAAGGGAUUUGUAAUUUCGUCGUGAAGUAAU'
p185
aS'AUUUUAUGGCAAUAAGUCACACCGCGGCCAUCGUGCCACGCCGUUAGAUUCUUAGAGAAGACUAGUGAACUGUAUCAAAGUAUCGCCUUCUGUCCACGUG'
p186
aS'UCACUGCAUAGUUCGUCAAGUUUAUCGUAGAGGUUUGGUAUUCUAUUAUGUCUCAGCCGCGUAUCAGAUAGUGCAACGGAAGACUAAUGCGUUCCUCACC'
p187
aS'CCUUCAGUGGAACCAUGUUGCUAGUUGUCCGCACGAGAGUGUGACUGAAGCCAGUUUUGCCCCUGCACCCCUCAUGGAGUCAUUGUUUUUCACCCUUAUC'
p188
aS'ACGGCCCAAAAACUAGUAUUGGAUCUACGAGACGGAUCACUACUUGUCUGUGGGGAUCGGCUCCGGUGACUAAUGGUGGACUUUUAUGCGUUUCCCCGAC'
p189
aS'UUCAAACACGUAUGAGAAUUCUCGGCUCAAAGGAGAGACGAUGUACAGGGCAUUUCCUCAAACAGCUUCUGCGUCGGCGCAGUACUUUCUACUUCCCCAG'
p190
aS'GGAGUCUCAGAACUGCUCAUAAUUCCCCAAUGCUCUCAGCCUCGAGGUGCCAGUCUAGCGUGCCUAUGCUUCGCGUCUGUGCUAAAAGCUUACGCCUCCU'
p191
aS'UGGGUAACGAAAUUAGAGGAGGAAAGUUGAAAUGCCUCUCAUCUUCGUCUGCUGAGAUUGCAGCGAGCACAUAGCAGAUCCAGCCGAUGUAGUGACGACU'
p192
aS'GGCUUCGGUCGAGCAGGCUAGAUGCAUAAUUACGCAUCUUACCAGUCAGAUCAGUGACUAGAGAUCUGUAACCUCCUAAUGAUAUCGAGAAGUUAAGACC'
p193
aS'ACCACCUUAAAAAAACUGAAGUGGUGAAGACAGCCAACCCGCAUAAUAGAAUCAACUUGUUUGCACGGGGGGACACAUUGUAUACCAGCAAACAAGCGGC'
p194
aS'UUCAAGUCUUAGGGCGCUCUUAGCGACCGCCAGGAGUCCCACAUAGAUAGCUCGCCGCCUCGUCAGAAUCGGACGCGAUGCAAUCGCCCCAGUGUUUCCA'
p195
aS'GCAUCGAGUCCCGAAAGCUACUCGAUGUGCGAUUCAUGUCUCAACAAUGGUGAGUCCUGUGCCAAAGUUGAGAAAGCUGUAAUAAAGAAUGUAUAACUAC'
p196
aS'CUCGACACGCGGAAUCUACGGUGAGGAACGGAUCCUUAGUAUAUCAAAAUAAACCAAAGGUGCAAUUCAUACGCAUUCCUUCAAUUCACACGGUAUACAA'
p197
aS'CAAGUUGGCAGGCCAUGGCUCCGAACCGAUACUAUUUGGCUACCGGUUAAACGUCCAUCAAGUGUCUGAAGACGUGUAAGCCGAGGGAGUCGGCAACUAU'
p198
aS'UUUAAGCGCGAUCCUGGCACGCCUAGGCUGAGGCCUGUUAGUAUAGCGAUCAGAAUCGGGGACGUUACCGCUAACACCAUAUACUCCAAGAUUUGGAAUC'
p199
aS'GUGCCUGACAUUUGAAUUCCACGCCAUCAGGAUACGCUCGUGAGAGGUGCAUCACAGGCUAGGGAUAAAAACCAGUACCAUAACCAUAUGGAUAGGCUGU'
p200
aS'AGUUCCAGCGAUUUGCGACACCUUUGCUGCUGUAGAGCUACGUCUAGCGCAUUGUACUUCCGUGCGCCUACCAUGAGCGGCUCCCUUCAAGGCGCCCAUA'
p201
aS'AGUUUACUAAAUGUGGUGGUAUGCGCGACAUUCCAGUCAUAAGAAGCUCGUCCGAUGGUGGUCAUGCGGACUACCCGUCCUACUGCGUCGUACCGGGUCA'
p202
aS'UAAUCCAGCUGCUGACUUUUGUACGCGAGCGUAAGUACGUUCCACGGGGACUACUGCGGUCUAUCAAUCUCAUUCCAAAAGCUUUCCAACAGCCGCUAUA'
p203
aS'AUAGUAAAAUUAUUGGGUUCACUUGACUAAUAAAGACUGGGUGAACACGCACGCGGGUAACACGUACCCUCCCCCCCCACUAACAUCAGAACGCAGCGGG'
p204
aS'AGGCAUAAAGAUAAAGCGCUGAUGGCAAGCAAUAGGUGUGGUUCAAUGGACAUGGACAGAUGGUAGACUAUUGAUCCAUGUAUAAGGUCUCCAAGGAGUU'
p205
aS'ACUUUACCCGAGGACAUGCCUCCCGUUCAGUCGAGGUGAGUAAGUUAGGCGGCUCGGAGCCAUCCUUGAUCCUGCUCGACGGAGCGGUCAAUGUUGAAGG'
p206
aS'AGUGGGUUUAGUGCCACAUCUUCAGGGGCGCUACUCAUUCGGGCGAUUCAGACAAGUGUGAAUUGCGAAUAGGUUGUGACAGUCGCUUCAAAUUAAGAGG'
p207
aS'CCUAAAAGACGAAGCCUAAAGAAUAUGAAUCUUCAUCCAUUCGGCCUCACGGUAAAAAGCCCUCUACACAACCGGGUGUUCGUGGACAGUUUGUUUACUA'
p208
aS'CCAGGUCAGGCGGAUCUACAGGAUAUGCGUAGAGCAGAGAGGUGCCGCAUACAGCGAUAUUCCCGACUUGGAAUGUAGGUACAUCAUCGAUCCUAUUGGU'
p209
aS'AAAGUAUGGAGGAGGCUGGUAGAAUCUCGCGUAUUUGUUCUGUAGGUAAUUCAGAGCGCUCCGAAGUGUUGGCUCAAGUAGUGUAGCUACGGCGGUCGAA'
p210
aS'UAAAGUAUAUGCCUCCAAGGAUGAUCAAUAGACGAGUUGGUCAGUUGUCUCAAUCAUGAUACAGAUAAUCACUUUAAUGAAUCAUUUUAUUACAGCGCAG'
p211
aS'GCAUGGGAAUAGUCGCGCGCUCGCGAGUUCCGAUAUAGAUUCCUACUUAAACCAAGGCUCUUUUAUGCGUUCACCUCGCAGUCCCUCCAGCUCACCGGUA'
p212
aS'UAAUCUCGUUCAUGACCACUCAGUUAAUGCAGAAAGCGCGUAUAGAGGAAGUAGUGGCGAGACGGUCCACACCCCGUGGCAUGCGUGAUCGUUUUGUGCC'
p213
aS'GGUCAUCAUGGGGAGUUAGCACGUACUACUAGGCAAAUUUUCGGAAAUCGUGCAGUAAAUUAACUGGCCGUCCAGAUAGGAGGCAGUAGGGGCUUAUCUG'
p214
aS'GCGGAUGUGGCCAACUGCACUGUUGUACACGUUAUCUUCUUAAGUUGAUCAGAGCUCGCUAAGAGGAGGCCGACUGAUGAGUGCGAAGAUCCGUUGGGAA'
p215
aS'GAAAGAGUGAUUGAUUACCAGGAUAAGGUCCCUACGUGUAAUAACGUAAGGCGGUGGCGGCGAACUUGACUCUUCGACCCGCUGUGAUCACCCGCUAGUG'
p216
aS'CUAUCACGUCAUUUCAAUGCUAUCUCUGGAUUUUUCCCAAAUGGAGAAGUUUUGCUAUCGUACCGAUUAUUGGAAGCUACGCUUGAGGGCUAGGUUGGUA'
p217
aS'GACAUCCCAAAUGUCAUCGCCGGCUCUUUGAUUACACCUGGAUGUUGGUCGGGUUUCGACAGGCAGUUUUCCCCCGAACAUCGGGUCUGCAAGGUCGACA'
p218
aS'CCGGACUUUUCGUCGCGUGCGGGGUAAUUCGGGAAGCCCCCAGUAUUCUUUACUUUGGUGAGUAUAGAUUAGACACGAGCAGCGUAGCGCACUGAUGUCU'
p219
aS'CACUGUUUUCGAACGCUCAGAUUUACUUCUGGUCUCAUAAAGACAGGCACGUUCCUACGCAAUACUAUCGACUCUUAAUCCGGCAAUAGCACUAUGCUCA'
p220
aS'GCUUGCCACACUGCCCAAGCGCGCUUCAUCCCAUUACGUCAACCAAGUAGACGGUCGCCCCCCUUGCGGACCCGUUUAUUUCUCCAAUAAAGUGGGGUCA'
p221
aS'UCGAUGAACCCUGACAGACGGUAGUAGAUGACAGAUCGAAUGAAUCUAACACAGUUGAGUUGAUGGGUUCGGAAGUCCGAGGUAAGCGCCCACCCGGAUU'
p222
aS'CCUUCACGCUAGCCAUGUCAAUCAAGCAUACUGGGCUACCCCUGGCAGGGCACAGAAACGCCUGUAAGAUACUGUUUUUGGAGCUCAACCCGCGAAGCGG'
p223
aS'GGUUCUUCGCAUUUGCAGUACGCGUUCAAAUCGCUAAACUUACAGGCGGUACUGGAAUAGGUAGCACACAGGUGCCCAGGUCUCCUAGGACUCACCUUCG'
p224
aS'UAUUUGUGACAGCUAAAGGAUAUCUCGUUCGCCUAGAAUUGCAGACAUAAGCUAAUAGAACAGUACAUAAUGCGACCGAGUCUGUACUCUGAGUACUAGA'
p225
aS'AUCGCGCCCGCGGCUCAAGAAGGAGGUCGAUGCGACAAAGCUCACUUGGGGGUCAUGCUCCGGUGACCCCGCCCUCGUAGUGCAUACAGUGCUGCGAAAC'
p226
aS'UGCUCUCCGGAUAGGGGCUAAACGAACCACGAACAGAGUUACAGCACUUGCGUGCCGCUCCUGAGAUCUAACAAAUCUAUAGCCAGGUAGACUGGCCGUC'
p227
aS'CCCAUUGGCUUCCUAUGAAAUGCCUCGUAUAAGGGUCCUAUACCCCAGGAACACUAUGCGAUACGUUAGACAUUCUAUUCAAAUGAACCUAGACACGAAA'
p228
aS'AUGAAUGGGUUUCCGGGUGUCAGGCCAUCUACUGACGUAUGGCUACUGCAAGGCCGGUUUUAGAGAGAACCCCAGAUCUUCGCCAUCGCUCCUGGGACAG'
p229
aS'GGUUCCCAUUAGCCCGAUGAUCAAAGAAAUUCCACCCUACCUGGGAGGUCCGGGGAAGUCAUUCCGAGCGCGCGUGCCACAAUAAAGCCUACUGCUUGGC'
p230
aS'AGAGAUCGUGUCGUAAUGUGGCCGUUGUCCCGAAACAAGCGCCGGAGCGCAUUAGAACCGAUCAGCAGGUACACAAUCGAUUCAUAGAUUGCCUCAGAGG'
p231
aS'GGGGCCUGGUUUAUCGUCGCUAAAAGCUACUUUAGUUUAUAAAUCGCCGAAAGUGCGGUAUGUCGAUGUCCAGUGAUGCGUCUUGCGGAAAUUAACCUCG'
p232
aS'CUUGGGCACCAGUAAAACCGAGAAGGAACGUAUGCGUUGACUCGGUCGUCCACUGUGGGUACCUGGACUGUAUACUGACCACAUGAGGCCACAAGGCGCU'
p233
aS'UUGCAUCUACCUCGUCUGUCAACUGGAUAAUCGUCUCGCCUUUUUCAAGAUUCAUUAGGCAAGUUGGUUAACCGGCUCGUCUCUUGGUCGCCAACAAACG'
p234
aS'UCCAUCUCUCGCCAUCUACAGGGUUGGAGCUAGUAGAAGGGUGACCUGGAGCAGUCCAUUCUGCAUGCCGUAGGGUGGCGACCACAGCCUGCCGCCUCCG'
p235
aS'GGCCUACGUUCAAAUAUUGCCGUAUCAAGUUCCAACUCUCAUACUAGACGUGGAUAAGUGUGAUAUUGGCCACCGAGAAACUGUUCUAAGAAGAAAGAAA'
p236
aS'CACGGCCCGGGGCGCGAGCGUGCUUGUCCCACUAGCAAAUUUUGAUCUGACUGAGGACUGUUGGGAUAUUCGAUAUUGCGGGGCAUCUAGUUGAUUCUAG'
p237
aS'AUUGAUCGAGCAACAUAGAGAGGAGGAUGGAAGGGUCACAUUUACACGAGUCGGACUACCUUGGAUGUUCUGUCCGCCGUUUGUAACACUCCAUUACACG'
p238
aS'AAUAUUUGAGGGGAGUUGCGGUCCAAGCCAUGCCCAACCCAUUUAGGACAACCUCCCGACAGGGGGCUGCACUUAUUUACCCGAAGAAAACGGCAUCUAU'
p239
aS'ACCAAAUGGAGGAUGAUUUGGCUCACCCAUGGUGCUGGUACGUCCUGGCGAGCGCAGUAGAGCUGGUAUAUUUAAAAUCCCCAUUGCGUUAAAUUAUAGG'
p240
aS'UAGCUACGCAUAAUGCACCUGGCAUUAGCGGCGGUGUACAGUGAGAAGGGAUCUUUACAUAGGCAGAGAUCUGCAUCGCCAGAUAAAGGCCCGGAGAGCG'
p241
aS'CAAACCGUUAGUUAAGAAUUAUAACAAGUCGCCACCCUACUGCUAAUACAGUAUCGCGUAUGUCUCUUCAUACCGGUUCAACGAAUCAUGUGAGUUUAUC'
p242
aS'UGGUUACAGAUCAGGAUUUGUCGCUUUUUGUUGCGCUCGAGCAAGAUAGCUGAAUUAUAGGUUCUUCCUUAUACUAGCUUUUAGAUCGUGCGGGUCUUUC'
p243
aS'UGCGCCGCAAUUUACUUACACCUCAUGUGGUGAAGGAGGUAAGGAUUCAGUAUAAAUAUGCUGACGAUGAGUGAUAAUGCUCUACAAGAAGCCAAUCAUG'
p244
aS'CACCGGUGUAGGGGCGGUUUUGUGUAACUGACGUCAUCACUGGGACCCUCGUACUGAAAGCCCGAACAAAUUCUGAACGAUUCAGGGGGCACCCCGGAAG'
p245
aS'GUCAGUUCACUUUACCCUCUGGUAGCAAGUCUAAAUGAGCGAAGUGCACGCUUUUCGCCGAUUUACCCAGAGUUUCAGAACAGCGGUGACCUCGGUUGGU'
p246
aS'UGCAUACUCUGCUCAGAGGUCACCUCCCUUUGCGACGGAGAUCCGUGAGUCCAUGUCUGCAGGUUCGACUAGGAGCCUGGGUACACCGGUCUCUGCGCUC'
p247
aS'GUUCAUGCGUUGUGACAUCCCCUGCCAGUUCGAAUAGUAUAGGAACCACACUCAGAUCAUCAUUCCUGCCUACCAACGAGGGCCCCGAGGUGGGCCGAAC'
p248
aS'UAAGUCUGUAUAAGGACUCAGAGGUGAGGCUAGAUUAGGCACAUCAGUCUCUGAAACGGUCUAGGUGACUCUGAAAGGUCAGCGUUUGCCGACCGGAUUA'
p249
aS'AUCCUAUUCAUGCGAGUGAUCGGAGAAACCCAUUGACUCCUACGCUUAUCCACAUAAGGGCAAUCUCGUACCGUGUCUGAUAGAGAAUAUCUGCUACUAC'
p250
aS'UGGCCCGAACUUGUGGCCCUGGAGUCGCGCGUUGUAGGACCGUACAAAAUGGAUACAAGUUCCCCGCUUGGACAGUCGUUUAACUCUUCGGCCGAAUGAA'
p251
aS'GCCGCUCUUACGAACCCGCGUGCGACGACGGCAGAAAGCUCCGUUGCCCUGAAUUACUCCAACCGGAUUGGGAUAAGUGUCAUACCGGUAGGAUGGAGCU'
p252
aS'GUUCUAUGAGCGCACUGUCCGCUUAUCGAAAUUAUUAGGAUCAAUAUGCUCUGAUCCGAAGAUACGGGGUAACGGGUAGCAUUGUCGGGUAGAAUCGUCC'
p253
aS'GGGGCUAUGGCACGUUCAUCAUAAAAGAUGUCAAGCGGUGUACACGGUUCUAGUUCGGCAAUAUGUGUUCGAAACUCAGACUGGGGUUUCAAACUUACUG'
p254
aS'ACCCUAACUCGUCCUGAUGUACCUACGUUAGAUUGUUAGCAAAAUGUGCACGCGUGGAGGCUAUAUUUCUUUGCUAAAUGAAAAGGCCUCAAUGGUUAGU'
p255
aS'CCACUAAGCUAGACAUGGCGUCCCUGUCGGAACCUUAGCCAUUAACACCCACGGCCGCCAGGGGUUUCCGGAGUAUCGUCAGUGACUUUCGCACCCUGUG'
p256
aS'GAACCGCUUUAACACCUAAACAGUCGGCUGCGCCUUGCGGCGUUUAUCGGGUAUAAUGAUAAUAGUGACAGUUGAAUGUGACAGAGUUCACUAUGCUUUA'
p257
aS'UCUUAGCAGGCGCUGCGGUCUGGUGUGUAUAGACUGGCCCGUCGACCUUCGUCGGCGGUCCGAUGCCUAUUGUUCAGCGGUAUGAAGGACAAGACUUUUC'
p258
aS'GGGCUCAACGGAUAUUUGAUUGCUUUGUGCGGGGUCUCGCACAGCCAAUCGUGGAAGUCGUCCAAGUAUUUUCGGAAGGGCUGCUUUAUGCCUCAGAGCA'
p259
aS'UCUUCAUCUUUCUGGGAGAUUCAUAUCAGCCUGAGAAUGCUACGGGAACUCUUGGGUAGGCAGGCCGGUGAGAGCGACGAAGGUGGCGCGCAAAACUCUA'
p260
aS'CGGCUCUCGCUUCUGUUUAGAGAACAGUAUUAAGACGUAAAUAUAUGCUCCCCCCGGAAAACCAUCGUGCAUCGUGCAUUGCCAUUCCAGAAUCAACUCC'
p261
aS'AUUCCCUAUAUUUGAAUUCUUGUUGUUAACCGCUCUUCUACUUAGUACCCUGGAGGGGGGUAGCUCGCCUCAUAAAGCUUGCAGUAAGAGGUCCUCCUGU'
p262
aS'CGUCCCGUGUUGAAUUCCCAAUUCAGUCGGAGAAUGGUCAGGAAUAUUUUCGCCCUAUCAUUCUCGCUACCUCGAUUAGCCCGUUCCCUACCGUAGAUAU'
p263
aS'ACGGACGCAAAAAGACAACGAGUAAAAGCGUUCAAGGGAGCUGCGUACGACGGCACUUAAGACAACGGGGAUAGCAAUGACGGUGUAUAUCACUUGGUUU'
p264
aS'AAAGCGGUAUGACUCUGGCCUAAUAGAACGUGUCUCUCGCUGCAUUCUGCUUCCCUCUCGCAAUGGAGUCGCUUCUGGCGUGGCUUCAAGUCCCCUCAGG'
p265
aS'CUGUUGGUAUCGGCGGAGAGCCUCGCCCGAGGGCCGUGGCACCGAUUAAGGUCGCCACAACAACAGUCAUGGAUCGCCGCGUCGGAACUAGCUGUGUUGC'
p266
aS'CACGCCGAAUGAGCGUGCUGGCAUCGCAAGAGUAAUCAACUUACAUGAGCACUUAAGGUCUCACGAUAUAGUGGUAGAUUCUUACGACGUCUGACGUGUU'
p267
aS'GCUGGCGAGAACUCGUAGCCAUAGAGAGUGCUAGAUGGUUGCUACGACUCCCUUUCGUUGGAGCCAGGGUACUUAUGUGAUCCAUUUCUCGCGCUGAAAG'
p268
aS'CUGUCCAACGUAUGUCGAUUUUAAGGCCUACCGCAAAACGUAGACUAUUGCCCACCCGGGGCCCUCAGUUGUUGGUAAAAUAGGGGCAGUGAAUAUCAAA'
p269
aS'GCUGCAUCCCUCCAUUUUAUAGGAACUUGCGUUCUCUACAUGUGAUAACACCUCGCUUUCGACAUCACCUAGCCUGUUACUAAAUUAGCGCAAAUGUAGA'
p270
aS'GCUAUGGUAAACUUAUGGAACUACCAUAGUGAUAGGAUGAUAAUGUUUAGAUUUAGCAUCAAUUUCGCCGACACCUCCCUCAGUGUAAGAGGGCAGACGC'
p271
aS'AGUUAUUGAGUGAAGAACUAGUAUCGCAACUAACAUAACACAUCAGAAGGUACGCGAAGGGUAACUAGCGUACUAACCAUUUCGCUACCGAUCAUAUGAA'
p272
aS'GUUUGCUAGAACAUUUAACACGUUCCAGCGCAGUGUAGUUAUGCUGGAAUGGCUGCAGGCCUUCAACGAUGGCGAAUCGCUAGCGUAAAGAUGCGGUAAU'
p273
aS'GGUUCAGUGUAGGCUUAGCCUCAUGGAUAUAUAUUUCAACUAAGCCACCGGUGCCGUAUUACAGCUUAAUUAAUUUAAAAGCAGAGGCCAUGGUUCUAAC'
p274
aS'CAGUAUUGAUGGGCCUCAUACCACGCCAGUUCCUGGAGAAUAGUUUAUGAUCGCUAUAAAAAUGGUGGAUGCUAACUGCCUCGAACUUCCCUACACGGUC'
p275
aS'GCACUCUAGUUUUUGCUUCGAUCCGAAAUCCCUUCUCUUUCAUAACACGUAAUUCCAGGUAACCAAAAGAUGAUACAUCAGCAGAUUUUGGGCCCGAACU'
p276
aS'ACGUCGAAGAGUAACCCGACGCAGACCUGUGAUCUAUCUACCCACGUUUCACAUCGAGUUCUUCGACCCGACUUAGGGAAUUUUUUUACAGAUAAGAGUG'
p277
aS'UCAAAGUCCAGUUUGAGGUCACCACCAUACAGCCUGACCGCCUUUUGUUAAGAGAGAUACAACCAAUCCCUGGGAUAUAGUACGCGGAUUUGCUACCGCG'
p278
aS'UCAGGUUCUGCACUCCGUCAGAUCAUCAGGCCAGUCUUCUCCGUUGGAUCCGUACACUCUAGCGGCCCGUGCCAAGUGUCUUUAUAUUCCGUUGCUUGUG'
p279
aS'GCCGCUCACCCGACAACGAUUGCGCUCACCAAGGCGUGGCCACGGAAGGUGGUGAAAUGCCAUUAUAGCUCGGCUGUAUAGCUCGGGAAAGGGUUCAGAU'
p280
aS'CGCGAUGGAUGGAGCGUAGGAACGAAGUUGUAGUGAGUGAGACCCAUCUAAAUGUGAUGUCUGGUUGUUAAGAACGUCUGUGACGUGUGCCGGACACAGU'
p281
aS'ACAGGAUUUAUGUUAGAGGCCGUCACUACUAAGGGACAGGUGCAUGUCGUGGUGACCAUGUAAUCCCUCCAAUACACUGCUUCAAUUGGGAAGAGGACCA'
p282
aS'AGUCGACAGGACUCUCCUUGCACUCUGGGUGGGAGACCGUCCAGACUGUCCAAAUUGCCUUAAAGCACAUAACAAUGAGCAGCGAUAGCCUUGUAGGCAA'
p283
aS'AAUCGCGACAUUAACGUCCCGUUUAUGGCGGAUUUUCGACUGCUCCGGUGUCUAUCUAAUUGUUUCCGGUUAAUGGACCCACGCAACUCGCCUGGAAAGA'
p284
aS'CGGGCGGAUCCCUUCACUUCUGAAUAGACUCAUGUUUCAGCUCAACCUUUGAGCUGGCUAUGCGCGUCGUCGGCCUCUGCCGAGUGGUUGGUAUGCAAAC'
p285
aS'ACAUCCCCUAUAAGACGAUCGCGGAACUACAACUGCUCCGGUGAACAGGGACCAUGGGUAUCCUCUGGCUAUACACUUCAUGUAGAUUUGCCUGUCGACA'
p286
aS'UAUUGGAAUUUGAGUUAAUGAUAUGAGACACUUAGGUGAACAUAUCCAUUCUUCGCGUGCAUAACCGCGCUCUUAAGUUCUUCUCAAGAAUUGUUCUUAG'
p287
aS'UGUGUGCGCGGCCAGCAUCGGAAUGAAUUGUUACGACACCUGUACACGGCUAGUGCCGGGAUCAAUUAUUCUAGCUUAUACUUAGAACCAGGCACUCUAA'
p288
aS'CAUCAUGCUGGGGUUGUGAUAGCGCAAAGAUUGCUAGAUCUUCAACUGAACGAAGCUGUGCACUACUUGAACUAUCUGGCUUGUAGCGGAUGCUGUGGAC'
p289
aS'GAUAUAUAAGAGGCAUCCAUGGCCACCGAGUAAGCAGAACGAUUCAUCCACGGGGGUAUUCCGUGGAUUAUAGCCUGGUUUUUCUAUGCGCAUGUUAGAA'
p290
aS'AAUGCUGUCCGAGCCUGGAUGUAACAUUGUAAUGGCUCGACCAACGAGCAAAACUAUUCAGGGCCACACCAUAGGCUUGGGGCUAGCCGGUAACGGUUCU'
p291
aS'CCAUCAGUGUAUUAGGGCCUGGAUUGCUGAGCACCCUCAAAGCAAAGGAGCUGUAUUGGAUCCGGUUGCUAAAUGCCCGCGUCGAUAGUAACAGGCUACA'
p292
aS'UCUGCAAAGAAUCGUGUCGGUUCACCCACUUACCAGUGUAUAAGCUUGUGGAGUGACCAUUCAGCUGAUUCAUGAACGGAGCAACGGGGCCAGGUUACUG'
p293
aS'GGCCCAUCUCCUGCAUCUAGUGAAGUGCCGGUACAUUAAGUCAGAUACCCGGGAGACAUCUGGCGAUACGCGUAGGAUACAGGCCCACCCAAUGGACCGG'
p294
aS'GGAUAGCGCAAGUGCACCAUUGCCUGUCAAAAGCGAGCUCUGUCUAGGAGAUGGGGUUCCAGUCUUUACAAACUUUAACGUCUUAGGGGGUAUCGUCUCG'
p295
aS'AGGCAUAUCUCAAGUUAUUGCCAUUCACGUUAGUGCUAUAAGUGAUAGUGUUGUCGCGGCGAAGCAGUCAACCUCAGAAUAUAAACGGUGGGUUUCACGC'
p296
aS'GAGAUCUUAAAAUUCUCGUCGCGGGUACGACCCUAUGGUCCUCCAAGAGACCUCAGGUCCAAGCCCUCACGGAACCAGCGCUCAGCCUUAUAGAUCGACA'
p297
aS'CUAGGGGUCGACACGAUUUCAUCAACCUCAAAACAGGAAUAGCGAGUACGGAUGUCGUGUCCAACACAACUGGUAGUGUAACAACGGGUUGGGGACUGCA'
p298
aS'UAGGGUCCUCAUUCUCGAGACACCCCUUGAAUGAGUGCUAUUACCUAGUGGUGGCAUCAUAGUUCGACAUCUACUGCUUGUGAAUCUACUGUACCAGGGC'
p299
aS'UCGAUCUCCCCACCUUUCCUGGCGAAUGCGGUACUUAGCUGGCUACCCGCUGGACCCCAACCUACAUCCCGUAAUUUCGUUGCGCUGCAAUGCUGGAAAU'
p300
aS'CCAUGCAUAUCUUGCUGCUUGUCGAAGGUUAAUUAGCUUAAUUCGGGAUCGCGACAAAACUUGAAAUCAGACAGACCUAUGUCCCGAAAUUGGAUUCCGA'
p301
aS'AAGGAGCAGCGCGUCAUUUGGGAAAUACCGUUCGAAUCUGCCUUGUAGACUGGCCUCCAUCAGCGUUAAACAUUAUUCCUGGCGAUAUCUAUUUUAGGGC'
p302
aS'CCUCGGCAUAUCUCUUUGCGCAGAGUAACAUUCCUGGUCGCAGGGGACCCGAGGGGCUGGGCUUCAAUACAACCAGCGUGACAACGGUCAGGUGUUAUCG'
p303
aS'UCGGGACGUGUGCCUGCAGUCACUCUGGCACGUGCGGUUUGGUAGGUUUAGUUCCUAUCAAACUACCUAAGUCUAACACGCAGGCCGCAAUAAUUCUGCA'
p304
aS'ACGGUUACCGAUAAAGAGUAAUUGAAGGCGUUAGCGCGGAUCCUAAUCCAUGCACCGAGACGGCCGAGCCGCCAAAGGCAUUUAAGACAACUAAGUGCGA'
p305
aS'UUGGUCGUCUAUCGCCUUGGAAUAAAAUGCGACAGCGGGCGUUCCCAGUGGUUACAUUGUAACCUGCGGCGAACGAGUUUGUCUACUAUGCCCGUAACGC'
p306
aS'AAUGGACGGUGGCAGAUUGUUAAUGACGAUGAUUACAGGUCGCCCUGACCUCGGUGGUCGGGUUUACGGCGGGCAAUACGUUUUGAUUGUAUGUAUAGCU'
p307
aS'UGUUCUGGCCGGUUCCGUCCGUAUUUCAUAGGGCCUUUACGCCGUCAGCAGCCCAGCUCGCCCACAAUUCAAGCGGAACCGUUAGUCCCGUGAGUAAACC'
p308
aS'ACGCACCUAAACCCGUCGAGCACUGUCUGAGAGGAUUUCGUCGUGAGCACGGAGCUAUAUGUGCCGCCUGCGCUGAGCUGGUGCCGUGUCUACGGGAACU'
p309
aS'UUUCCCUAAACCGCGGUAUCUCACCGGAACAUAACCCUGAGGUAACGGAUCUUAUUUGAAGACGGUAAUCGGAUCCGGGUACGGCAUUAGAUCUGUCGGU'
p310
aS'UCAGGCGUAUGCGAGUGCAUCGUCCUCAAAUGACCCAGUUACUAGAUUUGGACUAGUGCCGUUAGUUUCGGUUACUUAGGUACUCCGUCUCCUAAGCCAA'
p311
aS'CAAACAGCUCCAAUACCAUCCUAUUAAGCCGGACCCUCUUGUGCGCUGAAAAGACCGCCAGGUUAUUCGCAGAGUAAACCCACGCUAGUUGAAGCUCAAA'
p312
aS'CGCGCCGGAUAGCCCAGCACGGUUAGGACGAGGGAUGAAUGUCAAUGCCUAGAGACACGACCCGUUCCCAAUCUGAGCGGUUGACUCCUUCUCAAGGUAA'
p313
aS'UCGGUAAUUUCCUUAUUAGUCCUCUGGUCCAUAAUUAUCGGCCCGACAAUGGGAGGUCUCAGUCGGACCUUCAGAAGGCCCUGAAUUUACAGAUUUCCUC'
p314
aS'CGACUGAGUCGGGCGAGACUACUGAAGCUUUUGGCAUAGGCCUUGUCAGCAAAGGACCGGAGAGAUCAUCUGUCUCACCCGGAGGGUGUAAACGAACAAU'
p315
aS'GCGCUCCGCUGUCACGUAGAGGGUAUUACCGGGCACGUUACGUGGAGGUUGGGCGGGCCCCUGGGGCUUCGGCACCGUAGGUUCUUUUGGGCCGGUCGCU'
p316
aS'UCAAUCGGAACGUCGAGAUAACGCGUGCAUAAGUAUAAGGAAGGGUCAAUCCGGACUUUCUUACGAUAAACCGAAACCAGAGGUGAGGGAUGCCUCAACG'
p317
aS'ACGCUAACCGCCGUGUAUGUUCGGGGCCAAGAAUUUCGUCCGGUUCUUGCAACCACUCCCGGGAGGCACGAGGUUGUGGAGGAUACAUUUGCCCCACACC'
p318
aS'UUCUCAAAUUUGGAACAGUGCGAUAUUUGAUGAAUACCCGUACAUUCGGAGCUGUAAUGUGUCCGGCGUGUAAGCUUUUUUGAAGAAAAAAACUGGAGGA'
p319
aS'UCAUUGUGGGUAUUCGCUAUGCGUACUAUAUAACCCUCGUAGUAAAGAAAGGACGAUAGUUGGCAGUAGUUCACGUUGUGGCAUGUCGUGGCUUCGUCUG'
p320
aS'GUACGUCUUCUGUAAGAAUUAGAAACGUGUGCCACUUCUUUUACGCAUCCGAUGGCGGUGUCCUAUCUUUACAACAAGCUGACUACAUAAAGUUAGUAGG'
p321
aS'UUAUUAAUCUAGGGCGUUAGGUCAUACAACAGUAUACGAGUGCUUAGCGAUUAUAUGUCGACAUUAAUUGCUUAGUACCCUGUGUUUUGAGAACAUUAAG'
p322
aS'AGGUAGCUUAUCAGCGUUGCACCAUUGGGAUUGGGCGGACCAAACUCUGGCAUAGGGCAGUGCCAACGCGCUCACUCGAUUGUAGACCGGUGGUUCAGCC'
p323
aS'AGUCUGAAACACCCCGUAACGCUUAGAAACAAUUAUCCAGCCAUUUUCUAUGCGUGAGGGCAAACGCAUGGACUUUCUAAUUCGCCACAAGGCAGCUACG'
p324
aS'UACGCGCAUUAGCUCGCUACAUCGCGUAUGAACUGUUGCCUGGUUUGUUUCGAUGAGACAAUGACUCUGGUGCCUACACUCACGCUUUGGGCCGCGUACU'
p325
aS'AGAUCUGCUUUGUAGUUGUAGAAGUGACAUGGCAAAGCUUAUAAUCCUAAAUUCGUAAGCGGAGAUGUGUUUCAGUUUCUGCGCGUAGCGGGCACAACGU'
p326
aS'CCAGAGGGGAAAUAGAUUGACGAUGAAAGUACCGACGCAGAGCGCAAUUACAAAAGAAGGAACCAGCUACACAUUGAUCCUACUGCCCCAUGAAGGCUCA'
p327
aS'CUCGAAAGGGGGGCUGCGUCUGGCGACGUAGCUUCCACUGAUGGGCUCGCAUACGCGCUCCGACCACCUUUACAUCAUCAGUCACAGCUCGUGUCGGUUC'
p328
aS'UAUUAGGCAGUCAUAGCGAUGCAUGCGAACUGGGCACAAUUACAUGGUUUUUGAGCCGCCGCUCAUUGGUCCUCGGACAUAAGGCAGAUUACGCUUGUGC'
p329
aS'CAAAUCAUGGUAGUGUAUUAAAUAGCCUGGCGGCUGACCCACCGUCGGCGCCCACAGGCUGUGAGGGGUUUGGGUUAACGGUAGUUGAGAGCAACGUUGU'
p330
aS'UCUAAGAUCUCGUAACACAGCCACAGUUAGACGUUAGGUGCAACACGCGCCUACCAUGCUCACGCCUAAACAUUCAAAAAGCAUUCCCACCCUACUUAGC'
p331
aS'UCGGGAGUACGAUUUCGAUUGGGAUGAGGCAGGGCUCUGGAUGGGUUCACUUUAGCGCCGAUCACCUUCUAGCUAGGAGUCCACAUUUAACAUGGACCGC'
p332
aS'AUUACUGCCGAUGUGAACUCAUCUCCUCCCACAUGUUGACUGUCAAUAGAGCUCUUUCUCGAGAUUAGAUCGUUCGACUCGCGCACCCAGGAGACGUUUG'
p333
aS'GGGAUGUUUGUUUAGAGGUGUAACGGCAGUCGACUGUACUGCGGACAAUCUUACCUACUGCCCCGGAUCUGCCCUACGCCCCGCCUCGCGACGAAUAGGA'
p334
aS'GUGCGAGCGGCUGGUAACGCUACACGUCGGUUGCGCGCUAAAAUGUUAUCGUCUCCAGCUUGUCCAUUCAAACCUGCUAAGGAUUUGCCCCAAUUGUUCU'
p335
aS'UAACGCGUGGUCUCGAAUGCGGACCAUAUCGCAGAGGUCGGUGGAAGACCUGUAUAUUUCUCCCAGAUCUAGGGGUCUUUGGGCCUGAAUAAGCACAGUU'
p336
aS'CUCGGGUGGCGACGAGUAGACAUCUAAUGAUAUACCACGAAUAGUUGGUUUGCGUUGUACACCGACUAAGAUCCCCAGGGAUUGAAGCCACCUGUUCGCA'
p337
aS'GCAAGCGCGUGCAACCAAUAGUACGAGAGUCAUAUUAGUCAAUAAAAAGUCCUUCUAGCCGGUUCGUCUUCACACGGUUAUUUGGUGUUGGCUUAGCAGA'
p338
aS'GAAGCUGUUCCGCCGAAUUAGGAAAAUACAAGUCUAUGGCCCCCCUGGACUUUUACCGUUUCAGCGUCGUAUACCGGUAUCCCUGUUAUCCCCACGGCAU'
p339
aS'GACUAGGCUCGUCUGCUCGCCACGGCCCGUAAUAGCAAUAACUAGCCACAACUGAGUGACGUAACAAACGAAUAUCAUGUGAAAGCAUAGACGGGGUUAA'
p340
aS'UUUCUGGCUCUUGAGGGAAAGUGGGCGCGGUAACUUGCUGGAUCCAACUUCCUGAGUAUAUGCCUACAGUGUCGCGCUAGUGUCGAGCUAGGGUGUUCCC'
p341
aS'GUUAAUAUACUUGCCACCACCGAAUUAUGCAUCAUGUUAUGAACUUUCUAUCGUUAGCAAUAGGAGAUGUCGUCUGGAGUAUUCGUUCCUGGUCCUUCCC'
p342
aS'UCUCUGGGGUUCGAGUAUGAUAUGAGUCCUUUCAUUAUACAUAGAAAAGAUUCAACCGCCCGACCCCAACGUAUUCCAAUUAAGUUGCCCCCCGUGGUUU'
p343
aS'GGUACCCCACCGCAUAUUUUAAACGGGCACCUCGUUAUGUCACACCAGGGUGCGUUGAAUAUAUACACUGAUAUCCUGAGACAAUUCCCGGCGUAGGGCU'
p344
aS'AACGGUCUAGAUAACAGGUGGCUAGUUCUUUGCAAUGGAGAACCGGCAGAUACACACAGAAAUUUCUCUUCGGUUUUCAUAGACAUAUAGUUGGCUAGGU'
p345
aS'GGCCUAAGCACAAUAAUGGCCUGAGUUGUGCCGCAUCCGGCCUUGUUUAACGGGAUCGACUUAGCUUAUAAAUGCUCUGCCCCUGUCAACUUUACAUUGA'
p346
aS'CAAAGAGCUAAUUGCGAGUAUUCCCGCCUUCGGCGGGUCCCCUCAUACUUGCAGAAGUUAGGCUUGUCUCAAGGCUGUGAAUUGGCUCGAAUCAUCCUCA'
p347
aS'ACUACGCUAGCACUGAAUCGCAAAAUGCGCUGAGUUACCAACCGCGUGGAUCUACGUGUAGAUAGCUUCUCUAACUUGAUUCUCUGUCACGCCCAGUUAU'
p348
aS'ACCCGAACUCGGGUCGGAUGUGGACGCCUAUGCAUUCAAGCUGAAGCACGUGUAUGAUUUGCCGACAACGUAACAGAGCGCUUUACCUCUGUUUCCACGA'
p349
aS'CGUGUUUCCGGAGCGGGCUUGGGCCCAGUCUUCGGGGUUUCCGAUAUCAAGGGCCUACUCGGAUAAAGGCCAGAAAGAUACCUUUUCAGCAAACAGACGU'
p350
aS'CCAGUCUCAUCGGAAUAAGUCGGACAUCGAACCGCGACCAAGGCAUAACAAGCUCGAACCCUCGCCUUUCGUCACGUCUGCCAGGAGAUUUUGGACUGGA'
p351
aS'UGAAUGGCAAUCAAAAACAGCUUGUAUCGUAGCCAGGUGCCCGCCGAAAUAGCACCAUGGUGCCGAUCUGGCAUGACUUGAGAGAGAUGCCCCCGUGCAG'
p352
aS'AUUCUUGCGAUAAGCUUUAUCUCCCCAACUGGACCCGGACUGACGUCACUGAGGAGUUGGGCUCUGUACAGCAUUUAUUAUCACCUAACCUGGGGACAUG'
p353
aS'CAAUUCCUCACAGGGUGGUGCUUUUUCUGUUCCGGAUUUCUGAGCAGUAAAUGUCAGCCCGUGAUGUUUCCUCAACCGAGCAUUCCCCGCCCGAUUGUAC'
p354
aS'CUCCGAUAUUAAAUUGCCCCAAUGUAACAUCGAACGCGUACCUUUGACUAACAGGUUUGUAAAUCGGGAAAGGUAGGGCCGUUGAUGAUAUAACAUCCUG'
p355
aS'CAAAUAAGAGCAGCAUUCCAGUCCGGCGCGUUGAGGCGCGGUUUGUCGACCAAGCCAUUCCUCUUUGUUUACACAAUCCUUGUAGCUCCCCCCCUGUCCG'
p356
aS'CUUGAUAGUCUAAGAGUACGUGCCCCCCUACCCUCCGAAGAAUGGCGGACACAAGCCUAAGGGAAGUAAACUUACCUGGCUGGACCUGGUUUUCUUGAUG'
p357
aS'AGUAGCAGAUCUGCGGUGGCAAAGCCACUCAAGAGAACUUCACGUCCCGACACCUAUUGAAAGCGACUGUUAGGGAUACCUAUUUUCAAUUCACGCAAUC'
p358
aS'AUUGGGCUCGUGCCAUUGUCUCGAACCAAUCAUAGCUGGCUAAUCUGCCGGUGGCGUGAGAAACAGUUUGAUUGAUUACUCUUUCUUACACAGUUGUAGA'
p359
aS'CAGUAUAGCCUCAACUGGCCGGGGGUUGAUAAUUAUGAUCGAACCGGGCGUUCACGGCCAGCUAAGCUCUCCUAACCACAACGCUAGCCUCCUGUGCCGA'
p360
aS'UCAGUCCUGAGGUACAGUUUCGAUCCCCAGUUAAAAACCGAUUUGAACAAGUGAUCAGAAGAAUAACAACCCUGACAGUAUCGCGAACUGGGCGGAAAUG'
p361
aS'GGAUAUGGCCCACAUAAACCGGACGCCGCACGUUCUUUCUUAUUAGUAUCCGGGAAUACUAUCGGAAUCUAUGGAACAGCAAGCAUCCAGUCGGCCCAGU'
p362
aS'AUUAUUUCGUUCCACAUUUCUAUAGAUUAGGUCACAGGAGACACAAGCAUAUGCCCUCCUCGUGGGACGUCGACACGUCCACUGACACCCUCGCUCACGG'
p363
aS'GAAACCGCUAACCGGCCGCUAAGGAUGGCCUACUGCCCACUUCCUAUCAACCUCUGGACCGUGUAUGUUUUGUGUGGCUGCCCACCUAGUGCGAUUGAUG'
p364
aS'GGCGCACAGUCAUUCUGAAGGCGGGGGAUAUUGCACUACACAGUAAGCUCCAGAGAUUUACCUUAAGGGCAAGGGUCCGCUUUUCGCUACUGCCAUGCUA'
p365
aS'CUGUUUUUAUGCUAGAUGUAUCCUCCUCGAGAAUAUAGGGGGUGGCGCCCCAUUGUGCCAUAUUGAGAUCAUCUGUCUAGACCUUCAAAUUGUAGGGCAG'
p366
aS'GCAGAUCACGGUAGUAGGGGUGAGACGGAAGAUCAUGUGUAGAAUGCCAGCAGAAGCUCCAGAAGAGUUGCGUCUCUCAGAGUUGUCUCCAUUAUAUUUA'
p367
aS'UUGACGGCGCGGGUUAAUCCUAGCAUUCCGUGGUGGGCGGUUGGUCCCUCAUUAAAUGUUGGCGUGUUCAAGACUGAAGAGGGAGGCGAAGAAUUUCGCC'
p368
aS'GAUAUCAUUACACAAUGUUUUCCAGAUUCUACGACCCAUCGGCGCAUGGGUCACGUGCAUUUUAGAUCGUUCUUAAAUAUGUACUCGUUAUUUCGGGGGC'
p369
aS'UAGGCCGCCGCCUCAUUAUCAUGAUCGUGGCCAAUGAUAUGAGCCAGUUAGAAAGAGCUACAGUAUCUACAUGUUCCAGAAACUACCCCGGUGACGCCUU'
p370
aS'GCUGCACGAGCCCUCAUUCUCUCGGCAGUUAAAGGUUGAAUGGCACUCACACUUCGCGCUUGCGUAUGGUAGCGGCCUAGUCUUUGGUUUUGAGCUAAUU'
p371
aS'CGGAAAUGUAACGGUAGAGCGUAGUUACAAUGGACCCAUUUAACCUCAACUAAGGGGAGUUCUCGCGACCCUCCUGCGCAAGGGUGGCCCCGAGUGCACA'
p372
aS'GGCGCGCUGAUGGGGGACGAUGGGCCUGGGGGAUUAGGGAGCAGUGAUACGGUAGACCAGAUAAUCCAGGUUAACGUAGUGUACACAUGCAAAAGAUCGA'
p373
aS'AAACAGGGCCACGCCAACCAGCUCAUGGGCUCUUACUCAACACAUAAACGACCGCUAAUGUGUCAUAAUCCAUGAGUAGUAUAGUCGGAGCUUAAAUGCG'
p374
aS'AGUAUGACUACGGUUCGGUUCCAGCGGCCCGCCUGAAAUUGUCCGCUUUUCGGUUACUGUCCUUCAAGACCUUUCUUAUGGGCCGGAUAGAAGCGGGUGC'
p375
aS'AUAUACAUCGUAUUCGUGAACUGAACGCUAGUAGCCACUCUCAUUCGCCCGUGACAAACAAUAACACUUAUUUACAUCACCCAGUGAGGCGGAAGAAAGC'
p376
aS'ACCUACCUGGCUUAAUGGGUUGUUCUUGGUUGAGGACUUAUGAUCCUUACUGAGAGUAGGAACAUGUUAGGCAUAGCUUGAGUUCUUAAAGGGACUUUUC'
p377
aS'UGAAUUACCUUCAGAGUGCCUAUCUGGUUUCUCUGCAUCAUGACAACAGUUGUCCCCUCAAUAGGUAUGAAAGUCAGGUACGGGAAGGCCCAAUUCUCGC'
p378
aS'CUCUGACACCCUUGGGACGGUCCGAGAGGAAUAUUGAUUAGAGGCCCCCCUGGUGUCAUCUGAUCAAUCUACCCCGUAUUUCAUCUCGCGACCAUGGAUU'
p379
aS'GAAUCUGCUAGCAUGAGAAGGCGCGAUAGAGGAGGCCACCUACUAGUAGACUCUCUACUACAGUGCAACGAGCUCCCAGAAAACAAGUGAGGAAUAGCUG'
p380
aS'GCACCAGAGGUAAAGACGUAGACGUGGUGGUGGUAGUGGAUAUAGGCUUUUAGCAUCCAGAUGCCCGGACUCGGGGAACACCUUGGUUAUAGCUAACAGC'
p381
aS'UAACGCCCCAGGCCCUGCAUUAUAGCUCAUUAAACCGUCCCAUUAGUGGAUUACGAAUGCAUCUCGGUACAUGUAUCAGAUCCAAUAUGGAAUAACGCAA'
p382
aS'GAUGAAACCAUUCACGACUGCAAUGUGGCCUACAUUAAGGGCCCUUUGAAGGUACUCCGGGUCGCCUGACUCGGGGAUUCGUACUAGAUCACAAGAGGGC'
p383
aS'CCGGGCUCCAUGCGGAAACUUACCGGAACCUGCUGCCUCACAUAGUCAAAUGGAUGGAACCCUGCGCUUGUCGUAUGGAAACUCGGUAUGGUCCUUCCGG'
p384
aS'CCAUGUUUUUUAACCUAGCGCCUAAACUUAGACCACUCGAUGCUUCACACCCUUGUCGGGAAUGUUGACAGUGAGCUGUGCUGGUUAAAGUAAGCAACUC'
p385
aS'GCGACUCAACGGAGGGCAUAGAGACCUUUGGAUCCACUGAAAGGGAGGUAUAUCUCGGACAUUUAACGAGGACGCUCGCUGGGUGCCUGGUAAAAUGGCC'
p386
aS'AAUCAAGGACUACUCUACUACGCUAGGGGGAGCGCCUGUACACACCAACGAGCCUUUCGCAAGUGAUCACUAGGCUUAAGGUAAACCAUUUCGUGAUCCG'
p387
aS'GACGGAGAUUCUCUCAGACUUAAGCCUAUCAUACUAGUACUAGAAAGACACAAUGCCUCACGAGGCCUGGCGGUAGUUCGCUCGCAGUACGAAGAGAUCU'
p388
aS'UGGAACGAUGAGCGUUGUCUAUCCUAAGAAAGAAUCUGGCUUUCAGAACGGGUUCCCAAAUCAUAGGACCGGAUAGCUGGCAUUAAGACUCACACACCAG'
p389
aS'GAAGAGUGAUUUAGGAGAACUGGUGACGUGCGGAACCUUGUCGAGCACACCUCUCAUAGAGUGAGCGUCGUUGGGAGUUACCGAGAGCCCGUGCCAGUCG'
p390
aS'AUGGUACCGUGCUUAACUUUCAUUGACUGGUUAUUACUUUUUAUAAAAGCACGAAUUCAAGUUGCACCUCUCUAAAGUGUGCAUGCACACCAGGCCGACA'
p391
aS'GUUACUGCCCGUCUCUAUGCGCCUGUCGUGCACGACGCCGUCUAAAACAACCGCCCUCUAGGGAGGCUCACAAUUUCGCAUUGUAUGUUAGCACUCUUGA'
p392
aS'UUAUCGGAACAUAGACAAGCCCAAUUAGACUCUUGACUACUUAUUUGGGUAUACAUCAAAUAAAUGACACACAAGUAUUGUUAUCUUACAUAUUCGGGCU'
p393
aS'UGACACAGUCUCACGAAGUGUAGAGACCGAGACACCUCGCGCGUCGCAUCUAAGCUCAUGCGCUGCGGUCGGUCUGAAACACUGUUUAGUGCCUGCCAGU'
p394
aS'AGAGUAAGUGCCUAAUGACCAGACGACGGGCGAUCUCACCGCGCGCAUACUCCAAACGGGAGCAUUUGACUCGAACCCAAACGGACCGACACGGAAACUC'
p395
aS'CAGUAGUUACCCCCAGACGUUAUGUGCACUAAGAUUUUGAGGGUGCCACGAACAGCAACUUUGUGGCCCUUUCCGGACACGUACUCAAUCACGCAGAGUA'
p396
aS'GCGACUGUAAAGUCACAAUACAGUAGUCUGUCCCACAUAGGAUCUCAAGCUGUUUGAGGGUUGUACAGCCCACCAACUGGAGAAACUUUCAUGGUACCUG'
p397
aS'AAUCUCUAGCCCCAAUGAUUCCUUCCAUAACACUGUAGCAUCCGGUGCAGCCAGCGGGAGGUUAAAACAUUUGCAGGUAGGUAAUAACGAGGUUUGAGUG'
p398
aS'GAUGACCUUGCGAUGGGUCGGAAUUGGCAAUUAGGUGGUGGGCUUAUUUCUACCAGGGUCCGGCGAAUCCCUGGAUGAGUAUUCGGUCAAACUCUCCGAG'
p399
aS'GGACCUCCGGCUAGUUAUCCUGUACCCAGUGAGCCCCUUUGUAAAUCAGUUAAACCGCUCAGGAUGUCUCCAGAAUGAUCCGGCUAUACUGCAGGGCAGA'
p400
aS'UAUGCUCUCUCGCUACAGCCUGAUGCAUUCCAGGAAGACUGAUUGGGAGCACUCGGUCCCGUAAGGAUGGCCAGGAAAGAGGGAGGCGGCCCGCCCCCAG'
p401
aS'GUGCCGUGGGCUUAUUGACGAAUGAGGGAACGUCGCGUGUGAUGUACCCAGUGGCGUUCUCUGGGGACGGAUGUCGCAGAGACUCUAGCGAAGUUCACCC'
p402
aS'GUUGUUCCAAUCGUGGAUGACAGGUGACGAGAAUCGCGAGGGAGGCCGCCAGAGCCAGUCACGUGUGUCGAAGACACAUCUUCAUAACAGUGUUGCCACG'
p403
aS'GUGCCUAAUGUUUAGAACCCGAGAGAGAGUCGAUGUAGAGAACUUUAGGCCACUUUUGCGCAGGUUGUGCCCUGACGCCUGUUCCGCCAAAGUUAAGAAG'
p404
aS'UGCAGUCAGAGUGUCUGGUCCCGCCUAAAGUUUUAGAGGUCAUUUGCCCAUUAUUGCAUCGAAAGGUCGCUUCUACUCUAGAUUGCUCGUUUGUAACGCC'
p405
aS'GACAUGUCUUAUGUCCCUGGCACAUCCGGAACGGCGUCCUUUUCAGGAGCCUAUACGUAUCCUGACUUCAAUUUCAAACGCACCUCCAAGAUUAUUAGAC'
p406
aS'ACAAGGCUCGAAAGACGUGAUUUGGCAGACUAACAACGAAAUAAGUACUAUUUCCCCACCUUUGGUACCCCAGCGAACCCAGUAUCUUGCCACGUUAUUA'
p407
aS'UAUUUGAAGCCAAGUUGCGGGCUGUAUGACACCCAGUCCUCCUCCGCGUCAAGAGCCGUAUGGCGCCUCAUAGCGCAAUUCGAAACUGCGUAUAGCGAAU'
p408
aS'GUUUCAAGCGCUGCCCCCCCCGUGCGGGCGAUCUUCGCCGGAGCAUGAAGUUGCGUGCCUCCCAGUAAUGUAUGCAAUCGAAUCGAGGCGCUGUGAUUGC'
p409
aS'AGGACGUACAGGAUUGAUCACGAUGCCAAGGAGAGUUGUAGUACUCGGACGGGCUCCCGCGGAACCUCCCGGACGUAUCAAGGCCUACGGAAGCUGAAGA'
p410
aS'GCCAGGGCGCCUCUUGCUUUAUAGGUCUGCAGCGCCAGUGGCGAAGAUCCUAGGAAUAUAGCACGAUUGGAUUGUCGUUUAUUACUUGUUAGCUCCAAGA'
p411
aS'AUUGAUCUUGUACACGGACUCCACUCAGCUGUACUCUCUUCUUACUGACCAGAUCGUACCACUAGUCGGACCAAAUCGCCUUCCGGGUGUAUGCAUGCCU'
p412
aS'AAAAAUGACUCCGAGGCUGACUACUGUCCGUCGUUAUUCGGAUCGGCGUGCGACGGUUGUACUCGAGGACCCUUUAUACAGCUGAACACGCUUGUGUGCU'
p413
aS'GCGCAUCCUUUCCAACAGCGGUCCACAGUCGCCGUACGUGGAGACUUUGCCAUGCCAAGUCUGAAUAGCGAUUAUAUACGCGUUUGGGUUGGAGAAGACA'
p414
aS'CUUCUCUUCCAGGUAUAUAAUCACGAAGCCUGCACGGAUAAUCUUGUAGGUAUACGGGGUACGGCCAAUGGGUGGGAUUGCCCCUGGGACCACUUGGUAU'
p415
aS'AUCAGGCGGCGCUUUAAUCAAAGCCCAAGGUUCCCCUCCGGAGGAAUCAUACUUACGGUGCGCAUUGUGCAAAGUGGAGCCCUGAACCAUACUGAGCCCC'
p416
aS'CCUAGCGGUAUUUGAGUAGGUAGACCGGGGGCGCCCGCACGAUUUACAGAAGUUCAUAGUCCGUUGCCUUUGCCAAGACUCAGUGCUAGUGGACAAUGUA'
p417
aS'GACUGUUGUGUCAGGGACGUGUUAAUUGCGAGGACCUGAUCUUUGUGUGAAGUCGAUUAUAAUUACUCAGCUAGAUAAUGCUCUCUUCGAGACAUAACAU'
p418
aS'CCAGAUUACGGAGACCCGUGUCUUAAACAACGGGAUUCUUUCGCGUGACCGGAAAGCUUACUAUCGCCCCCGAGAUGACCUUAGAAACGCACGUAACUGG'
p419
aS'CAACCCACGGAGUCUUAUUUUCGAACUGCGUUUGGGUGCCGAUGGGGUAGCAUUAUCUAGUCACAUCCCCAUGACUGCACCAACAAACAGAUCUACCUUG'
p420
aS'GCGCGUGGGACGGGCCAAGAACCGUUAACAUCCGAUGGAAGUAAAACAAGCACAGACGAGCAUAUAUGGAAGGGGAGUGUCCUCAAUACCAUACCUAUAU'
p421
aS'UAUACGGCGGAUGGGCAAUAUAUCAGUAGAACUGCACAACUCUACUAUUCCGUGUGGGCAUGUGUGACAAACCGGGCAUACGCACCCAACCAAAUAUCUC'
p422
aS'ACCGAACUGACCUGAUCAUAUUGGCCACGCAGGGACUUACCGGUAGACAACUAAGGCACAAGUAACUCAUGAGCAUGCUUUACACGAUGUUCAUCGGCGU'
p423
aS'AAUGCGAAUACGUCGAGAACUGGGCCACCCGGUCUAUAAAGGGAGACGUCCUUCCCUAUUUGGCCUUCUCGGUUCAUCGCAAAUGCAUAGCUGCCAGGGG'
p424
aS'GCAAAACCGGACUUAAGUCACUUAAGCUUCCCCAGCAUUGCCAAACCUGGCUGAACUGCUAACGGGGCGAAACAUUUAAACCUCGUUGAGGUGCAAAUAA'
p425
aS'CAAUAGAUAAAACCGCGGAGGUGUUAGUGAAAAUCGCCCUUGUUGUAAGUUUUGACUUCACCAUAGGUACGCGCGUCUUGGAUGACCACCAGUUAGGGGA'
p426
aS'AAGGAGGAACCUACAGCAAUCUACGUCAAAGCAAGAGCAGUGGAAACGGAAUUCGCAGAUAGAUGGUAUUCUUGGCUACCGUCAGGAGUCUUUACUGCAA'
p427
aS'AGGAAUUAUAAUAGUAGUAAACCUACGGACCGCCGGACAUCCCACGGGUCAUUCGGUUUGAAACAGGAAUUCGCAGCCGAUAACCUCUGGUGGCUUCCCA'
p428
aS'GUUUACCAAAACGCCAGAUCGUUAUCUAUGCUUAUAACGGUUGAGGUGCGUAGGCUCAGAUUCCCAGGAAGAUUUAGCUUCUAGAAACACACAUCUUGUA'
p429
aS'CUGAUAAAUAACACUUGAUCGUACAGCGUAGGAGCUCGGUGGGGAUGUGUUAGAGCUGACUUCUUGACGACCCGACAUACUGCAGCAGCAUCUGCAACAC'
p430
aS'AUACUUGUAGUUUACUAAAGAUGCAGCCCUAUACACGUUCCCGCUUAUUGGUGCUCGUCUGUUUGGUGACGCACUCCGCGCGGGCCGCGAAGCCUCCCGA'
p431
aS'AAAGAUUUUUCCAUGAAACAUGCCGCGUACGCUUCAAAUUGUCAAGUGAAGGUCCCGCUAGUCGCAAGGAUCUCUCUUGCAGGGCGCUCCAAAAGAUUGA'
p432
aS'GCGUUCCCCACAAGACCGCGCGAGGUUGCCGUUAGGUUCACGGUCUCGAGUGCGAGGGUAACUACGGCCAGGCUGUGUACUCUUUAUAAUAGUACCAUAA'
p433
aS'CGUCAAUCUUCGUUUAACCGUAGACUUACGGUGUUCCACUGUGAAUUCAGGGAAUACGCCAGUUCCACAGCAGACAAUCGGAUUCAACAGAUAAACACGG'
p434
aS'GCUAAUAAUGAAAUGAUGUGCAACGGUUAUAAAGAUGUGACCCAUCCGUUGAUGGCAAGAUGAGGAGCAUGCCUUCGGAUGUUCCUUGCGAGUCUGUAGC'
p435
aS'CACAUCUAGCUGGACUGGCUUUCUGUAGCAAAUUAUAGACCCGGUUAGAGGGGUGGAUACCUUAGCCAUCCUUUAAGCCCGGUCCCAGUUCACACUGCUC'
p436
aS'CAUACAGGUUGUAAGCUCCCGAUCAUGAUAGCUUGUGCGGAAGGAGUUAGCCGCCAACCUGUUAAAACGGGUCUCGCGCAAGAGUGGGACGAGGGUUUUU'
p437
aS'UGUGCUUGUAAGCAUCGCUCGGUCUGAUAUCUAUCAGCUGAUUCUAAAAUGGGUUCUAUCCAGGCCGGAUAGAGAUCGAACAAAUCAAAGCCGGCGACCG'
p438
aS'GUAGAUUAAAGACCAAACCUCCGUCGCUGUCAGCACAUACGGGGGCGCACUUUGCAAGCGGAGGGUCUGCGCCAAAUUUUAGGAAGGGAAUUACGCACGU'
p439
aS'CAGGUCUGGCUGCGGUCGCUUCUGGGACGGUUGGUGAUAGUGGCCGGGUCACAUAAUGAUUUAACUUGGGAAUCAUUUGCACAGCUUACGCCUCUUUACG'
p440
aS'AGAUUGCCGGCCUCUGGUGUGGGCGUAGUUCGGGAGACAGCAUGGGGACUGUCUAAAGCCGCUUUCGAUCGUGCUCGUCCCACUCAUUUCUAUGUACUAU'
p441
aS'UCUUCUAUGAAAACGCAUGGAGGUUUUCACUACAGAAAACUCAAUUGUCACCGAACCUACAUCCCUGCUCCCCAGUUCCCUUGCUGAGUAACUAGAAGAC'
p442
aS'CUCGCAUCUGAACAGAUGAUUUGCACGCACUGAACUGUGUUUCGCUCGAGCCGUGAUGCCCCUACGGUUGACAACAAAGCAAACGGUAAGGAGGAGCUCG'
p443
aS'CGCCGAGGUAGUCAACAACGCAGUAAUUGGACUUAUAGACUAUAUCUUAUCGCACUUUUGGAAAGAUUUGGACGUGACUCGGAUGCAUUGAAAUUGAACU'
p444
aS'CACUAAACUCGAAAAAAAUAUGCACACGUCUUGUGCCACGAUUCAUCCCGUAGAUGCCCGACAACUAUGGCGCCCCACCGGGGUUAAAUCAGUUAUGUAC'
p445
aS'GCAACUGGGCUUAAUGUAGAGCCAAUCGAGCGGGACUUAACAUGCCUUCUCAUCAGGGGGGAGAUCACGCGCCUCAAGUGGUGUAUCACCGGGCAGAAAG'
p446
aS'GUUUUGUAAGAAGAAGUCACGUGGGGCGCACACUGUGGCUAGAACCUGUGUGAACAAAGGGGUAUUUGAGAGAUAGCCUGAGGCGGCCUCUACAGGAGGG'
p447
aS'AAUCGCACGAGAAUUGAAAUAAAUGACUGGAUUAUUCGAAAAUCACCUGGACUGUUGGGUACGAUUGUCAACCUCCCCCAAACCAUUCACCCACCGGGAG'
p448
aS'CGAGUAAUUGUUGUCGAUUCAAAACGUCGAGCUGAAACCAACUAUUUGUCCUCCAACAGGACUGGUCCAGGGUAUCAUACGUUAACCCAGUCCUAUUCAG'
p449
aS'GCGACCGCCACGGAUAUGACCGUUAAGCAGGGGGAUUCGGGAUAGUGUAAUUAGUUUUGAGCGGACUACCGGGAGUUUCAACCUCUCUGCACCUCAAACG'
p450
aS'CCUACUCGUUUGGUUAAAGUUGAUUGACUUGCCCCUGACCGUCCAGCGGCCCCUGGACAAAGAGUUGAAGAGCAAUGAGGUACAGGCGUUGUGCCGAGUU'
p451
aS'AGCUAAGCCAACGCCUCAGAAACAAGUCCGCGGCUGCACGAACUUAAACUCCGUAACGUUGCCAAAGACGUUUACCCCGAUGGGCGUAGCAAAGGGCAUG'
p452
aS'ACUUAGUAUAGGGACAUACCCAUGGUACACACCGUGUUAGAGCAACCACAUGACAUCUGGUCUCACGUAGGCGCUAUUACUCACAUAGAGCCAGAAGAAA'
p453
aS'ACAGCCCGACUGUACACUGUAGAUUCUUUCUCAAUAGCAGUUUCCCUAGUAAAAACGAGCGUUAUGGGUUAUGAACACACAUCGGAUCAUUUCGCAGCAA'
p454
aS'UGAAGUGGAAGCUGCCAGAGUUUUGCGCGUUUAGAGGGAAUUGAUCCUGGAAGUUCCUGUGAGCCUUUUGAACCGUAAGUAAAGCUUGGCAAAUUAUUAU'
p455
aS'CCGAUUCCUUCAACGUGACGCGCUACCAUCGAAUUGAGAACUAAUUUAUCUCCAUUGCGGCAGUCUAGCAAAGACAUACGCUAUCGCGCCAUUCACCAUA'
p456
aS'CCUGUUUAAAUGGAUUCGUUGACCGGAAACAAGCAAAUGAUUAGGUAAACAAGUUUUACUGUGAGGGUUUUAACACCGCAGCGCCGGUAGGCAGUGCUGG'
p457
aS'UUAUCUCUAACCUCAAUGACCUGACUGGCUCGUAAAGCUUUACGGUAUUCAUUGAUAGAGAAAAGCGGUGGGACUCGUACAUUAGCAAACUCGACAGCAU'
p458
aS'GUAUGUCCACAGUCACUGUUGGUAAGCAUUAAAGCUUAUUAGCGACUUGGCCUUCCGUCAAUUGAUGAACACGACCGAUACGCGUUUCGGAAAGGUAUUU'
p459
aS'CUGUAGUUCAGAAGGAGGCAAAGUGAUCUAGAGAGUGCAAAACGCUAAUCAUAAACAUAUCCGGAAUUCAGCACCUUACUCCUUCGCUAUGGUAGGGUCC'
p460
aS'ACUAUGACACAGCUAAAGUCGCAUGGGCAGACCAGUGAUACCCGCUGCGGAGGCACAAAUUAUUUCGUGUGUAGGUAACGGCGGGUAAUGCCCAUCGCCC'
p461
aS'GAUUAAUCGAGGAUCGGUACAGCCAGCGUGAGAUGACUGAAAGAGGCUGUGGAGGUGUAUCCACAGUCUCGCGUUUCACACAUCGCACUUAAGGAGAGAG'
p462
aS'CAGUGCCGCUGUCACCUAUUAGCACUUGGCUCAGCAGGUAUUGCGCUUGACGGCUACAAGGACGGAGGCGCGUUCAUGAAGCUAUGCCGUACGAAUCGCA'
p463
aS'GACUGAUGGCCAAUAUAAAGGUAAUACCAGGCUGGAACCGCUUAUUGAUUGCGUUCCCAAGAUUUCUCAACACGCCUGGCCGGCCCGCGUUGUAAACCUU'
p464
aS'AAAACGGCUGCGAAAACAAUGUGUGGAACGGGGAGUGUUUUAACCGAAGCAACCGCCCAGAACUAAUUGGCCGAAUGUAUUGCUGAACAGCACUGCUGUU'
p465
aS'CACACCUGCGGGUGCUCAAGUCUCCUACGCCUGUCUGUGUUCAGUGCAUCAGGAAACGAAGCCAGAUAGUUUCUAUACCGUGCGACACAAUGAGUUGGGC'
p466
aS'CCACGUAGAUCACGAAUCGGACUCGUCAGCCUGAGUUUACCGUUAAGCCACGACAGGGGUGCCGCGGUCUGCUCCGAUACCCUAACUGCUUCACGUUUCC'
p467
aS'AUUCUGCGAUGAAAACCCAUCCGCCUAUAAAUCUCUUGGUGUAACGCUCUGUCUGCCAACGUCAACGGAGCUGGUCUCAGCUAAGUGCAUUUCUGAAGUC'
p468
aS'CGCCUAGGCAGGAGCUAAUUGGCCUCUUUCCAGAAAACCACGCUAAGAAUCAGAGGCUUGGAGGACAACAAUGGGUCCGCUUUGAUACAAACCGGAUGCU'
p469
aS'GGGCAUGGUCCAGACAUCGCGGGACAUGCCUCCAUUAGACCUCGCGCUUUAGCUCUCAAACGCUGUAGUACGUUGCGGUUCCCCGCACAGGUCUUCACGG'
p470
aS'CAGCAGGGACCGCGUCUUGGUCAGGACCCCCGCCGCCAUCUCGAGCCCCACUAAUUACCUAAUAUGUACCCAGCGACUAGAAACCUCGAAACUGCCCCCG'
p471
aS'UAAAGUGGGACCAGUCGUGAACAGCUAAACUGAUCGUCUGCGGCUCAGUGGCAUCCAGAUUCUGUACACAUUUAACCCGCGAUCGUCAAUUAUGAUUAGA'
p472
aS'AAAUCUAACGUUAACAUGUGUUAUACUCUAAGGCUGAAAACGCAUAAGCUACAUCUGCCUUACAUCGUCCAUCGGUGCUAUAUACCAUGUGCGCGUGAUC'
p473
aS'ACGUACAAUUCUGUAGAAAUAGAGUUCUUAGGGCCCGGGGACUGUCCCGCCAGUCAUAGUGUGGCGGACCAUCUGGCCCAUGAUGUUAAUUAACCUUACU'
p474
aS'UGGCCGCUACAUUCAUAGCGUGGUGGGUCGGUACACUCCAGAAAGCACUACGGCUAGCAGGGGGCUUAUUCAUCGUACUCGCAUCCCCUUGGACAGCCUC'
p475
aS'CGAUCGUCGGUUUUUCUAGUCUCAGCGGCGUGUUUCGGGUCGUCCCGAUCCCAGCCGCCCGACGUUUAGACUUCGCUCAAGAUGGAGCCGUUAGGCAUGG'
p476
aS'UCAUUUCUAAGAGAAUGUACUAUUCAGGUGUGACCACCAUUCACUUAUACGUGUCAGGCCGAGGUAUAAGCAGUUCAUACGCCAAUGGUACUAGAGCAAA'
p477
aS'UACGACUGCCAUCCACGACGCACAGCGGGCAGUCCUUGAUCCACUUAUGCUUGAGGGAUUACCGAGCCCCACCGCAUGUGCCCAAAGACAUGGCCAAAAU'
p478
aS'UCGGCAACUUUGCCAGCUGAUCUUAGGGGUGAGCCUCCUGAGCAUGACGUCACUGUCGUACAUGACGUAAGCUGGCAACCCACGUUGACGGGGGUGGACC'
p479
aS'CGUCGUAUGUCCGGUCUUUCGGUCUGGAAAUUAUAUCAACGCAUCUCACUAGCGGUAGUACCAUGCCGAGUCACAACUAAUGUCAUAUCGUGUAUCGUUA'
p480
aS'ACGACAGCAUGCGUCCGUCAGGCCGUGCGGCUCAUAUAUACUAAGAAUCGGGUGAUCCUAUUCCAUUCUGCAUUAGUCUUGAAACCAAGUCAUAUAGAAC'
p481
aS'AUCUAGUCGUCAGUGCUUACAAUACCAAUCGGUCUAACGUUCGUUUGGCGUUGUAUGCCGACAGGCUAACACCGAAGUUUCACAGGGUACCACUUCUGCC'
p482
aS'AUGACGAUUAUGUGGGCGUGGGUAGAAAUACGUCCGGAGCUCAGCACGUACUUCAUUCUAGAGGAUAUCGUUGCAAUGUGAAUUUAUACACUGAGUUCCU'
p483
aS'CUCCAUUGUUUAAGCGGGUAAGUCCAGGUGUACCAUCCUAGGCUUACGAAAUGUGUCGCUAUAACGCAUUCCUCGAUCCCGACCUCAGCCCCAAUUUACC'
p484
aS'AUAGGCUUACUCCCACAUGGUACGAUCAGUGACGCUCAUGGGCCUAAGCAGCUACCAAUUAGGUUGGCUGUGGAGAUACUUCACAACGCAUGCGAUUGAU'
p485
aS'UAACCUUACAUAUAUACAUCGAUGUGUGACACCGUCGCUUGUCCCAUUGAGUACAGUAAUUCCAUUCGGGAUUAUCGUGCAAUUUCACAUUCCACAUGCC'
p486
aS'ACAUCGCUGGCCAACCGCCCACCGAGCGUGCCAGACUGGCCUGGUGCGUUUUCAGUCCUGUCGGCGUAGGCUUAACAAGUUGCGUCCUGAUACUCGAUUG'
p487
aS'GGCCCACAAGAGUUUCGUCUCCAAGGCCUUCAUCCAUAUUUGCGACCAGGUCCCUGGGAAUCGGGAUGAGUAAGACGUCUCUCCAUAUCAUGUACCGUCG'
p488
aS'CUCGUCAAUGAGAACUGUAAUCGCGUCCGCCAACCGAGUUCCGUCGAAUGGUUAGCGUUCCAGGAAAAGGAUUACUGUGGACCAUUGGAGCAGUGGUAAU'
p489
aS'CCAACCGGUACCGCGUUAGCCUGUCUCGAUGGGCGUGCUAUACAAAACCAACGCGACUUAAUAUCUGCUUAUUGAUGUAGUUCGUGGCUACGCCUUAUCC'
p490
aS'AGUAUAGUCACUUACUCAGUGAUCGGUGUAACGGGGACACGAUAUAGUUGUAGAUUCGAUUUGUCAAUCGAAUGCAUACCGUCAAUGAAUGACUAGUUUU'
p491
aS'GUUGUGGGAGCUCCCACUUAGCGUUUCUAGUAGCCUUAAUCAGCACCGUUAGAGCUACUGUGCCACGUACUUCCCGAGUGGUUACCGGGCUGUAUAGACA'
p492
aS'GACAUGAGCCCAUUGACACGAUGAUUUCGGAUAGUGUCUUAGACACACAAGUGCUAGCGGAACGCCUUCUCAGAAUGGGGUAGAAGUACCCCCGAAACCC'
p493
aS'CCUAUAGUCUGACAUGCACUAUCUUAUGAGAUGUCGAGUCCGUUCUGUGGUGCCUCUCUCGUCAUCAAAUCUGAGGACAGCCGUAACCUAGGUCAUCUCG'
p494
aS'UUUGAACUGGGCCACAUGCUCAAUCCGUAUAGGAAGGAUGUAUCAUCACUAUCGGCGCUGGUUAUAAGACUCAUGAGGGGGUAAUGGUACAGUGGUGCAC'
p495
aS'GGAGAGCUAAUUGUGUGUGGAGCAAAAUAAGACACCGUCUCACGAGCACCGGGCGAAUUGACUCAACGAGCCAGCGACGGGCACUAGGACCAUUUUGCGG'
p496
aS'GGUCAAGUUACCACUGUAAGCCUAUGGACCCCAGAGAGUAUAAACGUUCGCGGAGCUCCGGCAGCGAGCUCAUAGGGCGACAGUGUAGCAAGCCCUUGGG'
p497
aS'CAAAAGUUGGAACGCUUUCUACAGACUGUUUUGUGCCAAUGUGUCCCGUAUCACUAAGACGACCGAAUCUUUCGCAUCGGAAAGAUAAUUCACCCCCCGG'
p498
aS'CGAAUAACUUAGUGUUGGUGACAUCAGCGAAACUACGUGUUUAUGUAUCGGCUGCGUUGGGAAAAUGAAUCCAUUAAAAAUUUAACAAUCGGAUAUUCAA'
p499
aS'CAUUGGCGUCUAGGAAGCGCUCUGACAGCGGUCAAUCUCCAAGUUGCCACUGGGGUAGAUGGAUGAACUCCUUCUCCUCGGCGAGCCUUUUACCUUUAAA'
p500
aS'UGAUCUGCAAGCGGCAGCUGCCUUGGGGCUCGCAUUAACACUUACUAUUCCCGGUCUAUGCUGCUGAUAUACGGUAGUUAUGUAGAUACACACUCGCGGU'
p501
aS'ACGCCAUGGGUGGAGGCUUUGAAAGCCGACCAGACAUGGGCGUAGCGCAGUCGAAAAGGUUGGGAGUAUAAGCGUCCGUUCUAUAUUCGUCUAGUUUGAG'
p502
aS'UCUGUUAUGCACCUGAGUACCAUCGUGGGCUAAUGGGCAUAGUUCAUACCCUAGGUUAAUACAAGUCGAGGUGAUAGAGCUGCGUCGACCUCGGCAAUUA'
p503
aS'CAGACUCAAUUUUAGGUGACAAAGUUCCUUCGCGAUGGCGUCCGUGGGGCGAUGAUGAAGUGAACCGUCUGACGAAUCUCCAAGAUCACGUGGGAUUAAG'
p504
aS'UAGUCGUCGAUUCCCAGAUAAGAGAUCUUGGCACCAACGCUGUCUAACGCCAACUGGCCCUAAUCUAAUUUCCGCUAAUAAACUGCCAUGAAAACAUAGG'
p505
aS'UACCUCACAGUUAGUAGAAGUGUUGUCACGCUGCAGGGUAUCAAGGCGGAAUGAUAAGGCAUGAUCUCGGGUACCACUGGAAUGUAGCGGCUAUGCGAUU'
p506
aS'UGUUCUCGACAACAUAACGUUGCCAUGGGAAAUGCGAGCUUUCAGAGCGACUGAUCCUCCCUCGGACCUUGACGAGUUGCAAGGGACUUGAGUGUUAUCU'
p507
aS'AUGUUCCGGAGUCAGUGUGUGCUUUACGGUGGACCGAGGGGCUAGGCCACCCCCGUAGCACAUGUUUUUGCGUUGCUGCCCUUGAUAGAGAGACCCGGGA'
p508
aS'GUCAAGCGAACCGCCUCGUGCCGAAGCUGAGAGCAUUACAGAUGGUGGGCGUGCUCCUUGAAUCUCCAACGGCACAGCAGAUGGGCCGAUGCAUAGGCCU'
p509
aS'CUGACAGAGGCUGUUGGAUCCGAUGCACUGAAUUACUGGGGCUCUGUUAGCGGAGCUGAUUACCUCCUGUUACUGUUUUCGUCCUAAGGCGUUUUCACCC'
p510
aS'GGCUGACUCCUCGUGGCCGAGCCAACAAGUGCGCGUCUUAUUUAUAGGCACAUGCGUUUCGGUAGAACGCGGGAAGUAGUCCUGGUUCGUAUAAGUACAG'
p511
aS'AUCAUUGCCUUCGACCUGCCAGUGGCUCGGACCGGGAGGUGGCUUGAAUGAAUAGCGGGUCGACAUACCCAUAGUAACAGGACCUGCUGGAACUGUUGCA'
p512
aS'CGUAUAGAGAGCGACUGAAGUGUUCAGCACUGUGUGCAUCAAACUUUCGGGGGUCCGCCAUGGGGAAUGGAGAAACCGGUAACUGCCCGACCAGUUCGCC'
p513
aS'CCAGGACUGAUUGGACCUACCUGGUUGCUAUCCCCCGGGUCAGCACGCUCCCGCUGCUCCCAUGGCCAUCAUUAUGACCGUCUGUACCUUCGCGAAGUAC'
p514
aS'CCCGUGGUGAUGAGGUACGACGUCUUAAACCGCUAGACGUUGGGACCCCUCGUCUACACCGAUCCUUCUUAGCCAGAUUGUUGCACGAAUCCCAGGCCGG'
p515
aS'CGCCUGACUGACAUAGCUCAUUAGGUGACGAGACAGCACGAGCACCACCGCCCGGGCGCUGAAAAAUCAAACUCCCAGCUGUUCCUGAUUUGAACUAACA'
p516
aS'GUGUAGUGCACUUCUUCUACGGAUAUGGAAUAUAGGGGCUCAUCAGUGCGCUCAAGGUACAUCCGUAUAUUUGGCGCUUUUUUAAGUGCAACCAUGACGC'
p517
aS'UCGCGAGCAGUUCGGUUAGAGUAAAUGUUGUUAUUUGUGAUUUCCAUACAUCUGCUCAGUAGAUUAUCUGGUUCCGGACCCAAUCUAUUUACGUCGCCCG'
p518
aS'ACGCCUUGUCAGGGAAUCAGGUCCCCACCUGGGACGCGGGACCGAAUUGAACACAGACCUACAUAUCGUUCUAUCGCCGAAAGAGCUCAGUAAGCAUGGC'
p519
aS'AGGAUCCCUGGUUUCGAGGUCACAGACGGUCUAGUAGCCAUCUUGAGAUGUAGUAAAUAGGUGCCCUGUUAGUUCACAACGCAUCAAUGAACGUCAAGCU'
p520
aS'CAUUAGCAUUAAGCUUGUAGCACCCUUGGCAAAACAACGUCAAGAUGCCCAUCAGCCGAGUCCAACGUGCUUUCUCCUAUUAGCGCUUAUGAGAUUUGAU'
p521
aS'AUGUGUUCCAUAGUCUUGUCUCACUGUGUGACGCCCAUCCGGUAGGUACUACGUUAGAGCUUGCGGAGUGCACGUAGUUCCUACGCUAACAACGCAGAGG'
p522
aS'UGGUCUGACAGGUUUAGAGAUUGAAUGUCCAUCCAGGGGAGUAAGAGCUGAGUAUCGGCCUUCAUAUACUCUGCUUGCUAGCCUGGCACCUGAUUAUACU'
p523
aS'GUCUGCCAUAGCUCAAAAAAAUGAUAAACUGACUUGUUCGACAUAUGCGUACUUUUCCAUGAUCGCACCGAGUACGGCAUAGGUUGCCGUGAAGGAAUCU'
p524
aS'CGUUAAUGAAGCCACACGAAUUUGAUUAAUGCGGCGAGAGCGAUUAGACAAAGCUUGGCGUUUUAUUCCGAAAUACUCGCCACCCAUGUACCCGCAUCGU'
p525
aS'GAGCAAAUCAAACUCUCUUCGAUGCUGAACUUUGGAGUCUCUGGCAUAUUAGGCUUAGGUUGACUGAAUCGGGGCCUCACGGCUAUCACGUUGACUAAAU'
p526
aS'CGGCAGUUACAAUCUCGAAUUGGCGGUGUGUAUACAUCUUGGAGUGGUGUCUGCUAGGGACCCCCGGUUUCGGGUAUAAUGCGACGAGAGAUAUAUAGGA'
p527
aS'ACAUGAAUAAACGAUCGUCUAGUAUUUUAAGUACGCUGUGUACGGACUCGUGACACUCCAGGUAAUGCUGACUGUAUGGUUGCGUCUUCUAGUGCACCGU'
p528
aS'AUAGCCACUCGCUUUUUACGGUGCCUUCUAGUCCGACCACACCUGUCCCGUCACGAGUACCACGUAGUGCAGCGAAAUCCCAGCGUACUGUAUAGCUCGA'
p529
aS'UUAACCAACCCCUUGAUAGCUCGACAUGUCCCGAGGAAACAAAUAAUGUCUUCUUCGCUUCACUGCACGGAUUGCGGCCACGGGCAAGAAGGAGUGGCGA'
p530
aS'GCUAUCCCCCUUCCACCUGUGCCUAAUGAGAUUGAUCUCAGCGGUUGAUUAGGUUAGCUUGAAUAGACAGGUGCCUCGUAAGCCUUCGGACUCGAAUUAC'
p531
aS'UGCCACCAAGUAUGCUCAGUAGCUCUGUAGGUUAAAGGACAUACGCGCGUUCUAUGUAGGACACGAAAGCCCCACUCUACUCUACGAUAGUGGCCAAUGG'
p532
aS'UUAUAUGGUAGUAGCCGCAACGGAUCUCAGAUAAUUGGUGCGACUGAGGUGGUGCAGUAUACGCAUUGAUCUGGCUUACCUUGCCUUAGGUUGCGGAUUC'
p533
aS'UGUCGGCUCUCCGCGUUUGAUUCCCUUCCCAUACCUAACUGGUUGUGAGUCAUAAGUAUUAUGCGCACCGUGACAGCAUUGGCAUUGCGUUGAAUGGGUA'
p534
aS'UUCUUUGCUUACAGCAACCGUGCCAGGUGCGGAGACACUCCGCCGGCCCCAGUUAAGAUUAGCUUCUCACCCGCUGGAAUCACUUUCCCUUUUGAACCCC'
p535
aS'CUAGAGUCGUUAAUCCGGUUCGUUCCACCCUAAGGUCAAAGUAUCACCGGUCAUUUACCCAAAAAGUAAGUUAUUAUGUUAGUUCCUCGUGGUGCUGGCA'
p536
aS'UUCCUACCACUAGUUAUCCUGGCCCUGUGGCGGAUUUGGGGAGGGGCUACAUAAAUCGUAUUUUGAAGGAUCAACUCGCUAUCGGAGGUGGUUUCGUGUU'
p537
aS'CAGUUGGAUCCAUGACCCAAUAAAUUACUCAGCGAUGGCAAACCACGAAGAUGACAUUAGGCAUCGAACUUUCCAAUUUGAUGCGGCCGAAUCAGCCCAG'
p538
aS'GGAACUAGGCAUUCUCAAAACCCUGGACACGCCCCCGUAGUGCAUCACAGAGAAGAUCGACAUGGUUGACCUAGAUCCCCCGACAAUUAAGGCAUACGAG'
p539
aS'ACAAAACGUAUUUUACUUACUAAGCCUGCACAUCGUCCGGAUAGUAUAGCGUUGAACUGGACUGACCAUCCCCCCCUAGCCGGCUAAUGUGUGUGACAGC'
p540
aS'UUUUCAAUAGAAGAAACCCCACGUCCCCUACGCUAACCUGGCAGUGAUUAAUGAAGUGCCAGCAUUCAGAAAUGCCUCUUGUGUUUUUCCUUAUAGGCUU'
p541
aS'UGAAAGCAAGUUACAUUGAGUAGUACAUUAAAGUGCACGGUAGCAGUAUAUGCAGCAAAUCCUAUAUCAAAAACUAAAUUCUUGAUCCGCAGAAAUGGAA'
p542
aS'CAUUAACGACAAAGCCCCGAAAUUCCUGCGGUUAUAGCCCUUCAGCGGACCUAGUUGAACUCUGUCACGACGACGUUCGGGGUACAUCGAUAACUUGGCG'
p543
aS'UUAGGGUACAUGUAUGGUUUAAACUUAUUAUCGGUUGUACGCGUUUAUCAGCCUACUCUUCUCGCCCUAUAAACACACACCCGUUCUCGGGCCAGUAGCG'
p544
aS'UUUGGACUACUGCUGGAUUACGCUUAUCGAGCAUCCCGAUGAAGGAUAAUAGUCUCUAGCUUGAGGGAGAGGUUUCUGCUGACCUUAGACAACGUUGGGC'
p545
aS'AUCGCCUGGUUGAUAGCACCUUGCCUCGCCAAAGGACAGACCGUGUAGUGCCCGCAUUGUACGAACAGUGUGUCCUCAUUCUGGACCGACAUUAUGACCU'
p546
aS'CCGUAUCACAUCCGACUACCACGCGAGCACCGCAACUCCGCUGCGUGUGACUAUAAUACUCGCCGUAGGCCCUGCCCACAUACCGGUUCCCCGAUACGUU'
p547
aS'GACAUACGAUUCGCGGUCCCCCAGCCUUAUUGUCGAAGUGCGUUAUAUUCUAGCAUCUUAGCGCACGCAAAGAAGCGUCGAGCGUACUAAAGCGCCCACU'
p548
aS'GCCCGUCGGCGAUUAUCACAAAGUAAAUAUAGAGUUGGGAGCAAACAAGGCUUUGACGGAUACUAACACGCCGAAUACCCCUCAGAGCGCUCGCCAUCUC'
p549
aS'CCCGAGACGCGGUCAGGAUUCUACUUCAACAGUGACCGUAUGAUCCCCUGGGUCACUAUUCGGCUGGAUUUCCUGCGAAUCAAGUUCGCUUUUACCAGAA'
p550
aS'AGUCCAGCAUUGUGGCAAUGGGUAGCGCGAAGGUUAAUAAAGCGUGGCGGGGACCUGUCGCUUUCUUUCUUUUGUAGUUCCUCGGUCCUUACACGGAAUU'
p551
aS'GUGAGUUUUUAUCCACAGUAGAGGGGCGGACGCCUAUACAAGACCCCUGUCGUACACGCACGCGUUUUAGCCCACGAGCAAAGUGACAAAAUUUAAUCUC'
p552
aS'GCCGGUUGAAAUCGCGGUUGAUUCGGCAAUCAAGACCCAGAGCUAACACGAAAGGGACAUUACGCUUUAGAACUCUUCCGUGAACGCACCCCAAUAUAAU'
p553
aS'UCCCUAUAAUUCGGACUAGAUAAGAGAGGUGUUAUCCUGUGUUGUGGAUCCCCACACAGCGCAGUUCACUGUUAACUCUCUCCGAUAUCACGCACCCUAA'
p554
aS'UACCCUUCAUCGUUGAAUAGAACCGGUCUCCUGAGCAGUCGCCAUUCACGCGCAGCCUCACGAUGGGACGGUCAAGAGCGCCCGACUGAACCGAAGCUCG'
p555
aS'AACUGCCGUCGUCUCGUAAUGUCUACGCCCCCCCGUUAAGCGUAGUUGCGGGCAGAAAGAAUUAUUUGACUGCGCCUGCACGCCUCAGUGGGGUUCGGUU'
p556
aS'AUGCUUUACACUGUAGAUGGACUGAGAUGUAUACGCACAGCCUGUUGCCUUUGCUAUUCAACGUCUUCCCCACGAGUUUACUCAACCUCUAGGGACGCGU'
p557
aS'CCAAGAGCAUCCGUAGAUUUGGCUGUAAGUCAAUAAUAAGCUGUCUCGCCGGAGUAUUGGAACGAAAGCUGUGGGUUUGCAGUCGUGUCCGCCAUUUUGU'
p558
aS'ACGACCAUCAGCUAGCUCACGUCGCUCAUGCAUGCCACUGACACCUUACUGGGGACGCAGCCGCCUCUUUCUAAGCAUCGACGGGGUUGAGCUGGGGGAU'
p559
aS'CGCCGAUCCACUUCAUCGUAUAGUCUGUACUUCGGUCCAACUGGCGAAUUUUAGGCAGCCGAAUAUACGUCCGCUGCGGCGUAUCCAUAUAGACGCUCGC'
p560
aS'GCCUUCAAAGAUGCCGUUUAGAGGAUCUGUCACGUUGGAGAUUUAGCAGCUAAGGUCCUCAGAUUCAGGACAAACGUGCUUCGAUUCAAGGUACUCGAGG'
p561
aS'ACCGGUUAUCUGAUGCGAUCACAUUACAGAAGUCCUCACUUAUUUUACUGGUCAAGCGUCUUUUCUGCAGAAAUCAGUUUCUCUGGGCUUAACACGCUGG'
p562
aS'UACGGUCCAAGAUGGAGCAUUAUGAGGCUGAUUAAUCAGGUUUCCGUGCUACGCGCGAUUAUUUGUACAAUCAUAAGUCAAUGAUAGCUCGUUGGGACUU'
p563
aS'CCGUCUUGCUUAUAGGAGGAACGACCCUCCGUUAAAAAGCAGCCCAUGCUUCCGGUAGCCUGCUCAUUUCUUUACUCGUAUGCACAGGUGGGUAUCCCAA'
p564
aS'UUGCGCACUUGCAUUUGCUUUAUCUUCAUAAAUUCGUUAGUAGGUGUUACUUGGUAUAUCGGGCAUUUUCGCGCGACACUCGGGGUAAUGCGAUGGUCUA'
p565
aS'GUGUGGAGGACCGCCAGCUAGCCAGUUCAAACGCUACAGAGUUCGGCGACGUGACGGCUUCGCGGGUUCCUCUCGUGUUUGGCAGGAGUGCUCGCUUUCG'
p566
aS'UACAGGGCUUUCAAAAGACAUUGGGCCUCUGAGCGGCACUGAGGAACCAUACUUGACAUGCUACGCCAGGUGCGUUUUGCGAAGAAAGGGGCCCGCUAGC'
p567
aS'CAUAAGCACACCACAGUUGCCCAUGCUAACCUCCCGGUACGCUCUAAAGAUUGGAUAACCACAUAUCGACUCGUCCCGCGCGAGUUGGCCUUAUUUUAAG'
p568
aS'UGGGCUGUGGCUUGUCAAGACCGCCAGGAAUAAAGAAUAUUGCGUAUCUUGAUACAAAGGGUCGCGAAAAAUUUCGGUAGGUCGCAGAGCACGGAAGGAG'
p569
aS'AGAGCAUUCCGGACCGCGCGGGAAACGGUGGGAGUGAGGAGGGCAGGUGACAGCGCAAGCGUGCCUGACGUUGUGUGGGCCCUCUCUGGUAGCAGAGCCG'
p570
aS'AGGCGCGAAUACGUUUCGCACGAGAAUUAAUCCCAGGACUGGAUAGACAUGCAGCGAUGCCCUCGCCUGCUUGUGGCUAGCAUUGCGGCGGCUCACCCUG'
p571
aS'UAGUGAGACCCUUAUCCUUACGGAUUUCGAAUCCCUUGGGUAUCAUGGCUCAAUGGAAUUGGGCCUUUGGUACUGUUGUCCCGGGACUAGUUAGACGAUA'
p572
aS'AAGAUAGCUUCUAGGACUCGAGAGUCGUCUGCCACGGCUUAUGCAUUGAUUGGGGUAAAAUCAGGGUCUUUGACCGAAGCGUCACGUAUUUAAGUAGGAA'
p573
aS'AGCCAAUUAGGAGUGCUCUUUGAGCACCGUGACAACGAUAUGUGGCAUAAGUCAAGUCCUACCGUCGAUAGGCACCGUACCAUCAAAAUAAGUCCGCGCA'
p574
aS'CAAAACAAGCAUAGGGUGGGCUCCUGUUAGACCCAGACGACUCGAUCGCCGUCGAUGCCAUGGCCAAACACGUUCCCUCCCCUUGGGAAUUACCUGUCUA'
p575
aS'UGCAAAAACUGGCUGCUCGCUUACCAAAUACUAAGAUGUGGCAGUUCGACCGGAAUAACGAGUUGACCGAGUGCUCUGCAUAUAGCCCUACUGUCAUCAU'
p576
aS'UUCUGGUGGCAGCACGCCUUAGUGUUCCCAUUUUAGGAACCGUUACUCGUUGGGGCUCAUUAUUCCAGACCCUCCUGUUAGCCUGAUGAGGUCGUAUUAC'
p577
aS'GCCCCAGCCCCAGCAUGGGGAUCUCUUAUGUCCGCAAGACGGAGCGUGCCCUUUUUGGUACAGUGGUCGUUGAUGAAGUGCUCACAUCUGAAAAUAACGA'
p578
aS'CCGUACGCGUUCCUAUCUAUGUCUUUAGAGCUAGUCCAGGGCUAAACGAGCAAGUUGUUGAUAUGGGUCCAUGCUUCAACUCUCCCCGAAGUUCUAGCUC'
p579
aS'UUCUAACAAUUACUAGCUAACACAUGUAUUCGGGGGUAGGCUCGGCUGUGAUGGAAUAAACAUGUUUGGAAGCGGUCGUUGGGACGAUUACACAGGAAAC'
p580
aS'UCGAUGCUGGAUUCAGUAUAGCACGGCGAUAGUCAUAACGCGGAGAAGGUUGCCUGUUAGGGCCCCGGUGAGAGGGCUUACAUUUCUAGUGGUGGUUAUU'
p581
aS'GCAUGGUCUCGCCGCGCCCGAUUUGUACAGACUCUUAGUCAGGGAACCAUCAACAGUAAAGGGGCCACGCUAGGCGUACGCUGGGGCUAUGAGGGACACA'
p582
aS'GUCUUGUCGCGGUCCGGAUGCAAACAGGCCAUGUAGCCGGGGCAAACUAGCCGCUUACCGGCUUGCCAAUCUCUCAGGGUCCAGCAGAACCAUAGACUGA'
p583
aS'AUGCUCAAUACUGGACAUUACUCGUAGCGGGCAGAACAGAUACGGACCGUGGCGCAUUAGGGUAACAAUAAGUUCUUAGUGUGAACCCGUGAUAUUCAAG'
p584
aS'UUCUUUCCGGAAGACCCAGUAAAAGAUCAGGCCUACAUUUUAGGUCAGGGAUCUGCUCAAGCUUAUGUAUCCACCUCCAAAGCCUUGCACGCGCCCCAGU'
p585
aS'AGUAGCCAUGAAUAAGUGUCUUUGCUAUCACAAGAGAGCUGAGACAGCAGGCCGAUGAUCUCAAUAAGGGCGUCGGGAACGGCCCGCCAUGUAACGUUUG'
p586
aS'UCUAAUUCUACUCGCGACGGAUGGACGGACUUGCGGGCUUCGUGUGGUUUUCCGUCUACCUCAAGUGAAGCACUUUUUUGGGCGGUUGUCAGAUUCAACU'
p587
aS'UUUCGUUUUUUCAGGUCGAAACUUCUUAGCACGGAUCUAUGAAGCAAUUCAAUCCCCCACGUGUUGGUAAAUCGAAUAUAGCGAGAAGCACGUUAUUUUU'
p588
aS'GGGGAUCGUAUUAGAAUUCGCGUGCUAUUGCAGGAAAUCAGGUGGCUUUGACAUAAGUGCAGACUCUCGGAGUCAUCUCCUACCAUUUGCAAAUUGAUUC'
p589
aS'UACGUCGAUGCGCGAGUUAGUCAUUCGACCCGAGCUGCACGUUUGGGCCGCAGCUAUGUGACCAAGGGCGGGAUGGUCAAUGCGAGAUACAACUCAGUUC'
p590
aS'CUGCAUCUUAGCGGAGAACGUGCGGACCUCAGCAUGUUCAAAGGUUCUGAUUAGGUAGCAACUCAAUCUGGACGGUGUGUCUCCGCGCGCCCGAGCACAA'
p591
aS'GCUUGCGUGCGAUCCUUCAUAAGUUCAACUCGUUAAACUAUCGCUUAAUUACAGUCCUUUCCCGUCGUUUCAGGUUCAACUAUGAAACGUACAGAGGUCC'
p592
aS'AACGCGUGACCAUUACAAGGAGAUGAAUCGGGAUUAGCACCGCUCCCGGCGUAGUGCUUCACACGACACCAAGCUGCUGUCCGCUUAUAGCUUCAAUCGC'
p593
aS'CGCGUGCACAGAGACCAAAGUUCACCGCUAGACGGGAGUAAGCUCAUUGCCCUCGCCUCUCCGUGGCCUGAAAACGUGAUCCUGUAUAUCCAGACUGUGA'
p594
aS'UUGCAUAUUAAGAUACGCUCCGUGGACCAUCGUACACCCAUUGUCUAAACGGCCGCGCAAGGAAAUGGAGCUUUUUAGGUAGCGUGAGCUAACGUGUUGA'
p595
aS'CGGAACAUGUGAGUCAUUUCGGGAUGCAAGACAUCGAUUAGUGUCUAAGGCACUUCCCGCAUAUCUGCGUUCCCGUGGGGACAUAAACGUCAUAACUACA'
p596
aS'AGGAAUGCGUGAGAGGGCCCAAACGUAUUAUUUGGUGGGACCCCCUUCAGGGGGUACUGUGUUACAUCUUGAGCUCAGGUAGAUGACUCAACCUCUCUCU'
p597
aS'UAAGCAUCAAUCACUCAUUGCGCUAAAAACCAAUACCAUUGGAGCUAGAGAUAAAUGGGAACCUAUCUAUCACAUCGACCUUGACGUGGUCUGUUGGUCC'
p598
aS'GGUACUCUAAGAUGUAUGGCGCUACGUGCGGCUCGCCGGUUAAAUCACACCCCAACAUCAGAUUAUAUGCCGAAUCGGCCUGAACCGCGGGUCGCACGAU'
p599
aS'AGAACGAUCUACAUGCACGAUUAGUUAUGACCUUGCGGGAUUGCUACUUUAGGAGCAUUACGACUGGGAGAAUACCAGAGACGAUUCCCGGGACACAUCU'
p600
aS'CAUCCAGAACAGAUUGCUACCUCAUUACGUGUACAACCGCUUGAAGACAUCUGUUGUAGAGUUAAAUGGGGCGGAUCUAUGCAUAGCUCAGUAUGCUGUA'
p601
aS'UCUGAGGGAGGGACAUGCGAACGAGUCGGUACUAGUGCGUUAACCUACCUUCACACCCAUAUACCAACUCGAGAGGGCACACCGGGAUAAGCCUGGAAUA'
p602
aS'CGCAAGCCGAUGCAGAGUAUGUGUCAAGCUAACCUUCAGGACUCUCGAAGCUUAGGAUUGUUGUCCGCCAACUUAACGUGCUAAAUACACCACCCUGCGA'
p603
aS'CCCCGGCGAAAAAUGUUUUAGAUCAGAUCAUUCAGACGGAGUUGGCUACGCAGCAUAGGCUGGGGUGUACAUGCGUGGCGGGAUCUAUGGGUUGAACACG'
p604
aS'UCAAGCAACAUAGUGACAUCGGGCGAGGGGCGAUUUCAAGCGGUAUGUAAUGGUGGAUUGCGCUUAUUAAAACACGGCCUGUGCAUGUUAGCCCGAUGCU'
p605
aS'ACCCGAACUACGAAUGCCGAGCGUCGUGAGUCAGACAGGGUAACUAAGCAUCACAUUAAUGAGCACCCCUACAGGCAUAUAUGGAGGGAAUCUGAAUCAG'
p606
aS'GGACUGUGAACGAAGAAUUCUGGCCUUAAUCCACGUAGCGUACGUUCGCCUAAAUAUAAGCGAGUGCCCUUAGGAAUUAACGGUUUUCGGGCGGCGCACC'
p607
aS'CGGCUGAAAAGCGCAUCCUAAUUAACAAUCAGCGGUAUCAAAAUGUCGAUUGUAAACUUAGUCCGACCCUUCAGGCGCUGAGAAGGGAAAAUCUCGAACC'
p608
aS'GUAGUUCUCGUUCCGGGGAAGCUGGAGGCUAUUCGGGCAAAGAGUUAGGUUCGAUCCUUACGAAGGCUCGCCGUGGGUCGGGAAACUGUAAUGGAAUUGA'
p609
aS'UUAACCAUCUUGUAGAACCAUUGUGCCUUGCUUGCCGUGCCCUAAUGUAAAUUCCAUUUGGGCCGGACUUACCCAUCCCAAUCAUAAGUUCCGGGUAAAG'
p610
aS'GCUUCCUGUAUUAACUGAUGCCAUCCCGAACGUUUGGCAGGCUGGUCGACAAAAACAGACAACUAGCGAGUAGAGCAAAUUCAUAGCCCGGGCCUCAAUC'
p611
aS'UUGAUGCAGGAUUUAGGCCAUUUAAGUUGGGCUCUAGGGGCCCCUCUUAGUGACAUCGACUAUGGCUUUGAAGUCUAUGGUUUAGCACCGGAAUAGCACU'
p612
aS'CGCACCCUAUAUUCCGAGUGAAGGUCCGUGUGCCCUUGGCUUAUAUUCCGUUGUGCGGGAGUACUAAUGAGCGACGAGCUGCGAAUGUGCCUUCCCGUCG'
p613
aS'UGUUGAUGCUUAGCCUCGUCUCCCCGGACGCGACUAGUAUGUCCGAUAUGGGAUAUUCUCACUUCUGGCGCUGUGUUGUCGCGAUGGUCAUCUGUCUCCG'
p614
aS'GUAUUCUGAGGGCCUAUCCUUUUGAAAUCACUGUUACGGACGGACACGAGAGCUAAACUAAAGAGAGUAUAGAACAAGGGUAUACCUCUAGGCUUGCCCG'
p615
aS'ACUGGGGGAUUACGCUGAUCUUCUAGCUUCCGUCGGUAGAAUGCUCUUCACACUGUAAUGGCCUGACCGCAUGCACCCGUAGCGACGCGUUCGUAGCGAG'
p616
aS'AAAUAUUUGUAUACGGUCCCUAGUAGAGAUUCCCCGGGUGGGUUCGCAGACUAAAGCGCUAACUCCUCCAUACGAACUCCUUGACCCUUCAUAGACAGAU'
p617
aS'AUUUAUGUAUUUCUAUUAUUGUUAUCAUAACAGCUGAUCCCUUAGCUUAUCGCGGAACAACCUUAGGGCCAUAUACCCUCACCAAAGGUGACUUGGGGAG'
p618
aS'CCGGUCUACCGAAUAUUGUUGUAACACGACUAGACGAAGUAGCCUAGUGGACAAUAGGCUAGGUCGCGAGCUCACGGCAGAUCAGCUUCAGGUCUUCGAU'
p619
aS'ACUCACGCCUUAGGACGAGGCGCAGUCCAAGGCGCAUCCUGAGCCAUCUCGAUAUGGACAGCUAACGCGCUCCUGGUCCAGACUGGUGUGUGCAACGGCU'
p620
aS'GAUUCAACAGGAUAUCAGUAGCAGUCCCGUCUUACCCUAGAAAUACGAACAGUAGAAUCCUAUCGAUUUUGGUUUUCCCUCGACUGUUUAUAGUCAUCCU'
p621
aS'UGGUGUUCGCUGUACCGGUAGAAUUUACUACGAAAAGCGCUGAGAUACGUUAUGUGGAAGACUUAUGAUAUACCUAAGCUUGAUAGUUUUAGUCUCACUU'
p622
aS'CCCGCUUGGGUACUGACGAGUCCCUAUGCCGAAGUUCAGAUUUAUGCGUCCCAUCCACCAUUGCAAUCAUUGGAAAGUGCUUACGUUGCGCAACUACUGU'
p623
aS'AAGUGGAGGGGGAGAUGGUCAUUGCCGCGGACGCUAGUUUAUCUUUAGGCCUUUCGCCACCGAUGCUUCGGUCGACCGUUUGACGGAUCCAGCGCGGGCA'
p624
aS'UGUGGGGACAUAAUCCUAAUUCUCGUCCCACAGACCGGCUGAAUCAGCCCUUUGCGGCGCCCGUUGACGUAUGCAAGGAUCUCAUCUAGUCGGAGUAGUC'
p625
aS'UUUUGACCGAAGUACAUAGCCCGAGUCGCCCAAACCGCUCCGGCGCCAUGUACGACUAGCAGAGUAACAGUGAUAGACUCGACUCGCUUGCACCAUGGCC'
p626
aS'CGACCGACAAACUCAACUUAAAGAGAAAUAUCCUUUGGCUGAUUCGUGAGUGCCAUUACGAAUGGGAAGCAUCCAGAUAUCUGUAUUCCAUUGUGACCCG'
p627
aS'GCCCGUGACCUCAUGAUGUCGGGUCACUAAUGUAAGGCGGCUGCAUACCAGACUUCGAUCUGUUUCGAGUUUGUUAGACGCGACUCAUAGGCUACGUGAG'
p628
aS'CAAACAUAAGGAUAUCCCAAGCAACUAUACAACGGGUGUGGUAGCUUCCUGUGCUGACUCUACACUCCCAGCUGUACGCCCGAAGAUCUGUUGGCUAGGA'
p629
aS'GUGAAUAUAUCCUUAUAUCAUUCGGGGUUUUGAUACUACUAACACAGAAAACUCUGCCGUUAUCCCCAGACUCGCGUAAGCUUCAAGACGGGACGAUACG'
p630
aS'CCCCGUCCGCUUACAGGAUACCUCACACUGAUGUGGUUUACUUGGGGUGCUAAUUCGCGUCAUUCCGUCUAGUCGCACAUGCUUAUCCUCAGAUACGGGC'
p631
aS'CUGUGUUCAGUAUUGUUGCAGCUCAAUACAUCUGCACCGAUGCGGCGGGUAUCGACGUGCUAUACCAAUACUUUGGCUACGAGUAGGCAAGGUGGAUCCG'
p632
aS'AAUGACCGUUUGCAGUUCGCCAUAACCGAGAUGAACGCAUGGUUACCGUGAUUGGAGAUGAUACCCUUCCUCUGGAGUAAGGUGUCGGUUCCUUUCAAGA'
p633
aS'CAAGCGAGCCUCUGUUGGUCGCUCUUGUAUUUGAUUUACCUAUAACAUCGUAGGCUGCAUAAUGUUCUCCUAAAAUUUUUCGCCCGUAAAAUGAGGAGUG'
p634
aS'GUAAUGACUCUCCGCUUAGUCUACUGAUACUGGGUCUGGCAGCACACACACCCCCAUAAUCGUGGGUACCUAAUUUGAUGGGCUGGCGUCUGUUGCGACA'
p635
aS'CUUGUCGUGGAUCUUGCCGACCGACAGACUUCGGUAGACGCCAAAAUUAUGCUCCUACAGGGUCCGGUACGCCGACCUGUCUACAAGCAAAGUGGGCCGC'
p636
aS'GCUAAAAAGUGCAACAGCAAUAACGUGUGGCCGGUCAAUAAGGUAUGACAAGACAUUUAGGUGUAAGCGGAUCCUAUAUAGUCAGCGCUGCUGGAACAAU'
p637
aS'UUUUUAGACGUAGGUCGAGCCCUAACUGAGUCAAGUUGAUCAGUAGACCAUACACUUGACAGUAUACGACCACGCAAGAAUUCCGUACAGACCGCGGCCU'
p638
aS'GUCACGCUAAUAAGGGAGAACUGUGUUUCAAUUUAAGGCUACUAUUAAUGGGCUUGUUUAAAUCAUAGAUGUCAGGAGAUUAGUGGAUGAUGAGAGUCCC'
p639
aS'GUAACUCCAAAUGCGCGGUCGCUCAUCAUACCAAUGAGGGUAAAUUGAGCAGAUGCUACGGUCAUAACUCACGUUAGCCACUUAGAGCCGGAUCUGAAAA'
p640
aS'UUCAGUCAAUAUUCCACCUGUGUUCCUCGACUCGCAGGAGACCAACCCGCUACCUGGAUUUCCUCCGAACGUGUGCACUCAAUUUGUGUCAAGACCGGUG'
p641
aS'AUUUAACUGACGGUGGAUUAGUUAAUAAAGGUCCAUAUACAUCAGCAUCGGGAUGAUCACCGCCGGUUACGUCGGCACAGUCUGAUGCAGGGCUUUGCCU'
p642
aS'UACAGUGUCGAUCUUCCAUCGUACGUGAGUUUCAUAACUGCCUCUAUCCCAGGAGUAUCGAUACCUUGGGGCAAAAACUUACACGCCGACGGCUAUAAUG'
p643
aS'UACCCAGACUCCCUGGCUCAUUGAAUUUGGUGGCCUUUCGGCGCGUUGACGACGUCGAUGCGCGGAGUAGAGUGGGGUUGGUGAUGCUGUCACCACAUCU'
p644
aS'GUAUCGGCCUCAUUACGGCGCGGAAAAGAUGCGCCAGGUGCUAGCCGACCUAGGUGUAGUUUUUUCUAAUAAGGUCCCGGUGCUUCAGUACAUCCAUUGG'
p645
aS'ACGGUAAUGACAAUCUACUUCAGCCCAGCACAACAAUACAGCCGUUCGGUUGCCUGCUAUGCUCGGAUUUUGGCCUUGGAGACCAACUCGAAACCUGACU'
p646
aS'CCUACGAGCGAUCCUGCAAUUGAGCUGAUAUUCCGUACCAUACCCCAUGGUGAGUUGACGGUGCGAACUGUACUGCCUUGGCCACAACCACAACAGUACG'
p647
aS'CGGAGAAAGUCCUACCGCCUUUGCUGUGUCAUAGGCUUACUGUUAUUUUAAUGGGUCUCGAGCCUGAGUUCCCAUAUCCCGUACUCCCAAUGGUAUCUAG'
p648
aS'GUCUGGAGCUGGCAACAAUGGAAAUGAGAGGAAGUCCAAGAAACCGUCUCACCUCCAGUAAUGUAUCCUUCGAAAGUGUGAGUAUGCUAACAUUAGAAGG'
p649
aS'AAUGGCACUGGACUUACUGAGAUGGGAGAAGAUUGAAAAUGAUCAAACUCCUUCUUGAGUAUGGUCCAGAGCGGCUGACGGUAACGACACUUCUAUGGCG'
p650
aS'AUACUUAGCGAAUAGCACACGCCGGGGCCGUAACCCAGUGUCACGUAAAUUCGGAGGUAUGAGCAACUAUUGCGUAGCUUCUAUUCAGCACUAGAGAAAC'
p651
aS'UUAGACUCCAUGUACUAAUAGCGCUUGCAUGUUCGUAUAACCGGCAGGCCCGGCCUAUUGGACGAUGGGCCGCAUAGCCAUCAAGUACGAGCUCCCGUCC'
p652
aS'GCAUUCUACCUCCUUAGAAUGAAGGUCCUCGCCUCCACGGCACAUGAAAACUUAUCGGAUCGCUCACCAGGGCGGGUUGCUAGCGCUGAUGGGCGAUAAU'
p653
aS'GCUUAAACGUAGCUAUUGCAGUUCCUCUCAGUAACCAUGCAGCGUUUAGGAUGAGUGACCUUGCUAUGACGGGCGACACAUCGAUGCAAUCGUAUUUCUA'
p654
aS'CCUAACAAGAAGGCUCUCGUUGCACGAUGGUGGUGCCUCACGGUGUCAGAACAGAGCAAUUAUGAUGCGGGGAAUAUUAACGUAAGUCAUCAAAUAUUUU'
p655
aS'ACAAUCUGCUGUAUGAGACACACGGGUUGUACUACAACUGUCAGCGACUGUGGUUAUAAUAUCUUUGUAGCCAUUGUUCGAACGCCUAAGUGAGACCAAU'
p656
aS'AUUUCACUCUUAGCCUGCUACUGGCUAAGUCUCCUCAUGAAUGGGAAUUACUCCCAACUGUCUUCGUCUACGCCCGAGGGUCCUACAUGGCAGCGGACCU'
p657
aS'CUCCCGUGGGCUAUCUGCUCGGCACCGGGACUAAUCGCCUGUCGCCUAUACGGGGGCGCCCCCGCCACAGGCGUACUCAUAACCAUGCGGCUGUGUCAAU'
p658
aS'AUACACCAUCGCCUGAGCAGUCGUAAAAGAGAGGCGCCCUAGGUCCGUUAUAAGGUUGGGGCAGUCCCGAAAAAGACUAGUGUACGUAACCGAGCUCAAG'
p659
aS'CCACUGUAAAUAGACAAAUACCGACGCCUGGCCCGGAUCGCGCCGAUACCCCUCAUGGGGGUACAGUUGCUGAUCCACUACAAUUGAGCCGAUGAAGCCU'
p660
aS'GCUAUCGGUAGGCUAGAACUACUAGAACUAGAAAUACCUCGAGGCCUGAACCGUCCGGCAGCCCUAUGGACCACCCGUCGCGCAUGAUGAAGAAGGCGCU'
p661
aS'ACGCGGUCAUUUCUCAUGCUAAAUAGCAUUACACAGGCACCCCAUUCCUGGCAACCGGUCAUCCUUAAAGGCGGUGAUCGAACGACUCUUUAGAAAAUCC'
p662
aS'UCGUCCUCAAGACAACAUGGCUGUACCAGCAAAUUCCCCACCUAAAACGGCCAUCCAUGUGGACUAAUUGCGCGUUGCAGAUUUGCAUCUCUGCGGCUUU'
p663
aS'ACAGGUAGCCCGCUUAGAGUCCUACGGCCGAUAUAAACGGUUCACUAAAUCCCUCAAAACAAUUGUAAUAAGCAGAGAUGAGAGAGGUGUCUGACUCUGU'
p664
aS'AAGGUUAGCGGCCAUUAUAGGUUCGUAUAGGCGGGAGCGCGAACCAAGCUGUGAACCCACGGUGUCUAACCUUCUAUCACGAGUGCCCGUACAGACCCUG'
p665
aS'GGCACCCAGCGACAUGCUGAUACCCCAAGGGUAGGGGUCGAAGUUGUGUUCUGGAGCAGUCAUUCCUAAUCUACGAAUGAGUCCGCGACGCCGCGAACGC'
p666
aS'UGGGUACGAGUUGAUAUUACCGGACGUUUCCCCGAUGCCACUGUUAUACUUUCAAGGGUAAUCUCCACAUAUAAAUCUCGGAUGGGGGGUACAGCAACUA'
p667
aS'CUUGUUGAGUUGGAAGUCAGCAUGAACUGGUAGAUGAUCUCCAAGCGCACCACCUCUAAGAUGUCUACGCCGACUACCACUGACCGUGAUAUGUACGAGU'
p668
aS'UGGUUCUAUCGGCGUUAGGCGGAAUCCAGACAACAUAAACUCUAGCGGGUAGGCGCAAUUUUCCACUUAGUGCCGAACGAUAAUACGUACGACCAGAUCG'
p669
aS'GUCUGCGAGGUUGCACCUGAUACAUCGUCUCUUCCCCGGUACCUUCUUGUGAAGAGCGCCCCUAUUACGAGAAUUACCACCAGCUCGUAAGCCAUACGCG'
p670
aS'ACAUAGACUUAAGUUUAAACCCUCUCGCCCGUGAGCGUAGCAGUGCUUACGCUUCAUAUAUAACAAUGCCUAAGAAACUUAUCCUCUAUUUGUGGGUUCU'
p671
aS'AUGCAUGCCACCAUGUUUACCCUUUUACCUUAUUCGUGAAGCGUAGGAAUCGUCUUGGCACGUGAUCUGUCAAAAGUACUGGGGGAGAUGGCCUGGUAGA'
p672
aS'UACGGGUAUUCGGCCCGAUGCCCUAGUCUUACAUGACUCAUUGGGGGUUAUCGUCAGCCUCAGAAACCCUGUUCCGAUGGUGAGCCGGGUCAGUGCCGUC'
p673
aS'AGACACGUAAGCUGGCUGUGCAUAUUAUACACGUGCCCUGCGACACCCUCGCGGCCCAAGUCACCAGGAAAACUUUUCUAGCCUAAUGGCCCUGUCGUUC'
p674
aS'GGGACUAGCAGCCAUACAGAAAUGGAGUAUGCACUGUCGAUCUCCUGGCCGAGAGCGAUGAAAUAGUACUUGAUUAUAACGGCAGGACGAGAACACUUAG'
p675
aS'UGCUGCGACCGGUCAUAUUAGUGCGUACUGUACUGCGAGCGAUGGAUUAGCACUGCUUCUUUACAGGCCACCACAGUCGCCGCUAGCUAAGCGCACUUUC'
p676
aS'CAGAAAGGCUAAUGCACAACAGUGUCCCGGCUGUGUGGCGCAAAGUUCUCGCCUAAGUAGGCACGGCUAUCGGGAGUAAAUCGUGCUGCCAUGUAGGAUC'
p677
aS'UAUAGCUCAUUGGUGAGACUCUGAUACGCUUUACAGAGGAUAGUGUGCGGAGGAGGGAGGAUACCAUAUUGUGCUCGCCACGGCUCUCAGCCGAUAGCGG'
p678
aS'CGGAACUAAUCCGACACACCCAUGUACCUAUAGGAAAUUUCUCAAAGUAGUCGGACACUAGUGGGUGCCUGAAAGUAAGUGGUCCCCUGCUGAGACCAGA'
p679
aS'CUGUACUCCGGCCAUUGAUCUCCCAGAUUGGCGGUUACGGGAACUGGUAAAAGCUGAACAACUCAUUUAUUAAUGCAACAUUGUAAUUUGUGUGUCGACC'
p680
aS'UCUAAGCUACGAAGAGCAUAAACUGGCUAGUUAUUUGGCCACUCGGCGCCGACUCUGCCAAGGUCUAACCCCAGGUUAGCAUUAGAAAAGGCCAUAAUGU'
p681
aS'UUUUCCUGCUCGACCUGAAUGGGCCAGUAAUGAGGGUCUCUCAAUAGAGGUAAAACGUUUUUCGUGCUCGUCAACCAACUACUAUAAUCUUGGCUCCCGC'
p682
aS'UGUUAAGUGUCAGCUCAAGGUUCGUCGAAUAGCUGGUCUUAUCGGAACUUUGCUUAGCGUGAGCCUACCGGCUUGCAGCACUCUUGAAUUUAUAUUCUGU'
p683
aS'UGGUUGGAUUCGCAAGUCAAUCCAUAUCAGACCCUAGCACUGAUUAUGGCCUCCAAUCGUGAUCUCCAAGGGCGGUUGUAGUAGAACACACGCCUCGCAA'
p684
aS'UUGGGUUUAUCUGCACUGACAUUUCGAGGCUGUAACGUUUAUUUGCGACUGAGACUCGUGAACAAGACCGGCGAAGGUCAGCGUCUUUCAGACGCGGUCC'
p685
aS'CGCUCGAGAAGUUCAACUUUCCAUAGAUUCGUAGGGAGCUCGGAAUUAACAGCUCCCAUUACGUAAUGUCAUGGUUUCCGGAAUGGGGUAUCGGGGUGGG'
p686
aS'GUUGCUGUUUCUGCAAGAAUUGCCUGUACCCCAAGUGCCGAUCGCACUACAGACUCCUCGCGUCCCACUAGCCGUCGCGCAAAGAAAGCACUUACCCCGC'
p687
aS'UGGAACGCAGGUUAGGCCAUUAUUGGUAUACAGUAUUUGUUAAGAGAAUUCCUGAAUGAAUGACAGUCAUUAUACGCUAAAACGAACUUCUAGUUCCGGA'
p688
aS'ACUCGGGGAGGCGGAAAAGAAUAACGGCGUGCCCACCCAACCUAGGAGAUACAAUUAUUGCCUGUGACUGCGAGGGGAAUCGCUACCCUCCAGCUUUCCG'
p689
aS'CGCUUGGCACGCUGGACUCUUCGCAUCCAGUCUAGCACUAGCAUCUGGAUACAGGCAUCCUGAUACAAUGUUCUCAACUCCGCCACCUUGUCUCCGGGGA'
p690
aS'UUGGAUGCUCGAGUUAUCGUUGACCACUUGCUGCCGAGCAGCCGUGCAUGGUCCCCAUGUCGAGUACAGAAGCCGGAAGGGGUGGGUCGGUUCUCUCACA'
p691
aS'UAAACGUCUCAGUUAGCGGGGCGAAGGAGACGCGUUCUAACUACGCCGCUCGGGCAAUAAUUUCGUAACUCCAGACAUUUCGUGAGAUUACGGACCUGGC'
p692
aS'GUCGUGCUCCCCUAGGAUAUUGUUGCAUACAUGCUCAUUUGCCAGUAGUGGUCCUAAGCGUUCAUUUCAAGUACCUGGCUGUAUGCACACGAUGUGCAAG'
p693
aS'GCGGUCUGUUGGGGAUAUUCUGCUAGUAUCGGCAGACGGUCAAAGAAGUUCGAUUGCUGCCUGCUCGAUAAUUCCGGAUUAGACUCCAAUUGCGCCCUUG'
p694
aS'GAAACAAUGAACCUCUAUUUCGAACUGCGGCUGGGAUUACGAAGCAUUGAUCAGGACGAGAAACACCGUGGAUCGCACACUUAAAGCAUUCGUUCUCUAU'
p695
aS'GGCGUGAUUGCGCCGGUGACCAAAAAGUGAAUUAGACAAGACGAGCCAACCGUCCUGUAGGGUCCCGGUAAACAGUGAACAUUCCUCUGCUGUGCGGAGU'
p696
aS'AGUUACCGCCCCUCAACCUAGCUAAUGUUGAAUCUGUUGCGCGUUAUCUCGGAGUUUCAUACCUUCUCUCAUGAGGGAUCAUUGAAAAUAUUCACGGCAU'
p697
aS'GAAUUCGUAUGGCACCGGCUGUUCUACGUGCAUCAACCGCGUGUCUUGACUCUGUUCAAGUGUUGUGGCAUUCGGGCGACGAUGAAUGAGUCGAUUCAAA'
p698
aS'UAAUCGCUAGGGCCAAUAGAGGUAGGGUAUAACAUCAAGCAUCUUAACUGAGGAGAGAUCCCUUGUGGGCGACGGAUUGGCGCAGAGUCUCGGGAGCAAU'
p699
aS'AUAAAUCUAUAAGUAUACAGUAUGGCAAAGCGAGUCAACAUUAAAUAUAUUCCUCCCCGUACCCUUAUAAACGGACCGUAUCCGGUCUCAGAACUUCGGG'
p700
aS'CCUCACUUGGCGCACCGUGGAGAAAGCUAAAAGCGCUCAUUCAGCCGUAUUCUGAUGCAGACUACUGUAGCACCCCGGAGCUUUUCACCAGGCUCGCUCA'
p701
aS'AUUGCUUCUGAUACAGGGCCUGACAUUUGGCAAUUGAUACCGCGAAAAGAAUGCUGUUCGAAAGCGGGUUUGACCUUGGUUAUGACUUAAGCGCCGCAAG'
p702
aS'CGAUAGAGGGUUCGGUGGGUGUCGCGCUUUCAGUAAUACUGAGCCUGUAGCACUUACAUAUCGUGUAGUUAGCUUUCCAGGCUGCGAACUUGACCGCUGC'
p703
aS'CAGGAACGGCAGGUCUGACUAGGCAUAAGUAAAUUCCCCCUAAAUCGAACAAUCGGGGAUCGGUCAUAAUCCUUCGCAGCGCUCCGACUCGUGACGGAGC'
p704
aS'GUCCGAACUCACAUCAGAUCGCAGAAUAUUCAGUUUAAGUACGUCGCAGACAAACUCUAUCUACGAUCUCUGCGUGUCGGUCCGCAUGUCGAUGCUCCCC'
p705
aS'UCCGGUACGUAUCUUAGCCGGCGUCCACUUAGAUAGAUCAAUGAAACAAUUGUCCCGACUCGGGACAUGCCGUAAUUCCUGCCGUAUUUGGAUGAGUAAA'
p706
aS'UGGCGUAUAUCAGUACCAUUCACCUUAUUACCCAUGUUGUUGGUAGGACCCUCGUUAAAUCAAUGCGAUAGUACGCAUGGUGCCACACCCCGCAGGUGCA'
p707
aS'GGACGCCAGAUGCUCCAGCUAGUUGCCUAGUCAUCCCCGAACACCCAGGGCUCCCAUGUGGUCGGGGUUGGACCCAUCGGCUGACUCCUCAGCUUUUCAG'
p708
aS'ACUCGGGCGCAGAGUGGGCGCCGUUUUCGAAACACAUUCCCUGUGACAUCUAAUAGUUUUUAGGCAUCAACCCUGGACAAUUCGACCUACUGCCUACCGG'
p709
aS'CUCCCACGUUGUUUGUAUUUUGUUAAUGAACGAUGUUCUUAAGCCCAUUUGCACAUUAAGGAGCGAGUUAUCGGCCCCUCGCAUAACUUCCGGCUCCACA'
p710
aS'ACCAGUCGAAGUUACCAGACGACGGAUACGGCACAGACUGACGCACUGAAGAUUCGCUGCAGGUCGGGGAGUCCAGUAGGCGUGAUAUGCUCACCAGGAC'
p711
aS'UCGGAGAAGAUCCGAUAAAAAAACCCUUGUGGUAAGGGAAACUGUCCCGCGGAGUUCGGGAUCAGGACUUCUCGGUAGUAAUGUUUGCUAGUAAAAACUA'
p712
aS'GCUGCUUGAAGUGAAAACCUUGCCAUGUCCUAAUCUACGUGCGCUGGGGUUUCUUCCGCUUCUCAGUAGCCUGGAGGUACGCUCGUGACUACGUUCUCCC'
p713
aS'CUUGCUCACUAACCUAACAGGAUACUGUGGGCCAAUGAGUUUACUCGGUUAGUCGUCGUCCGGAGAUCCGGCACUGGGGGUUUGCACGCAUCCCCUCGUA'
p714
aS'UUAUGGCUUAAAGCCGAGAGUUGACGAAGCGAUGACAUUUGUACGUGCUGGGUUCCGACCCACUAAGACUUGAGCCAUUCGAGAGAGCGGCUGGUAAUAG'
p715
aS'UCAUCUGCUAUACGCCGGGAAGCUACUAUCAAACCAGGUGCUGGUUGCGUUUAAUGUCGCGAAAAAGUGGACCUUUCGAAGCCAGCUGCCGGGUUAGAGG'
p716
aS'GCGCCAUUUAGCCAGCUACUACUUCGGAGCCGGAGCCGACGGCUGAGGUUCACAGUGAUACGCUAGAAUCUCUCUAAGUUAAUUGUGAGGUAAAUCGCCA'
p717
aS'CCUGAUCAGACAGGUCGCGGAGUUAGUACUUGAGUGAAACGAGCUGGCGGAGGAAUUUUGAGUAAUAUCCAGCCACGGAAUAUAAACCACGCCAGCUCCA'
p718
aS'CGAUCAUUUAAACUGCAGGCCGUUACAUGCUUUUACUCUUGACUCCUUGCGCGUCUAUACUGGAAUUGCCCAUAGCAGGACAUGCUAACCCCGUUCGUAC'
p719
aS'ACAAACGAACAAGCGUCUGGGGCUUUCGCAACUAGGCCUACGUUAGUUUGGGCUUUUAACAAAAUCGCUAGUACUACAUGCUUGUGACAAGCGUCGGACC'
p720
aS'AGUAAAUGUGGUGGUGGAGCGCAAACAUGCUACUGGGAUACAGAGGAAAACCUGCUGACAAUACCGCUUUCCUAGUGCGGUGUCGUCUUCUCUCGAUCCC'
p721
aS'UAGUCAUGACACUCUGUCUUCAUACAUCACAGUCCGGACCCCCGUGAAGCUGUGAUUCCUGGUCUUAACACGUUUGGAGACUGUCACCAGUCGUAUCUUA'
p722
aS'GAACAAUCCCAGAAGGGUUCCAGGGCCACCUAGCAAUUGCUCUCGCGACGGCGUAUGAACGGCGCAAUACCCGGCCAUUCUACAACGCUGGGGCCAGAAC'
p723
aS'UGGGAGGGGUCCGAUACCACCCGUUUCAAUUCUGACGUUACGGCCCUUUACCAUCCUGUAGGAUAGGCAACUCAAUGGGCAAAGCUCCACCCGAUCUCAG'
p724
aS'AGUAGAUGCUGGCGCUAUGGUGAUGACUAUUGCCUGCAAUGAUAUAUCUUCAUCGUUUGGUUGACUGGCCCACGUAGAAUUGCUACUCAGAAUUGAAGAA'
p725
aS'UGAAAGCCGAAGAGGUACGUUUAAAGAAUUUUGAUACCUUGUUUAACAUAAGGAGGGCCGAACAGAACAGCUCCGCAUCACCAGGUCAUCCAGCAACACA'
p726
aS'AUUGUUCACCGCUCACUUCAGUUUACAAUCGCCAAAGGGCAGUGAACUCGGGAACCGAGCAUGCAAAGUGUGGCUCCAUGCGCAAUUGCCAGCUUAAUUC'
p727
aS'CAUGUGUCAUUCCCGCGCCCGGAGGAGAUCCGAUAGAGUAUAGGGUUCGUAUCAUCAGUUCAUGAUGUAGGUGAGGGGGGUUAUGGGCGUGGGUCUUCGC'
p728
aS'CAUUUUUGAAACGGCCUUGUUAAUUCAGGCGGGUCGUUCACUCUGCGCUCGGGCGCAUGACCAUGGAGGCUCUGAUCAAGGAUCCUUGGCCGUAUGUUUG'
p729
aS'GCGAUAGUAUCAUAUUCACACUAAGCGUACUGCGUUGCAACAGCCAUGCUACGUAACGGCGCCACUUAAUACUAAUGAAUUAGAGAAGCUGAUUGGCUAG'
p730
aS'GUGAAACCCGACAACGACUUGCUCACAGCGAGACGGUACCCUUGAUCGCGGAUCGUAAGUAUCGGGCGCUGGUACGCGUUAGGCUACAUGACUCCGUUUA'
p731
aS'UGCGUGAACCCUUGGACCCCCAGAAUGCACUCAGCAACUACAUCCGGUGUGCAAUGCUGAGAUCGUAUCUGGAAAUUGCUGCAGGUAAGUCUAUAUCUGC'
p732
aS'UUCGACGUAAACAAGUUGCGUACUCGCGAACAGUAGUUUAUAUCUUUCCAGGGCCUCGAUAUCUAUUGGGGCCGUUCAGAUGAGCGGAGAAACUACAGCC'
p733
aS'CCGAUACCUGCUCCAUUCAAAGUACACAAGUUGACGCAGUAAGAAGCUUUCCAAAACCGAGGAACCGUUAUGGGCAUCGUUCGCCGCUCCUUCAUUUGGA'
p734
aS'UAGUCGUUUUUUGCACAAUCCUUCAUUAGGUUCGCGCGCUCCAGGUCCCUACACACGUACAUGCCUUUCCGGGUCAUCGGUCCACGGAAUAAUUGCAGCC'
p735
aS'GUUGUGGCCUUGAAUCCCAUCUAUCCAGUCGAGGACAUAGGAGUCGUGGGAGGGAAGGAGCAACACAUCGCACGCCGGAGAGAAUGUGGAGACCACACCG'
p736
aS'GCGAUAGCAUUGUACUCAAUGGGUUCCAGGAAUGUUCGAUCUUGUGGGGCGCAACCCACAUACCAACGUACAUCAGGAUACCUCCGGAAGAUGUUACUGA'
p737
aS'UACUAACUUCUAGGACUAGCUGGAGAAGAUGGGCUGGAACCAUCUCCUCGGGUUAACUAUUUUUGCGCCACUAUGUACCGUCGCAGAAGAGAACUUUGAA'
p738
aS'AGCUUGGGUCUAAGACCUUACUCGUAUCAAGAAUGAGGUACCAAGUUGAUAAUGCUCGAUCGCGUUUGAUUUUGUCAUUUUGCGGAUCGAAGGUGGACGU'
p739
aS'UACCUACCGGUUGGUACAUCGUUAUCAGUACGUACGUCAUCAGUGCCUUGGUCCCAUUUACGCUAAGGAUGAGAACUAUUGGCCCUAGAUCCCACACCAG'
p740
aS'UCCGCCAAGUUUGGGCACGUUAUAUACCGUCACUCCUUCUGUAUAUCGUCUUGACUUGCUAGCGAAUUUUUCCACAGGUAUCCGCGGAGGGCCACUGGGG'
p741
aS'UUUGGAGAUUGAUGCAGUGGGGGGGUUGCGAAUUUUACCAGAACUCUUCGGGAAUAUGGGUGGGCACAUAAAUUCAUGGAUACGGAUUAAUAAGAAAUUU'
p742
aS'AACUCUCCAAGUGAUGUGCUCUGUUCCCCAGCAGCGCCGGCACACUUUCGAAGAGAUCCCAUUGAGAAAAGUCAAUGAUGCGCCUCUACCGAUUAGCGGG'
p743
aS'AUGUAGGCGAGACAUAGAAUUCACUCAGGACACAACAAUGUUUUUUCCUCUGCCAGUCGUAGCGUGCCCUUUCAGCAUUGGCCUCAUGACGACGAUCUAU'
p744
aS'CUUUAUUGCAGGCCUCUUGAAGCGCCGGGAAUUUAGGAAGGAAAAAUCGAUCGCCCGAGCGAGUUCAACGAACGUGGGGGUUAGCAGAAGCCCAUGGCAU'
p745
aS'CUGUCCUUGGUUGGCACUACCGACGCCCCGCAAAUUUAACGUGGAAUUAAUCGAGUACAAGUACCACCGGCGACGUAAUCAUCGAGGGAUUCUGGUCCCA'
p746
aS'CCAUUCACAUGGCGGAUCCGCGGACCGAAACGAGCGCACUAAAAACGAGAACAUGUCAAACACCACCAAGCUUCGUCGAGCGACUCGUACCACGCUUAUU'
p747
aS'AAUAUGUAGUCGAUUCGUGGGCGGCUCCUCAAUACGAGCCGCUCAGAACUACAUUCGACGUUUAUACGCAAAUGGCGGCCUCACGCUGUCGCCCGGACUU'
p748
aS'CUGAUCUUCUCUCGAAGAGGCCCGAUAAUCCACGCGCAAGUUAAGGAUUUAUCACGUGUACACGGCCGUUAACAUUCGCAAUGACCUUACGGAGAACCCC'
p749
aS'GGAUCCCUUAUCUAUAUGCCCUAAUCAACGGAACGAAAGCAGAGAAUCAACCCGAGCAUGUAGCGGGUGGCUGUCGACAAGACGGUUUCCGACCGAUCAA'
p750
aS'GGUGUUUCUGCACGCUGAUAUAUUGCCUGUCCGUGCUCGUCUGAUUCCGGGAGGAUUCGGCUAUUAAAAUAUUCGGUGAAAACUUUGUGUUUUCCGGCAA'
p751
aS'AAGCUUUUCUACAUUCCUGCUGCUAGACCAUGCCAGUACCCUCCAAUGGUUGGGUCGCGCGGUAACUAUUGACCCUAGGGCACUAUACGUCAUAAAGGGC'
p752
aS'AUAACGCUCUGGUUCUACCUGGCGUUGAAUGUACUAGGUUGGCCUUAAUCGGCCUCCCCUUACCCUCGCAACCGGGUUCGCGAAUGUUACAAAGCAGAGA'
p753
aS'UUUGACAGGUUCGGAACGCUGUAGCUUGAACGUAGGAGGUGGUUCAAGAACCGGAGGUGCGAUUUAACUGUCUUCUUCCACUCUACUCAGGAGAACUGAC'
p754
aS'AUGGCGACUCUGUUGCUAUGCGCAACCUGUGAGAUCCUACAAGUAGAUGUGUAAGAAAAUACCGAACUGCUGUUAGAGUGCAGUGAUGGCCCCUUUGAGA'
p755
aS'UGAAGCUGCCUUUCGCUGCAUUUUCAGGUGCGGUAAAGAACGUUCCAGUGCAAAGCCGCAACUGAGUGAAUAGAAAUAUGAAUGGGCCCGGGCUCCCUUG'
p756
aS'AGUCUUCACAACUUGCUGCCCAAGACGUGCGAUGUAAGACCAGGGCACGCGCCGAUCGUACUCAAUUACCUGGACGUGGGUUUAGCAUCCGCGGCUAAGU'
p757
aS'AAGCGGCGACGGUAUUUCAGAAGGUGACUCAAAUACUCCGUCCAAACCCGGCCUCGACCGGAACAGCAAAAUAGCUUGGCGCUCCAGAGUAAUAGCUAAU'
p758
aS'CGUAAUUUCAGUGGCAGACGGCGUUGCUUAUACUUCUCGCUUCGGCGCUAGUGGUUCUAGAUAAGCGGCGGUUCGAAAGAACCGGAUAGGGGUAGCAUAU'
p759
aS'CGGCUGCCCGUUGGGUAGCAUGAUCUCGUAUGCCCAAUUAGAUCAAGCGAUCCCGGUGAACGCAGAGACGGGCCCCCUUAGUACAUCAACUAUCAAGUUA'
p760
aS'CCUCGAGCUAUAACACAUAGCGCGGGAUCGACCAAUACAGUGAAAGGUUCAAGCCGCGGGCUGAGAGUUGCAAGCAGUUAAACAACAAGUUCCAAGCCCU'
p761
aS'UUCUUGGUGGCCUAUAGUGAUUGGGGCGGAUAAACGUUAAGUCGGCGUAAAGUCGGCAAGCUCUCGAACUUAUAUACGGUGUUUGUCAUAUCGCGCCCGU'
p762
aS'CCGCCAUAGUCAUCGACUUCUCAGACAAGCACAAUUAUCAGGUGAUCAGGAUCGAUCCAUUAGAUCUGUUUUGGCUGGCGAGACAUAGAUACGUUUAUAA'
p763
aS'GAUUGCGUAUACAAAAUAUGCAGUGUGGCGCCGGGAACUAGAAAAUUGUACAGUCGCAGGUUAACCAUUGUCGGUGGGCAACGAUUAAGGUAUGGUUCAA'
p764
aS'GAAGCAGGUAGUUGAUACCACUGGAGCCCUUGUAACGUUACUUUUAGGUGUAUUGGCGACGGAUUGGAGUUUAUGGAUAAUGAGUCCACAAGGUUCGGUC'
p765
aS'UAGCAUCCACCACAGCGGUCCGAAAGAGCAGGGUAACUCGACUUCCCGGAGCGGAUUAGUCGAGCGCCUUUGUUAACUGAUGGUUUAGUGCUGGCUGGAG'
p766
aS'GGGACGAUAGAGCCUAGGAAUCUUAUUGAUCCUCAUAUUAUGGACCCUCUUGUCGGCUGUGUAGAAAUGGCCGAAUAGUUAUGGUUUAACCGCUCGACGG'
p767
aS'CUUUUCAAAAGGCCAACUCUUCAACAACCUCGUGGUUGCGUAAUUAGAAUUCCUCACUUGACGAUCAUGAUGUAAAAGUCAAAAACCUCUCACCCACGGA'
p768
aS'CCUUCAUACACAACGAGCACAGAAUGAGUUUUUUAAAUAUUGACGACGCUAUGACCUUUUUCGUAGACCUGGUGCAUGAAUAGCAUCGUUCUUGCCAGAU'
p769
aS'UGGGUCACAGGUUUGUUAUUUUCAAAUGCAUAUCCUUGAUUGUAUUUAUUACUCACAGACUGAUGUAGAAGUCGACGGAACGUAAGAUGCUCUCCUCUGU'
p770
aS'UGUUUUCAUAGGUGACUAUAAUGAAGCCCUGACAACUAACGCCCCUUAGGACCUAUGUAGCAGCCGUUCAAGAGGACAGCGAACAUAAUUAGACGAAGUG'
p771
aS'CAACUUACGUAGGCCCAACAGGCUCCGGUUCAGAACGCUAUUUUCCGGGGUAAAUCACGAGAACGGUUCCCUGGCUGCAUUAAAGCGUAGAGAGAACCCA'
p772
aS'AUGGUUCUGCGUAUCCAUGUAGGGGGAUUGGAGACUUCACCAUGUCUGUGACGAAGGACCUGACUCAAAACCCUCGCUGGCGUUGGUGCUCUUAUGGUGC'
p773
aS'CAUGGCCAGCUUAGCUGUUUAGCCCGUUCUUUCCAGUCACCAAAUGGAACGCGGUCUCUGCCCUAGCUUGUUAACCGUGCCUCUCGUUCAUAUGUCGACA'
p774
aS'CUAAAAAUUGUGCACUGCUAUACUGGCAGAUUUAUCGAGUUAGUUUGCCAUUACCUUGGCGGGACACCAUUAUUAAGCGUACAUACCCCGCGGGCCCGUG'
p775
aS'CUAGUGUGAGACCUACCGGUGAACAAAAGCAAUAAGAGAGGUCCUGGAUGCUAUGGAUCCUCCUCAGGUUUAGCUCGAUUGUCGUAAAGAACUUCAGAAG'
p776
aS'GCCCACUAACCAAAUUGAACAUUGAGUUAUCACAAGACGGGGAAUUCGCAUAGAAUGUGGUGGAGACUGAGCUAUGGUUCGUGGGAGAUGCGCGGGUAAG'
p777
aS'GUUCAUCAAACGGUUGCACCACGUGGCUAUCGAAUUCAUAUCAAAUCUACGAUCAGGGACUAGGAAUUGGGUGGCGUCAGUCUAUGGAGCGCGGUUUAUC'
p778
aS'GUAUGCAGGGCAUAAACGCGUCUGAACCGGCUGCAAUAGGCUUUAAGUCCAUUGAAGUCUUGAUUAUUUCACAACACAGAUACGACUCCGGGAGUUGAGC'
p779
aS'AUAAGACCAGUCCUCCUUGGUGGGCGCUAGGGACGUACUUAAGAUAGCGGACGUAUUGCCGUGGCUCAAACUGAUGCUCGCAAGUUUCGGAGCACCUUUA'
p780
aS'UACUCGGAGGCCUACUUUUGCACACAGCCGCAGGACAAUACUUUAUUUUAAGUCCGAUUUAUAACAUGCACGAAAAUAUCAGCCUUAUCGAUGUAAAUUA'
p781
aS'AAUUGGAGGUCGCACACAAAUUCUUCGCUGUUUCGAGUGAUUCCUAGACUGUCAAGAAACCUCUGAAGACUUUAGGCAGGAAAUAAGACAAAGCUGGGUC'
p782
aS'AACUGUAUGAUAGAAGUUGAUGUAAAACUGGAUAUACUCCCCAGUAAUUCAAUGCCCGAUUUAACGUGAACAUCACACCAAACGAGUUUGCCAUUUGUUU'
p783
aS'GGAACGUUUUGUGGCUCUGUCGUGAGAGAGCCUUGCGCUGCGUUUAAUUCGGCUAUAUGGUACUGGUAUGGCGCUAAGGUAGUACUAGGUAACCAAAGAC'
p784
aS'CACAUUGUCAUUGAUUCAAGAGCUAGUCGGCUAUACGCGCGUCGCAAAAAGGGACAGUUCCACCUAUGAACAGUUUACGUCCGUCCGAUGUGUGUCCCUU'
p785
aS'UCAUCUUUGGCCCUUAAUAGACGAAGGGAUAAAAUUAUGCUCAAGGGCCUUACAUACAAAAUGACAGUGGGUCAGCCUAUCUCGACUCCCCCAUCGACGU'
p786
aS'ACUUCACCGGGAACAUUAAACAUAGGUCACUUUGGAAGACAUGGUACAUUUACUGACUUCACUUGUUAUCGGGCGGGCAUGGAAUGGAAACUAGGGCUGG'
p787
aS'AUCGCCUAGACAACCUCCAGGUCCAGUCCUAGCGAGAGGCAGGGGGCUAGCAAGGCAACGAGGCAACAAGUUUCUCCGGCCGCUUCAGGCUGGAUUUAAG'
p788
aS'GACGGCACCAUCGGUGCUACAGGUCACAAUCGCGGCUUAACCGCCUCUUAGCUAAGAAUUGCGCAUCCACACUAAUUAGUUUGCAUACAGCCGUAUUUCC'
p789
aS'UAGAACAAUGUGCCCAAAGGUUCACAUAUCAUCGUAACCGCCAGCCGUUCACGCGUCACGAUGAUCCACAUAUUGCGCCCGGCUCGGUAACCAGUUCGCA'
p790
aS'AUGUGCUCCAGAAGAUUAUCACAUAUGCUCGCCUGAGGUAAUCAUAAACGACAAAUGUCAGCCACUUUCCUAUGUGAAUACCACUGCACCGCACUAUUCA'
p791
aS'ACCCCAACGAGCUUCGUGGGAUGUAUUGAAUAGCUCUAGGGAGGAACCCGAAAUUAUCUUUAAGAAGUGCUUUUUGCACGUGGCUCACGAUCCGUGCUAG'
p792
aS'CGUGCACCAUUGGGUUACCCCUGAGGCCGUACUUUAAAAAACGCCGCCCGGCGGACUACCCUCUGAUCUUGCCAAACGAUCUCAAGCUUUAUACAACGAC'
p793
aS'AAUUUCAUUUGAGUACCUAAGCAUAAGCGUGUCCAUAGAGAGGGCACAAAUUAGACCCCGGGAGAUAGUCGUUCAAACACUAAACUAAGCCGGGGAUGCU'
p794
aS'UCUUACAUUGGGCGGGUAAGUUUGCGCGCCAGGACAGAUCCAGAGGGUACGCCACAGUCUACGGAAUGUCCACUGGAAUAAGCCUAGUGAUGCUCAAAGU'
p795
aS'AAUGUGAAUAUCUGUAGGUAAUACGUAGCCGGUGACCAAGACUGCAGAGUCCUGGGGUUGUGGACAUCUGAGGGAAGUGCUUUACUAUCAGCCCCGGAAU'
p796
aS'GGUGGCCGAAAGGAAGUCCACAUCGUUCGUAUAAACAUACCUCAUCACGCAUUGGCGGUCUGUCAUCCCGAACGGUCCGAAAAAUUAACGUUGCUUAGGA'
p797
aS'GUCCCCUAUUGAACGAUUGAUGGGCGCUUACCGCUCGUGGGCUUAGGGGGUACCGAUUCACACCUUUUCUCUUUAACGGCGCCACGUUCGGUCUCGCUUC'
p798
aS'AACCAGAGGUUUAGGAAGAGACCCCGUGCAGACUUGCUGAGCACGGAACGUGUAAUGUAUGAGAUAAGCUGGCAGGGCCUUUUAGGUAUGGUUGGGUUAG'
p799
aS'CCUAGUAGGGGCGGGGACUACCGAGAACCAAUUAGCCCCCGACGCUAUAAUCGGGAACCCCGGACUGGGUCCCUUCGGACGAAUGUGCCCAUUUGCGGAA'
p800
aS'AUUGCCCGGCCCGUUCCGCCAGAGAAGGCCUCGCGUGCGCAUUCGUUGAUAAGAUUAUCAAACUUGUAUUCAGAGCUACAUCAUGACGCCUCGGUCCAGA'
p801
aS'UGUCCAUCAGGAGAGUCCUUGCGGCUCCACAGCGGCCGCACAGGGACUUUCCGACAUGAUUCAUUCGUGCGGCAACCUGCUUUCAUUUGAUUAGCGGUCU'
p802
aS'CCACCGGUCAUCGCUAGUUGGGUAGCGGACGUAUAUCCAUGUUAACAGGCCUUCAUACGUAUCGACUUAUGAUUGGGAUAAGCCGACGCCUGUGUGCACC'
p803
aS'GCCAUGGUUUGAUCGAUGGCUCUGCGUAGCAUUUGCGCAGAAUGUCCUUAGUGGCAGCAAUUAUUUCGAAAUUUCCUUGCCACAAGACUUCUGAGCACUU'
p804
aS'ACGUGAAACUGGUGAUGGACGAGUGGUGAGCGAACUUAUGGAAAUUGAAAAGAGAAGGCAGUCCGACGUGGCCUAUGUUGUUAGGAAGAUUCUUUUAUCU'
p805
aS'GCCAGCUGCCAAGAAUUAUCCGAAAGGUUGCCGGACAUGCGCCAAUUGCCGUAUGCCAAGCCUGUUCAUCCGGCGAAUCCUUCCGGUCAAUUGAUGUGUU'
p806
aS'GCAUAGCUAAAAGAUACGAUAACCCUUGCGCGUAGUAGAGCUUAGUCUACGCGUUACUGAAAUUUUCUAAUGGAACGAGAGACGUGAGAUAUGAAGACGC'
p807
aS'GUUCAAGCUUUGCCACCAUGUUGUGCCAAUACACGUGUCACCCUCACGCAGAUCUUCUAAGGUCAGACAUGAGCGUGGCGAGGCACUGAGCAUCAUCAAC'
p808
aS'CACUCAUGAAACCACACAUAUACUAAUAGCCCUGUGGUUGUAAACCCGGUCACGCUAACCUUCCAAACGUCCUGUAGAACGUGGCGGCGAUGUGAAACCA'
p809
aS'GGAUGGCUGGCUAGAACUACGAUGCGCGGGUGCGCGUUCCUUAACGUCGUUGGUUUUUCGGCGGGCAGAACUCGUAUCGUCUCAUACGCAUUUCAAGAUU'
p810
aS'AUCAUGCCGGAGAGAAGGGCCUUCGCAGUAAAACCCAGGGUUUUACAACUCCGCCCGGUGCCCAAUACAAAAAGCCGCCGUGGUGCUGGUAGACUAUACC'
p811
aS'GACGAUUACUAGGUGGCGAAUGUCUUUACACUUGCUUGGACACCCACAUAUAUCCUUUGGAGACACCUCCGGACCACCUCAAGAGCCGUUGCUUUCCGUG'
p812
aS'UGACAAAUUACGACCCCGAGUAUUGACCAUCCGAUCAGAUUGCAAUUCGGUAAAGCUCAAGGAAGCACAUAAUUAUCUUUGAAGUGCACGCGUGAUCUAG'
p813
aS'UGCCGUGCGUUCUUUCUUCAAUAACAAAUGCAGGAAGAUAUAUCCUCUACUAAACAAACAUUGCUUCGGUGAUGCUGUCAGUUCCACAUUCGGGGCAGAU'
p814
aS'GCAGGGUGUGACAAUUUCUCUUAACUUAAGGGGCCACGGUUACUCUGUAACGUAGUCACCGGCCACAUCGUUUAUCAACCAUGCUACUGGAGGUUGUGAU'
p815
aS'CGUGUUAAUUUAGUAACCUACCAUCUGCGGUGCUGAGGUCUUGUGUUGCAUGAGUCGAUGGAGCUGAAGUGCCGGCGGGGAUUCGCCGGGAGAGAGGUUA'
p816
aS'CAUAUGGCCAGACAUUGAUCGUAACGCUGGUUAUACCGCGCAGACCAUAUUAUCCGCAUCGAUCCCAGGCAGCUAACCGCGUUAGUCACGAGCUUUUGAA'
p817
aS'GAUCCCAUCUUCUCCGUGACGGCCCCGUCCCCAACGGCACCUGGGACCUUUUGAUUGUUCUCAAAAGUUGGACCUUUUUAGCUGCUUCUCUAUGCAACAG'
p818
aS'AAAUAGCAGCACCUCGAACUCCUUCAUUAAGCAUCGAAUCUUUUGAUUAGUGAUCUCUACACGUACCCUCAGUUUCUGUCCAUCUCGUUGUCUGGCGCGU'
p819
aS'UCGCAGGCCUUCAAAUUAUCACUAAACCUGUAGACGAACAUAAGGGCAAAUUGGUCCAGUUUCGCUGCCGUGCCAUCACGUUUGGUGACCGGCAGAGGUC'
p820
aS'GCGAGUACCUAGGAGAAAUAUAGUCAUCUGCAGCAGGGUACGCUAGAAAAUGAUGCUAAGGAACCCAUAUUGAUUUGCCAAUCGCUAUACAGCAUGGUCA'
p821
aS'CGCAAGAACACGGAACGACUCGUCCGGAUCCGCGUCUAGUGCGGAGCUCCGACUGUGUCCUCGACCCAGGGCUGAUUCUAUACUACCGCAGGAUCUCAGC'
p822
aS'CUCUUGCUAGCUCCCCAGUUUGCAGGACUCAGAUGGAGGAUUGAGUUCGUUUAAGGACGGGUGUUUCCAAGCACUACUCCGGUGCCUGCCAAUAUGGGUU'
p823
aS'UCGCUCUUAAGAUCUGAUAUUGUAGACGAAAGAUCUAGCGAGAGUAAUCACGGCGCGCCUAACAAUGUUACUCCCAGACAGCUCAAACUGCUUAUCCUGG'
p824
aS'UUGGCUAUAGCUUUAAAUGAGGUCAGGAGCGAAACCUCCCUGACAAGAAUCACGCCAUUCGUAAGGGUUGCUUGAAACGGGCCCGGAACAACUCUUGUUG'
p825
aS'CUGUCACGUUGCCUUCACAAAUGCUAUGUACCAACGGCAUCAGUUAAGGCUUUGUUCCCAUCUUACCCCAAAGUGGAUUAUCUAGUUAACUCGACCCAGC'
p826
aS'UACCCACUCCCCACUCAGUAGAGAGCGUUGCCCUCUCUGGCCUGAUAGCAUCGCUAUUUCUUAGUGGAUCGCACCAGUUGUAAAAAUAAUAUAGACUAGG'
p827
aS'AAAUGCGUAACAGUAGAUUGACUGCCAACUGCAUGAUUUAGUAAAGGAGAUAAUGAGAUUACACCAACACGGUCUUAUUGGGGACCACAGGCUCACGUCA'
p828
aS'CCCUGCUCUGCUAUCGCCAACUCGAGCUAGACUUACACAUGCCGCUAUAGCGGUAGUCCCACUCCGCACUUGCGGAAGUGACUUUCACCGACCCACAAAU'
p829
aS'CUUAUCGUAUUCCAAAUCUCAGGAAGAUUGGCUGAAGCGACGAGGUCUCGACGAGCUGUGCUUCUGCCAAAAACCUUUUUAAGAAAGUAUGUGGAAGGUU'
p830
aS'CGCUCCGUAAUGACACUCUGGGAUAUCUAUGAGAUGAUCAGAUCUCGACGCCGGACCACUCUCCGUAAGAAAAUAGUAGACCCGGCGUGCGCUACGUUGC'
p831
aS'UAAGCAUUAGGCCGAGAGUAGGGGUCGCCGCUGCAAGACGCCUAGCGACAUUGGGACGCAUAUGGGCAGUAUCGAAGACCUUUUGAAACGGACCAUCGAG'
p832
aS'UCCUAUCUGCUAAGUACGGCCGAGCGAGCAAUCUACGAGAAUAACUUGCGUCGCGUCAUCCUCAUAGCCUGAAAUUACGCCCAUACAUAAGAGCAUGACA'
p833
aS'GAGAGUGAGCCGCGCAGUAAGCAUACGUGACUGGAAGUCACACUGUUAAAUGCUCACAGUCAUUCGAGAAAUAUUUUUGCCGUUAGACCCAGUCCGAUUA'
p834
aS'AACCAACGACAUGGGCAUGGCCGAAAAUAUCUGCGGGGAGGGUCUGUUUGUGUAUCUGCCCGACGUUUUUUACUUCCAUAGACGAGUGUUUUACUCCCAC'
p835
aS'GGCUGAUUCGUGUACACUCCGGUCCCGGUACGUGAAGAGAACUGUUGGAGAAGGUCAGCAAUUUCCACGUUCACUAUAGCUGGCAUGGAGACUUGGUUGC'
p836
aS'CAAGCUACCUGCCCGGCAACUCGCAGCUGGUGAGGUAGCCAUUGAGCUGUGGGAAGUCCUUAUAUUAAGAUCCCAGUAAGGCUCCUCUUCUAGGGAUGUC'
p837
aS'GAGAUAUUGAGCGUGGCGGUCAUGGUAACCCCAGGUGCUCUAAGUCUGGUCUGUCAGGGUCGACUUGACUUAUAUGACGGACCCAAUUUUCCCAUGCUAU'
p838
aS'CACCACCCGUGAGUUGUCAGCAUCGUCUAGUUCCGGUGGGGCUUGAUGAGAAACGACCGCGCGACUUGUGGAUAAUACUACAGCAAACCACACCGACGCU'
p839
aS'CUCCAAGUCUCGCGACUUAUCAAACUAGCGCCCUAUGUCUGAGUCAGCCGGACCAAUGCAGCCCUACUGGGGCUCCUAAAGUUCAGCCAAGUCAACAUUC'
p840
aS'ACGAUUUAGCCUGGGAUCUUGUAAGCCUAGAGAUAACGGGCUUGUUCACACUAUCGGAUACGCGGAGUCUCACUUGAGAAGAUAACCACUUAGCCUGGGG'
p841
aS'CACCACCAAAUUAGCGUUAUCCGAAGAGUUUGAGGGACACCUGGAGCUCGAUUUCUCUAUCGCGUUAGAGGUGAUCGAAGAUCGGGGAGUGGGUUCGCGG'
p842
aS'GAGAUGGCUGCCACGAACGACGAGGGAGUUAUGACCAAAUAACUUGCGUCAGAUCAUCUAGCGUCGAAUACCCUGACGGCCGUCGAUUCUCCCAUAGCCG'
p843
aS'CGCGUAUCGUUCAAGAGAGUGUUCUCGGCUAGAAAUUGAAGUAAAACGUUCUUAGUUCGCGACCUAGGCGAGCUCCGAUGUAAAUGUCCACGUUGUGCUA'
p844
aS'UCAGAAAAGUAAUUUACGGAAUGGGGGAGUGUCAUUAUUGGUUAUCGUCACAUCGAGGCCCUAUAGUCGCUUACGCACACUGAGUUAAUCGGUACACACC'
p845
aS'CAUUCUUUAUGCAGCGAUAGGACCACAGUCCUAGUGAGACGUUAUUAGCAAUAACUUGAGCCAUAUUCUUUUGAACACAAAACACUUUACGUUGGGUUAC'
p846
aS'AGUUGGUCCCCAUCAAUGCCGCCGCAAGUCAGUUGCUAAAGUACACUAAUAUGAGUUAUGAGACGGCACAUGACGACCUCUCCGUGUUGCCGCGCACGUA'
p847
aS'GUCGCGACUCCGCCUCGACAAUCCUCACAUGAUAACGUUGUCGGCGCACUAAGAUCUGAAGCACUGGCCGGCACCCAAUCUGUCGUGAUAAGCGAUUGCC'
p848
aS'ACAAAACGAGCUCCCAAUCAUGUUUAGUGUUGCAUUACCGCCGGUUAAAUCACGGUAAACGGAUGCCUAUAACAUUCUAUAAUAAUACAUCGCUCAUCCC'
p849
aS'CCCACUGCACAGGCACCUUAUGGAAAUGGAGGCUGCGCCGGGGUUAGGCUGCGCUCUUGCCACAUAUGCAAGUCGCAAAAAGCCACUAUCUCCGCUCGAG'
p850
aS'GCAGACCAUUGUGUACGUGUGGUCUUCUCCGUAGUUUUUCAGUAUAUCAUCCCAUUGACAUUCGUAGCGACUUGGCCCCGGGGUUAGACAACCAAAGUGU'
p851
aS'GCCCGAAGGAUGAGGGACAACUGAGAUACCCGAUUCCCUAUCUUACCUAUCCAAUCAUCACGGAUUAACGGAAUGUAGAGCGAGAUACACGCAAUGGGCU'
p852
aS'AGUCUCUAUCCCUAGACCUCAGGCCCGGUUGUAGCAACUGCGUCAUAAGUGAAACCUUACGUAGGAUGAAGUGCGUUUGUGAUAGAAUACAGUAACACUU'
p853
aS'UGAUACGGUCUGGCAGUCCGAAACACUUCCAAUCCUGUUGUUCAGAUAUAGUGAUGACCGCGGAAGCCUCCUCUCUCAACUGGGCUGAUAGGAGAAGGCC'
p854
aS'UACGUGCUUACCUGGGUUGUAGUCUCUGGUACGUGACCAUUCGCCUGGGUUCAGAUACCCUCGGGUCGUCGCCUGGGUACACUUAAUGUUGGGCGAUGUG'
p855
aS'CGACAUUGAACGAUGAGCACUUCCAGAAGCAGUCUUUGGUCGUGUAGGCUCAUAUGACAGUUUUGCUCGUCCGGUUAAGUCCCACAGGUUCUUCCUGCCA'
p856
aS'UGAAUGGCUAUCGAUUCCUCGGAACAGUGCCACUCAAGUUGCGCAUAAAUCGGAGCACCUGUACGUCAGUCUGUGCCCGUAGUAGAUAGCGGGACAGGGG'
p857
aS'UCGUUAUGCAGUGCUCAGCGUGACGAAAGUCUCGGGUGAUCCCGAGCGCCGAGGGUAAUCAUUGUGUUUGUAAAGUACGGAUGUUGCAUUCGUUGACCCA'
p858
aS'GCCCCCGUCGAUGACACUUUCAAUAUAUGGGCCUCUACUUCCCGGUUAACGAGUUCGACGUUACGCUACGUCAUGAUUGCACUUAUAGUCUGAUCGUUGA'
p859
aS'AUAACCUGUGGUCGUUACAGGACCCCUGAUAAUUUUAUUUCGUUUUACGAUAUGCCGAAUUAGUAUAAAUCCAUCUUCGUGCGAAGCUACCCCAAGUCCC'
p860
aS'UCAAUUCGUGUAGCACGGUACAAGACGAUCUUACAAUAUGCUUUAUCGGCGUUGUACCUUGUUCAGCUCUCCGUUGAUAAUGAGACCGCUGAGUAGUCCU'
p861
aS'CCCUAGGGACUGUACCCGGUGGGUUGCUGCCCCAAAUUUCUGUUGUGCAGUACCGAACUAUUUCGCCAGACAGGACCGGCGGCGACCGUUAGCACGGUGU'
p862
aS'CUGGCUCUCCGGUCAAGAGCCUAUUCUGAGUGACAGGGAUUAGCGGCCAGAGACAUUUCCAGGUAGCUUAAGUCAGACAUGGGCUCACCUCAUCUAUCAA'
p863
aS'AUCAUGAGGAUCCCUGUAGACUCUGAAUACUUCUAAGGUCGUUACCUGGAGUGUUUUGAGGGCGGUGUCUAGUACUCGAAUCUCGAGUGACUGAUUCCGC'
p864
aS'GUUUGAACGUCGGCUGACUUAUAACUAUUGGGCGUGUUUGGACACACUCAUCGAGAUUUUGUAGAAUGGUAUGGCUUUUUUAGUACCUCUCAGGGCUGCC'
p865
aS'UGGAACUUAGAUCUUACAGGCAGCCCGCCUACAUGGACCCGGACUUAAAGCCAGCAGUUCAUGCGGAGUCUGCCGCGUGGGAAGCGUCCACUUGUGGGUC'
p866
aS'UAUUACUGUACCGGCUGCAUCUGUCGCGUGGACAGCUCUGACGCUUGGCGCGUGCCGAGUAUUGGGAGACGCAUCUCUUCUUCGGGGGAUUAAACCCAGU'
p867
aS'AGUGGGACAGGCGUGUUACUACGUACGAGGUAAACUAGUGAGUAGCGCACGUAAGCUUGUAUAGGCACCGAGGCGAAGACUCAGGGAUUACAUAGUACAU'
p868
aS'CUAGCAGAGAGUUCGACAACAUCAGAUUUUGCCAAACCGGUUCAAGUUUAACCAGCUAAUACCACCAGUACGUGUCAAGGUCCUCGGCAGCAUCAUGGGU'
p869
aS'UGAUACGUGAAAGUAACCGCGGCCUAGAUGUCCUGUAGCGUGAUGCGUGUAAGUGUGAAUUUUAAUCCUAGACAUGCGCGAUUGCUAGUUCGCGUUUGCG'
p870
aS'ACAUGCAUCUCUUCGGGCUACUUUGUUCUUAGUAUCUUCCUUCGAUUCUAGAAUUUCUUCUCCUGCCCUAACAAAGGUAUGCAUAGGCAGGAUUGGUUAU'
p871
aS'GUGCAGGGGGGCCCUGGAUAGAAGGACAGUAGGUCACCCUUCACCGGCAGACCGGGACUCCACCGAUUCAAGUUGCUUCAUGUGUAUCUGUCGUUAGUCG'
p872
aS'AACGGAGGCGCACCUGACUGUGAGUCUCUCCAAACCUAACGGAGCUCCAUUUAUAAUGUCUUACGGCUUAACUCCGAGAUAUGUUAACAAGUCACGUGGU'
p873
aS'GACACAUAGUAUCUCCGUCUUCUCACAGUAUGCUGGGCAUGGCACUGGUCGUCAGCUUUAAGUCUAAAUUGCUUAAUUGUCUCAAUACGACAAGCGAAGU'
p874
aS'UUUGACUGUACGAUUGUGGUGGUGUGCUAUUCCUAAGCCGAACUGCAUAGCCGCUACUGCUCAUACUGAUCCAAUCAAUAGUGAUAUAAGAGCAGCGGGA'
p875
aS'AUUGAGUGAGCACCUAACGAAAUAUGUAAUCAUAAGUAACCAGGCGUGGGUCCUGCCGCUAUAUCUCUCUGACAAAAGGAUGCGCCGCACGAUACGACCU'
p876
aS'GUCGCUUCACCUAUGCCUCCGUUGAACACGGGCGAACGGGACCUCUGUGUUGGUUGUGAGCCGUCGCUGCCAACGAUCGUCAUUGGUAAGGUGAGCGUGC'
p877
aS'UGAACGUAGAGUGUUCCAAUAUAUGACUUCGACCCCAGCCCCCCUUCCACGUCAUACGAUUCGCAAAGCACGGCGAGGUCAGUACCCAGGCCGGUAUAUG'
p878
aS'UGCGCAGGGGACGCGUAUGCAAGGCGCCCCAUGUCAACGCGCUUAUAAUGGCAAGUGAACUAAUUACUAUGAUGCUAAAGUCUGAAGAAUUUUGAGUUUA'
p879
aS'AGUAUGGACUAUUUCGAAGGCACUUCCGACAGCGUCUUACCGCCUUUUGCCGACUAAGCCCAGUGAAUUUCGCAGGCCCAGUUCAGUGAUUUAUGCCCGA'
p880
aS'CUUAACUCCUCCGGCUAAAGAUUUCCGGGCGCAGAACGUUUUCUGUCACCCUGGCAUAGUUCCCUUCACGAUUUAAUGAUCUCCCUUAUUAGACGCAUAA'
p881
aS'AAACCUAGAAACGUAGGUAAUCUCGCAGCUGAUGAUAUCUCGAGAAUGCUAAUGUAGGGGGGUAGCGGCCCCGAGUGCCGACGAGAGUGCACCACAACGU'
p882
aS'UUACCCAGGUGAUGAUACCUAUAUGUCAUUUCAAGACAUCGCCAGUAAAUCCGCUCAUCCAGCAUUAUAAUUGAUCUAUCACCCCACCGGCAUAUGGGCC'
p883
aS'CUGGAUAGCGGGCUAAUCUCCGGGCGCCGGGUGGCCAUACCAGCCAAUGGAAGAGCCAGCACCGUGGGCUGUUUAAAUGACCAGUGGUGCACACAACGCU'
p884
aS'CAGCGAUGUAGGCAUCCUGUACGUUUGCCCAUUUUUUAGUAGACCUAUUACUCCCCCAACGUCAGCCGACCAGUCUUCGUGUGGCUCCACACUUAAUAGU'
p885
aS'AACCGCAGUGCACCAAAGCGGCGGCAUAACUAUGAAUACGGCUCUGUACAGGUUUAAACGCGCGCGGUUUGCUUUUCUGGUAUGUGUAGACCGGUGACAA'
p886
aS'CGACGUAAAAAGCGCCGACAUACUUCUUUAGGCCACCCUCUGGAUACGCUAGAUGUGCUUUGCUCUUACGGUCUAGCAUCCCCCUUCUCUUAUGAUGGUC'
p887
aS'UCAUGUGUCCGGGCGCGUUGUUUUGCCGGUACCUAGGCACCCAGCGUUGGCGGAUUGGCAGGUGUAGCCACCAGAUUCCCAUGUCGGGCCCCCUGUAUGC'
p888
aS'UCAUUAUCGAUCCAACACCUUUUCAGAUCUUUCGCCUUGACAAUAGAAGUGGCUGACCCCGGGCUGCCGGCCAGGCCGCUAGAAGGGGCGGUCUCUCUUA'
p889
aS'GUGCUCUUCAAACAAUACCCCGUCGCUACAGGUCGAAAAGGGCGCUUUCUAAUAAUUUUGUCCGACCAUGGGCCAAGUGGGUACAUUCAUCGACCUGUCU'
p890
aS'GUAAUGCAGUCUUAGGCGCCAAGCUAUUGUAGUUGACCACGUGAGGGUAUGGUGUGCGAGUAAGUGCGUGUUGUUGUGGGAAUUGUGCUUCAGAACAUAA'
p891
aS'UCAACUAUGAUACUCCAAAGCGAUACUGAUCACAUAGGUAAGAGGAGCUCUUCCCUUCUCGUAACUAUCGCUUGGUCAUAGAUCGUAGGCACACGCUAAU'
p892
aS'GCUGUCUAAGGCUAAGAUGUAACAGAUCACAAAUCGUUGGCCCCGGACAGGGUCCAAAUAGAGCCUGUCGGAACCGGUUAGUAUGCAUAGACUCUCUGAC'
p893
aS'GUGGCAUGGCUUGUGGCACGACCGCAUGUCUAGUCACGUGUAAUUUUAAGUGGUUCACGUGCAUACCGUUUCGGAGUUUGAUCCGAACUAUUGAGUCGAC'
p894
aS'UGAAAAGUUCUGGAAGUCAGGAUCUCAUCACCACAUUGGACCGGGUAGGGCGGACCCUUUAAUUCUCAGCUCAACACUUGGUAUUUGCCCUCCUAUUUGG'
p895
aS'UAACCAUGAGUAGUUCUCCCCUGACUCGUAACUAAAACCCUCCGACGUACUUCCUACCAAUGGGCAAGCCUAUUCUGUAUCCCUGUGGAACUAUGCGUAU'
p896
aS'CACUGGUUUGCUUUCCUAAUCUAUUAGCCCUCAAAGAACGUGGUCGGCAAACGGGGGAAGGCCGAGGACUGUCCCUAUCGGGGUAGGCCCGCUCGUGUGU'
p897
aS'UAUACAUACUCCUGUUCCACUCCGGAACUGGUCCGAUAACGAAUGUCACCAAGACUAGGGUCACUAUUGAGCAGGUAACAAUCAUCAGUGUCUUUUGCCU'
p898
aS'UAGAGGUUGAAAAUUGAUCCUUAUAAGCAUUUAAUGAGUCUAACCGCUGCGCCUAGUCGAACGCACGUUGACCUCGGGCCGGAGAUCGUAAAGUCUUGCG'
p899
aS'UAAAUUUCCUGGAAUAGCGGGUAAUGGGGGUUACACACGGUUAACAACUUUGCAAGCAUGAGGUAACUAUCUGAGUUACACGGUGCGUCCGGCACUACGG'
p900
aS'UCGGUACAAGCUGUAAGUAUCGUGGAGUCCGGGGUCUAUGAAUUACGCAGGAACUGGCGGGUGGUAAUGGAAAUUCCGCCCCUUCGGAAAUGGCUCCAAG'
p901
aS'UUUCAGUACCUAGGGAUCGGGAACUCGGGCCACCUGAAUUGAUGACACUAGGCUACAUGUUAAUAAUGAACGUGACUGGCAGGAUCAGUUUUCCACGUCA'
p902
aS'UUGCGAAUAAUAGGUAGGGCCCCGUAGGAAUCUGGUAAGACAUAGCGCCGAAGGGACAGAGGUGGUCAUUUGGACUAAUGUGGGCUGCAAGUAUGUCUGU'
p903
aS'CCCCGAUAAUCGUAAGCCUGAGAAGUAAUAAUAAUUACUCCUCUUUGCUGUCAUUCAAAUUGUUGAAUUGACCACAGCUCACAAGAAAGGCGUGAGGAAU'
p904
aS'CAUCUUUUCACCCGGAAACUUUCAUCCUUUACGCCGGUUGAUGUGUCAUUAUGCCUGAGCCUUUGCGUGUUCCCGAAGAACCCUCCACUUGGUACUGCGG'
p905
aS'UCGAUAUAGUUGCUAAGUCGCCAUCUACCUAGUGCCGCUUCGCUCGAGGGGGGGUUGCUUUAAAUGACUUUGUUCCCACGCGAGAUGUCUUAUCAGCAGU'
p906
aS'GGCAAAAAACGGGUGUAGCUGAUUAACUUGUUCUAUAGUUGGUAGACAAUUAAAGACCUCCCAGACGGCUAGCAUACGAGGGCUUACACCACAGAUACCA'
p907
aS'CUCCCCUGGCGUAGAUACGGCGUUUUCCCACUUUUCCAGGCGCUAAAUACAUCUGUAUUAACCUGGCCCAACGCCAAACUCGCUUUGUCGGACGUCGAAC'
p908
aS'UUUUAGGGAUAGCAGGAAUUCUGUUAGCUAAAGAGCGCCUCCAAGUCUGUAGUCUGCUUACGUCAUACCCGAACGCCUCCCGACGUACGUAUUCACGACG'
p909
aS'UUGAUUGCCUAAAAUAGUAGGGUUACCUUAGACACGGCCCCGCGCAGCGAAGGGGUUUCUGGAGGAGUUGCUAAUCCUUCCGAUCGGCCGAUCUAUAGGU'
p910
aS'GGUCAACUAGAGUUAACUGCUGUACAUCUGUCCUGGGCGUGCGUAGGCAAGCUCGUUAAGAUAUGUCCUAAUAGUUCGAGUUCAUUGUCCAUCCUGACUA'
p911
aS'ACACGACCGGCUCCGCCAUGCUCCUAGGCGUCCCGCUGGCGAAGUCGUCCUAUUUCAAUGACCAUCGUGUAUGCAGUUACACGAUGCGCAUUUCGUUAAG'
p912
aS'GGCUUCAAAUAAAUGAUCUUUAAAGAGUCUUUCUGGUUCGUUGAGAAAGACGCGUCCGAUGGUCAAUGCGCUGAACCUCCUGGCACGGCCAGCUAGGCCU'
p913
aS'GGGCGAUAGUCCCUGCCCACUCCAGGAGUGCCGUCGCCCUUAAGCCUUACAUCUGGCUACGCAUAUGCGAAUGAGCAAUAAUUAAGCGCCCGGCCCACAU'
p914
aS'GUCGCGAACCGCCUAUCAUGAGGCUUCGAUAUACAGGAUCAACCAACUACACUCACAGUAGGCUGUAGACCUUACGUCCCUUUAGGGUUUAGGAUAUAGU'
p915
aS'CAAGCGGGAUUACGUCGGCUCUCACGGUCCAUGUGCAGUGCAAACUUGAAUAUGGUGAGACCGGGUAGGAUAUAUGAUAAGACAGUUUGUUCUGUCUUCA'
p916
aS'AGGCGGAGCUACGACUACGAAGGCAUACAAAAGCCCGAUGCGUAUAAAAGAAGAAACCAAUCCGGCGCCCAUCCGACUGAGGGGAUAUGGCAGCUAGGAU'
p917
aS'AGUGAUCGCGGCAGGCACCCUAGAGAAAACCCUUCCUGGCGAGUGCCUCAGCUGUCGACCCUAAGCUCUCUGGUCUCUGUUCCACCCCCCGGACCGCUUA'
p918
aS'UCCGAGGAAGUACCAUAGAUUCACCCAUCAUGGCGAUUAAUAGCACGAGAGGGAAGAGCCUAUCCUAGAAGCUAAUGUUGGUAUGGGUUUGUACAUCUAG'
p919
aS'CGACUAGUGGUAAGAAAGAAGGAACAGUGCUUGGCGUAGGUCUUGGCAUUAAAUCAUACGCGUUCGGCCCUCCGUUCAUUAGAGUGAAUCCGGAACCUGC'
p920
aS'GAAGCAUUGCAAAUGGAACCUUAUUGAGGUUUGGUACGACGGCAUGGUAUAGUAAAAGGUUGCACCGAUAUUUCUUAAACAGGCGCGAGAAAUAUUCGUU'
p921
aS'UAAGGAAUACUUGCUCGCGGUGAGCGCGUGGUGUUCUAUUGCUGCCUGUUCGCUCACCCCAGAAACCGAAUUCCCGUCGAAGAUGAGUAUAGUAGCGAGC'
p922
aS'AUUAGCAGGUCGGUGGGUAGCAAGGGCCUCCUGGCGUCGUUGUGUACCACCUAGGAGGAUUAACUGGUCUGUAUGCUAUCCCGUUUCGGCAGACUUAUAU'
p923
aS'UCCCACAACAUUUUAAGGCAGAGGAUUACGGACAGCGGGCACCUUUGGUUUACGGCGAUGGCGUGACUCCCCUAAAUCAACUGUUCUACCCCGGUCCGUA'
p924
aS'GGGGUAGAAGGCUUGCUUUUGAAUUACGCCUCUUUCUCCAUGUCGGCGCCUGCUAUUGUUAAGUCUGUGCCCGCACCAUCGCGUGUGACGGCAUUCAUGC'
p925
aS'UCCAAUCGCCGGAACGGGGCGGGGCAACGCACAUAUCGCGCGUCGCCACAUAUGCCUACACCGCACCCUGGCGUGGACACAUAAUAAGAGGCUUCGAGGC'
p926
aS'AUGAGCAUGCCUUUACAAUUGCCUCGGGGGCCGCUUAGAACUCCCCGUACAUCAUCAUGAUCUUUAUGCUUGAUAAUUCGCGUGUACCUUAUUCUAAUAC'
p927
aS'AGAACAGGUCUGGGUCGAGCUCCUCAGGUGCCAUUGGCCGAGCGUCUAUCCAUGACCUCCUACUCGGCUGACUCUCGUGCGCACGUACGGUGGUUACUCC'
p928
aS'GACCGCUAGGGAGGGCCGGCCUAUCUCAAAACGAACCCUGCAGGAUAUUGUGUUUCGGCCCGGGCUCGCGUAGGAUAGUAUAAGUGCAGCCUGGAAGGAA'
p929
aS'GUUGUACUUCUCUAUAGAACAUACUACAGAAUUUGGAGCGAAUAAGUACAUGUGGUGAGAGGGUACACAUACAUCAGCAGGCCUCACCACGGACAGCCGU'
p930
aS'UAUCAGGUGUGUUACUAGCAAUAAGCGGCUAUCGCUGCUGUUCUGGCUGCUGUCAGUAACUGACAGCCUUGACGGCUUAAUCCAUCUCGCAUCGAUACGU'
p931
aS'CAGGCAACUUGAUUUGGGAUGCUACUUAGUUAUGGUGGACAAGAAUGCGAACCAUUAUGCGGGCAAGACAGGAUUGAGGCCCUCUGUUUAAGCUGGCAAG'
p932
aS'CCUUCAGCUAACAGAUCGGGUCCAGCGUGCGAGUGCGUCCUAGCCGAGGUUUAACAUUCUGGAGUGGUGGGUUCUCGGUCGCGGACAUUCCGUCCGUAGU'
p933
aS'GGAUUUUGACUUCUCGGCCGCGGUGUCCCUUUUCUAGUAUUGUGGAGCCAUCUCCGUUGCCCUCACCAGUGACGAUUGUUAAAGAUCGGGCCGAAAAUUC'
p934
aS'AUUAACUGAUCGGGCUUUCCUACUUAAUUCCUUCCGGAAGAGGUGGCUUCGCGGCCUCAAGGGUGACUUAGAAGGACCUCGAACUAAACGGUGAUAAUAA'
p935
aS'ACCACAGACGCCGAACUUUUGGGCGACGAUAACACCGUUAUGGGGGGGGUAGUUUGGCGAUACCUCGGAGGAAUCGGGCGAUCAGCUAAGUAUGCUGUGA'
p936
aS'GUUGUUAGAUGAUGGAUUCCACUCUGCAAGGAAGUAAGAUUGAGGAUCCAUUUCCUGAUGGGAUGAUAGAUAAAACAACCGGCCAUUGGAACCGAGGGCC'
p937
aS'UUUAACUUCAGAUUCUAGUACCGGCUUCCCACGUGUGGAGCCACUCGCGCGGCAAUGACGGGUGGAUUCUGUGCGUUAGUUCGUUGUGCCUACUCCAAGC'
p938
aS'GCCUGACGUUAGAUCCUGUGACACACUUCCCCUACUCCUUGCCGCAGCAUAUCCUGCCGACCCAACUGAAGUCGUACUUAAGUUGGGUGUACAUGUGAAG'
p939
aS'AUCCUAAAGCAUCGCAGUUCACUCGCUGUUCUCCUGUAGUAUGAGCUUUGAAAACGUGGGCCCACCAGUGGCCUAAAAUAAUGCCCAAUCUUGUGCCUAG'
p940
aS'AUGGGAGCUGAGCAGUGUUAAGACGGUCUCGAUUAGCUUCUGCUUCUAGCGUAAUACCACACACAUUCUAAUGUUUACUGGGAGCGCGUCAACAAGGCGG'
p941
aS'GCGCAGAAUUCUUCGAGGUCAGCGGCCAGCUGCAACAGGGGUGCGAUAUGCUCAACCACUUUGCGCGACUCGCUUCUAGUCGAUCACAGGGAAUCAAAGG'
p942
aS'GAGAGGCUGGAUCCCUAUGAUUGUCAAGGGAGCCCCCCUAAACACAGUGUCAAGGGAAUCUGGAGGAACUGGGAUAGCGGAUCCUUCCCUACCAUCUGAC'
p943
aS'AAAAAGCCGAAUAGGAGAUGGAGACGACGGUGUUGGUCCCUCUGCAUCGCGAGUCUAUCAGGGCGGAUGCUCGCUCAACUGCUUUUCUGCCGUUCUUCCG'
p944
aS'AAUCCUAUCGCUCACACCCUAAAACGCGAGCUUUUAACGCAUACGGGAGGUGGUCGCUUGUGUCACUAGUUCGGGCUAGCGACGAAUGAAGACGGUAGCC'
p945
aS'UAUUCCAGGAUUGAGCAUACGUUAACGUACUCCGAGCGGACGUACCCCUCGCCAUGGAGAAAGCCGUCCCCGUGGGCAAGGAUCUUAAAUGGAACCCCCU'
p946
aS'GCUCAGAGAGAUAGACGUAAGGGGCGCAUCGAGGUAUCGAGUGCUUAGACAAGAACUAGUAUUAUCCGGUACGUUGUUGGUUGCUACGGGCGGUAAUAGA'
p947
aS'GUCCUAGCGAGGCUGGUAAGUAACGAACUUUUAUCAGGUGAGUUGAACUCCCCGUCUAUUUCAUGGCGCUACCUAUGUCCUCUCGCAAUGCACCUGGAGC'
p948
aS'CAGACUUCAGCCAGGGCAUCCGGAGUAGAUUCUCGUAUGACCGCACUCCGAACGUAAGCGCCUUAUACACGUGAUCCAAUAGAGGGCGCCGAGCACCAUC'
p949
aS'UAGGACGUCAACCGCUGGUACCAUACGAUUGACACCGGUUCAGGUAGUACACUAGGCCCAUAAGUGCACACCAUGCCAUAUUGUGGCUGACGACUACGGA'
p950
aS'ACCGAGCACAAGCCUGAAUAGUCGAACGUUAGAGUCUGAAGAAAAAAGACUAGCACUCCGUAAGUGUCUAGUGAUAACUAGAAUGCCUAAGGGGGGUGUG'
p951
aS'UUUUUACUCUUGUGAUUUGACGCGACGUUAUAGCGGGCGUUAGCUGUCAUGAAGGCUGGAUCCAUAUUAACCGGCAGACACGUGGCCGAAUAACGUAACG'
p952
aS'CGAGCAUACGUCCUAUUAGGGCACUACCCUAGGUUCAAACUAGUCCUAUUGACGCCGCGGUCGCCCACUCUCUCAAGGACAUGGGUCGCUCCGACUGUAU'
p953
aS'UCUUCGUCGGGGCGCGGCAUACUGCUUUGUGCAAGAUACCUGGACAUCAUGUCCUCUAUCCGUCUCGCGCCCAUACAUUAAACCUGAUCUUCAGGCUCAU'
p954
aS'AUACGACUCCGUGAAAUUUAUUUGCUUAUAGAUAGUUCUUACCAGAGUGUCGCUACUGCACGUACAAAGGUCCGGUUUGCCGGCCGGCGCGGAUGACAGU'
p955
aS'UUGUACCCCUGAAGCCAUCUCCGAUGCGCUCGCGUCGUAUGUUGGACCCGAGGACCUGGCAACAUAACUGCCAUAUACCCCCAGCGGUUAUAUCCACGUC'
p956
aS'GCCCAGGGACUGUCCCUAAUCUGGCCGGGGAUCUUGUACGUCCAUCCCCUUCGCGGUAUCUUAUCUGGUUUGCCUACGGGUGGACUUGUUUCGCAUUCGC'
p957
aS'AUGAUUAUUGUCUGCAAUAAGUUGUUGGACAAUAUCCAGGUAUUUACAAUAUUACUAGGAGUACGCUUCCCUUUAACCCUCGGGCAAUCGCUUUACGAAA'
p958
aS'UACUGCGCCAGCUUACUGAGUAAAUGCAGCUAGGUACUAAUCAGCCUGUUAGGCGGGAAACGGAGUAAUUUGGUCCUGCAUGGUUACGGAGUACUAAUCG'
p959
aS'ACUUAAAAUCCCACAGACCCUAGGUUUGCCAAUGCUGCACACAAUUUAUUCACCGGUCUAGCUGGAUGCCCAUAUGGACAGGUGAUUAAUCGAUAUCCGC'
p960
aS'GCCUCAGUGUUUAAACUGUGAACUAUAGAUGGUCAAUCUAGGCGCAGUUAGUAUCCAAUCACGGGCAUUGAACUAUAAUCGCGAAAACCUAUAAGUUGUC'
p961
aS'ACAUGCCGUAUGGUUACUGUCUAUGAGACAUAUAUGCGGCAAGAUUCGAAGCGAUCCAGGAUCAGGAUGCCCUCCUGGUUUAGCCACUUAAGUAAAAUCG'
p962
aS'AUGACAUUACAUAACCGGAUAGUAAUCUCGCGCGUACGGGCAGGAUGCCAAUUGGACCUAGGUCUGAGAGAAUUUCCCGGUAGAGACAUGAUUACAUUAC'
p963
aS'UCUCGGCAUGCUCUCAGGGUGCACCGUUCUACUUGGCCUGCCCGUAUCCUUCCAGUUUGUCGGACCCGGGGGUUUCGGUUGACGCUUGAUGGCAUAUAAC'
p964
aS'CGCGUCCUUAGAAUACUAACAAUUGUUUUGUAGUUUCACUUGCCUUGCGGGUUAACAUUGGACUCAAUGUGCUUCGUCCACAUAAAUCCCCACAUAACUA'
p965
aS'AAUCGAGACAGAAAUUCAAUUCCCGGACCUAAACGUCGAGGGGAUUAUUACUGGGUGCGCCUUAUUGUUACACGUCACGAGUGGCUUGUGGCAAGAUACA'
p966
aS'CGUACGAUACAAAACAACUCAUUGAGGUACUGAAUCCGUCUGAUCUCUUCGGCGGGAGUAUUCAAGCGAUCGUGGCAUUGUUGUAGCAAGAUGGGAACAU'
p967
aS'UAUAAUUGCGAAAUUGUAUAGGUGUGGGUCCAUGGUCAAUGCUGUAGACGCAACCCGCAGCGAUCAGGACCACUCUCCGUACGCGACCCUAAACUCGGCC'
p968
aS'GCGUAUAACUAGAUGUCAACGACCAAAAAUUAAUACCGCGAGUGAGUCCCAUCUCGGUUCGGGGUAGCGUCGGCGCAUCAACGUUUACCGAAAGACCUAG'
p969
aS'GGAUCCGGUACGAACGGGACGGGUGCGUAAUGACAUUUUUGAAGACGUGUUUUACUGCACAACAAGGCCAAGCAUUGAUUUGUGCGUAAGGCCUAGUACC'
p970
aS'GGCCGGGACCUGAGAGCACGGAUUCCAACAGUGCGCGCCUGGCUGACUAGGUGAAAAAAAUGCACCCGGAUUCGACAGAAUAUUCUACUUGUGCGAAAUA'
p971
aS'ACAUUUGUUUCGGCUCGGUGGUAGGAACCUUUUGGUGCACAAGUUUUUUGACGUGGACGGUUAGGCCGAGUGCCUCAGAGUGUACGCGGUCGAAAGAUUG'
p972
aS'ACCUAAAGUGGCUUUCUUAAUUCAAGGAUGUAACCCCAGAAAGUGAUCACAAGGAUCGUGUAUCGUUUUGAACCGCUCGACUGCCGUUGGGUGGCCCUUG'
p973
aS'AGCAUUGAAACACGGAGGCAAGUCACUACGAAACAAUGAAAACGCGUUCCAAAAGGGUUCUACGUUGAGAGACCCAUUCUUUCAUCACGAGGGUUACUCC'
p974
aS'CCUAAGGUGUAAAAGGGCUGGCCGUGUCGCAAGGCCAGUGGAUAGCUUUAACCUCAUUGACAAUUAGACUCGUUACGCCCCUCAAACUUGCACGGCACAG'
p975
aS'ACAAAAGAGCCCAGCCUGGGUGUGACUGGAAAUCUUUUGUCUUCGUUCACACCUGAUCCGGGCUUGACCAGAAUGAUUUUGCAACGCAUAGGACCGCCAG'
p976
aS'GCUCAUCCCGGUACCUAAUCAUACACAAAAUACACUACGCAUGACACGGUUUGAUGUCCUGGCCGUACGUGAUCCGUUAACUCACCAAAUUCGGUAGGGU'
p977
aS'AUUCCCGGGUGCCCAUCCCAACAAACUAACGUAAUUCGGAGUUAGUCCUGGAUAAGUUUCCGGGAGGGAGUGAGAGAUCGUUAACAGCACACUUUUAACA'
p978
aS'CUAAACAGUCUACUACUCACAUUAUAGGUGAGCGACGAACAAAGAAUCAUCUUGCGACGAUUCACAUGCUCAGGUUUAGCGAUUCUGUAGGUAAUACCCG'
p979
aS'AUCACCAUUUACGUGUGAGUCUAGAGCAUGUAUCUCCUUUUACUCAUGGCAACGCCAUUAUCGUAAAAAUGAUGUCAUAGGCGGAUGUGUGACCGUUUCG'
p980
aS'GCCACCUAUGUCAUUUGACCCACUCUGCUACAGAGUAUGUUCAUGUCAUCCUGAUAAUGUAAAACACUGGAUCGACAAGGAAUUUCCAGCAGCUCAUGGG'
p981
aS'AGAUGUAUCACACCUGCUUCUCGCGGUCAUCGAACAGCCGGAUAGCGUACUGACAAAGACCACGUAGUUUGCUUAGACUCAGUAAUUGCUAUAAUAAUCA'
p982
aS'AGCACAGACCCUUUAACUCGCUAGUGCGACAGGCAACUUCUCGUGCUGAGGCAUAGGUGGUUGCGGGGGGGAGUGAUAUCAAGAAAGUAGUUCUACAAGC'
p983
aS'CUCCGGAGCUAACCUACAACAACUCAGCGCGUGUUUCUGCUCCGAGUGGUUGCACACGCCCAUAUGUGUGAAACUCAGGACGAGUGACCUCUGGAUAACC'
p984
aS'ACCGCAGCCUGCUCCCAUCAGAGGUAACGCUGGUCUAGGGUACUUGCGCUGUCUAUAAUCCGUCCAGGGAAGAAAGAUUUUUCCCAAUGGUUCGCGGGCA'
p985
aS'GAACGGCUAAAGUAUGCUCAGAGCCGAUUGCCGCUGCACUUUAUUAUAAUCCUCCUGACUCGAGCGAACCGCUGGAAGUAACUCAAGAUCCGUCAGAAAU'
p986
aS'GGCGAGGCUGAGCCCACUCGUCGAACUUCGACACCAUAUCGAUCCACGGACCGUGUCUCGCGGCCCACCAAGUGGCAUCCUUGAGCUGGGAGACUCCGUC'
p987
aS'GAUCCGGCUUAGCACGGGAUAACUAGGUCGCAAACUGGCUUAUGAAGUUGACCAAACCUGCGAAACCCACUUCCUUCGAAAGCCGAGCCUGGUAGUGUUG'
p988
aS'GGGCGCCGAGGACGGGUUGAUAGGAAAGUAGCCGCAACCGCACCCAGUAAGUUUAGAGUGGCCUAUUUUUCCCUCGGAUAACAUUAUUAAAGUAGUCGCC'
p989
aS'GGGCAGCGUUCGGACAGCUACGCAAAUAGUGCGGUUAUGAAUACGUCGGACGUUCAACAGGGGGCUCGUGCCCGUAAAUGUUCCAACUGGUCUCCCCGUU'
p990
aS'CCGUUCUGUCGCCGAUAACAAUCGAGUGCUUAGUCAUUCAAGAACUCCCAGACCGCACGAAUCAUCUUGUGGUACUGCCAAGUAGUAAAACUUGCUGCAC'
p991
aS'UUGAGGGUACGACACAACCGCUAUAAUUACCGAUUCGCCGGCUCGGUUCGGCAGGGGAUUCCAUGGUUAUAUGUGAGUGGACACGUGAGACGUCUAUAUG'
p992
aS'ACGCGAUGCUGGGCGCCCUGUAUGACAGGCCGUGCCCGCCGCCACUCGCGCCUACACAGGACACCUCCUAUGACCAGCAUUUGUCUGUAGUUGUAGUACU'
p993
aS'AUAUUUACUAAACACCCGGGAGGCGGACUCGUUUCUACAAGAAAUCGAAACAUGAGCCCGCCGACGGCUCAACACGUACGGGAAGCCGGGCUCUCACAAA'
p994
aS'UAUAUCGUAUGUGGCUAGAUGCGAGACCUGCCUCUUUAAUAGGUUUGGACAUGACAAGUAAAAUAGAGAAUCAAACUGCUUGCAGGGAGGCACAUGCCGU'
p995
aS'AAUAAUUCUUGCUAAGUACUAUCUCAGACAAUCAAAAAACUCUCGAGUACCCGUCAGGAAGAAGCUCGGGACAGUUUGAUGCAGAGAGCAAGGAGCGAGG'
p996
aS'UCGGAGAACCUCGUUAAGCAAGUCGUGUACAUAUCCUCCACAUCUGUCGAUAUCUCCACACUGAUAGGGCAAGAAUGGGCAUUAUGCGCCAUUUGUAUUC'
p997
aS'ACCCAUGCCAUUUACACUUCCCACACGGAUCUGCGUCACAACGAACUCCUCCCUGCUCUAUGGAUUCGUGAAUGACGCAGAGAUCUUUGAGGAGUGGGCA'
p998
aS'AGCAUGAGCCCAACCCGGCAUGUAGGUAUUAAGAGCACAGCCCUCAAACCAUCGUAAGGAAUUGUUGGCUAGGAAAGACCAGGGAAGUGCGUGCACUUUU'
p999
aS'CUGCUGUCGCCAAACGUCUGUGGCUGCGUCCCUAUUGGUCCUUGAAGGCGUCGACACCGCUAGUGUAGCGACCUCCGCCAUCGUACGUUGCCGUACAAGA'
p1000
a.