(lp0
S'CCCAAGUCUCCCUAUGGAAUAACGCGGUGGAAUUGGAGAAGAAUCAAUUACCCUUCAUAUCCUCCCAAGAUUCGGUGCGGGAACUACAAUUAAGUGGGUU'
p1
aS'UAUAGAAGUCAUUCCAACUAAUAAAACACCUUGCCUAGGUGGACGCUGUUCGGGACCUCAAGUUAGUCCAGCCCGAUCAUCAAAUUUACCUAAUCAGGGG'
p2
aS'AGCCCCUUAGUUUUCAAAUGGCCCGCGGUUAGCGGUCUCCGCGUACCUCGCUCAACGGUUGUUGCCACUGUACCUUGGUUUGCGCGGACUACUAUCGACG'
p3
aS'CCAUGCUGAUCUGGAGACUCUACCUUCUGCGAUCUCUCCCGGCGCGUCCGGGCAGAUGAUUAUAGGAUAUCGGUACGCAGAAUAUGAUCACGUGGGUCCA'
p4
aS'UGAGGCGACCCGUCCGAGAGGGGAUGCGGGCAACCUAGUAAAGGAGCAACGGCGUGGAACGUGACGGCGACGUCCGGCGUAGGGUGGCUUCAUGUCCUGG'
p5
aS'GUAGCUAUCUAAAGAGAGCAUGUACACCCCGCAACCUCGAACAGAAUCAAUCCGUAACGGCUCGCCAUGACUUCACCUCCGGCUGAGGCUGGGAAGACUC'
p6
aS'UUUGAUGUGGAGCCUUUGCCUUAUCGCUACACAGUUUUUAUUUGGCGGGAUCGGCAUAUCCGUAUCCUACGAGAACUAGGGAGCUCGAUCUAGUAUUAGG'
p7
aS'CUUCGGACCCGACCUUGCGCCUGACCCUUCAGGUGAAGUAGUUGAAAACGAGGAGAGCGGUGCUCGGGGGUGCUACACGUGCGGUACAAUGGUUCCUGAA'
p8
aS'GAACCCUUCGUAGAAGUAGACCGAAGCUAGCUCCAAAUGACAACAUCCCCUACGGACCAUGGAGUUUAUAGAGGUCAGAGGAAAGCCGGUAUACUGUGCG'
p9
aS'CACAAAACAUUCAAGCGGUCAAAAUAUUUGACCCACAUCCUCCAAGACUGUGGCUAUAACCGUUUACUAAUGGUUACCACCUAGAGUGCCAACGGCACUC'
p10
aS'GAUUUGAGCGUUAUCGAAUUCUGUCUUUCAUACCCGUAAUGGAGCCAGAGGCAUACUCCCACGAAUGUAUUAGCAAGUCUUUAUCCAUGCUCGGAUUCCC'
p11
aS'CUAUCGUUGCGGCACCUGUUUUCAGUAAUUGCAUGGCGCCCUACCUGAAUGACUCUGGUAAAUAGUUGGGAUCGUCGCGUCAAGACAUUUAUCACCGAAC'
p12
aS'AGUGGAUGAGACGUCGCUCUUUCGUCUGACAGGCGCUGUAGGGUGACCCCGCAGCCAUGUCGGCCGGUAAUGUUAUAUCUACCAUCAUGCGAGCAUGCCG'
p13
aS'GGUCCAGCAGGCGAACCAUACUUGGGUUGUGAGUUACGUAAUGAAUCCUUAUUCGUCCUACUGAAAAGUAGCUGGCACCUGUUGUCGUAAGCUAAUACUA'
p14
aS'CAAAAUUUGGCGUUCUAAGGUUCACUCGGUCUUGGUUCUUCCAGCAAAGUACUUCUGAUCAGAAUCGACGCGGAGGGAUGGGAUCUGGACGAGAAGUCUC'
p15
aS'CUGCAAUGGCUCUUAGUUCUUAAAAGCCCCCGGCUCUAAACCGGCAAUACCUGGGUCUGGUUCUGCGACCGUUAGUGUAGAUUGAGGUUCCAGGCUCUCU'
p16
aS'CAUUCAAUGCCAAGCAAGCUCACUCACAUAACAAUUCCGCCGUGAAUUUCGUUUCGGCGCCACUCUCUACUUAGAAGAUGCAGUUCGAAUCAAAUAAAUU'
p17
aS'ACGUCGUUCUCCUAGACAUCGCAACAGAGACCGAGCCCUAUACUAGUUUUCGUUCUUGAAAUCUUCAUAUGCCCGAAUAUCACGGACGGAAGCCGUAAGG'
p18
aS'AUCGCCUUAUGGUCGUCCCGGAAGUUUUUAGGUCCGAGUCUGCACUAAGAAGGUAGCUGAUUCACCGAACCCUAAUCUAGACUUAGCAAGCGUGCCACAA'
p19
aS'UUCGCCUAAGGAUUGCUACCAUCUUUGAACGAUGGACUUUAUAAGACUGCAGUAGCGCUCAGUCCCCCAGGCCAAAGUCAGUCUGCCUGACGAACCCUGU'
p20
aS'GUCCCCCGAUCGUGGUAUUCCACAAUAACUACCACUAUUGUCCAUACUUGGGUUGCCCAACGAGCUGUACACCGGAUCAGCUUAAUUGUUCGCCUAGAAG'
p21
aS'AACUGUUGCCUCCAGGGUGAUCACAUCCACGACAGGCCAACUGUCCACAUGAACGUUCACUUACUUCCCUCUCUCUGCCGUGUAGCCAGUCGCUUUUCAC'
p22
aS'UUGCGAUGAGACACUAAAACACCCUGAAACAUCGUCACACGUACUCCACUGGUGACAGGGAUGUAUGCUAGGCCACGCUUGGGAUAGAUCAGAUGCGGGG'
p23
aS'GUCUGUUUAUGCGUUUUGGCAUUAUUUUAGUGUUACCUAGACACACGCACUCUGACAUAAUGAGGGCGCGAAUUUAUCCGUGGCUCAAAUUAAGCCACCA'
p24
aS'CUAAAUCGGUGCGAACUAUUUUGUUCCUCCGCAAUACUCCGGACUCAAUCCACGGAAUAGGGUAUUGUUACGAGAGGAGAUCACGGAUUUGUGAACCGGG'
p25
aS'AUCUAUCCACUUACUAUGUGCGACACACUGUGAAGACUCAAAAAUGACCGCUUCAGUAUUUGUGUUGCGGUGCAGACUUUCGGAGUCGCUCAAACGUCAC'
p26
aS'AAACAUUUGAUGUACUGCAAGGUCUUACUCCCUUAAUGCAUCCCCAUAUAAGCGUCUCUCGUAUGUCGCUACGUAAUGGUUUCGAAACUAUGUAAAAACU'
p27
aS'UACUAGACGCGAAGCCAUCUCUAAAAGCUCAAGAGCUCACCGAUUAAAUCGUCUUCUCCGUCAGAACGCAGAAAUGGCGCCGUUCACAAGUUCACCCUCA'
p28
aS'GAUUGCUACCCCGGUGAAGCCGCCCCGACAGAAUAAGAGACCAGUAGGCCUCUUCGAAGGACAAGCCUGUUGAGUCUUCCGAUAUAGCUCCGCAAGUUGA'
p29
aS'UUGAUCAUCCAAAUCCAAGAUCAUCUCUGCGCCUAAUAGAAGACGCGUAUAAGGUCAAGCCAGAGGAGAAAAUUCCGAACACUCUCCUCAUUUUGACCCU'
p30
aS'CAACACUACGGGCCUCGAAGCGGUGUGUAUGUCCAACCCUUGUGUAUGGCGAUGUUGCUGACUUCCCUCACUCACUGCAAGACGGGAUACAAUUUACGUA'
p31
aS'AACACCCACGGGGGGUAAGCCAUGGUCGAUGUCGCUACCUCGUACUCGCCCUUCGGAGCUGUCGCCGGCGGGGCUGCAUGUCUUGCUUACAUUGGACCGG'
p32
aS'AAUCGUAUGCACGUUUAUGAUUCUGAACGCAAUGAGUUAAUGCACCGGUCUAUCGUGCUCACUCUUACCUAUCCAGAAAUAUGGGAUUUUCCAUGCAUCG'
p33
aS'GGCUGCGCAGUCGUUGACUCAAGUUUGUGUCAGUGCUCCGCUACGAACGUGGGUCCAUGUAUCUGGUUCCUGGCUGGGACUGGAGGAGCGCCUAAUGCUU'
p34
aS'UCUCGACGGACCGUCUUUUGCUGCUGUGAGACCACUGGAAGCACGAAAGUCGGACACGUCUAGGCUGCCACUCUCACACACGGGUGGAAGUACCCUAAAC'
p35
aS'ACGAUAAAAUGUCCACGAUCUGUGUACAGGCCCGGGAGAAGCUUCCGAGACGAAAAACCGGAUUUCGCACGUUUAUACAAAUGUCAGCACGCUAGUGAUC'
p36
aS'ACCGCACGAGAUCCCAGUAGUUGGGGCCGUAGUGCUCACUCGAGUCCCAAUACGGGUGCUUCGAUAUACCCAUGGGUUGUUAUCCUUGCCAUUUAGCCCU'
p37
aS'CUGUAUCAUUUCGCCGCUCUUACCUUGACGAAGUGCGCUCCUAAGCAUAAACUCAAUCGACUGUUUAAGGUGCGAUGGAUGAGGGCAGGUCAGGCCAAUA'
p38
aS'UCCCCAGAAAAACCGAAUAUGAAUCAGAUCGCCAACCGCGUAGACAGAUCCGGGUAAGAUGUAACCGCUGCACCUAUGCCGAGGCGGAGUCAGGGUUCGA'
p39
aS'ACUUGGUCAGUCGGACGCGAACCUGGCAUAUGGCUCGAUGGGGCAGCCAAAAAUAUUGUUCGACUGUCGGAAGAAUGCUUCACGCUCUAAUAAUCGCACC'
p40
aS'UAGUAAGAGCUUCACAUCACGUAUGUGCAGCUAGACGGUUUAGAUUCCCCCGCUCUACUCAGCCUCCCUUACCCUCAGCUUUGCCUACUCGGUGUACGUA'
p41
aS'CGAAACCCUGUACAGAUCGGAAUUCUUCUUAAAAACAAGUCGGAAGGCAAGUACGCUCCCCCCUCAGAGAGCCUCACCAUCGCGCACGCCCUCUACCCAU'
p42
aS'AGCCCAACUCGCUGUGGGGUUGUACGUCCAAGCUAAUCUUUCCCGUGAACAACAGAGUAUUUCUUUAGACGACAUUUAAUACGUCCAAGCCGUCGAACUA'
p43
aS'ACCUCCCGUAACAUACCAUUUACCCACAUAAAUUCUCAGGAGCGGGAAUAGGGGUUUAGUUGUAACGUUCGUCGAGCAUUCACAUGACACAGUGCUACGG'
p44
aS'UGUAAGGCUGGAUACAUCGCCGACAGGUAACAUCAGUAAGUUGGGCCGGGGUGUGGUCAUUGACAGCUUAUCUCAGAGCCCGUCCCAGGAGACGAAAGAG'
p45
aS'CGCCCGCUGGUCAGAACGAAAGUCCGUCCAAACUUUGCGCUUUUUAGUAAGACCUUUUUGGCAAAAUAUAUAUUGUUGCCGCAGCAGGGCACACGAUCGC'
p46
aS'CGUUUUUGCCCAUCGAUCUUGAUUAAGCAUGGCACACGCCCCCUGGAAAGGCCUAGUAUGUGUACACGAGAGAUGUUCGAGAGUAAAUCUUGACGGUAAA'
p47
aS'GAAAUAAAUGCGUGGCAGACUCUAUGGGGUUCUGAUCCUCUAGCCUGCGUGUUGUUCAACAAUUCUCUUAGCGACGAGAUCCGUGGCCCAGCUAGUUCAC'
p48
aS'AGGGGCCCCAAUAGCAGCGAAGCUCGACCGUUGCUAUAAAAACCGUCAAAACGAUCGCGAUUGCUGGAUAUACUGUACUUUACUUGGCCCUGUUUCUUGA'
p49
aS'CAUAGGACCGUGUGCAAAAGUCUGUUCGACAUAGUCCUGUCACAUUCGCUGCUAUGACUAUCGGCUCAACGUCUAGGGCUUUGCUGUCAUUGGUCUGCAC'
p50
aS'UUCGGAGCCUCCCUAUUCACACGUCUGACACACCAACAGGAGCAUGGUAAGCGAACCUAUAACGAUCGUGUGUCGAACGGCCACCCGCACUUCUGCACCG'
p51
aS'CGAGCGCGGUUCGGUUAUGGCUAGACGCGAAAGCUGAAUUUCUUGUGACGGUUUCCGGGGACCCCGACGACGAUCACGCUAUUACUGUCCAAAACUAGUU'
p52
aS'AGUACACCGCCUCACAACGCCUGAAAGCGCUUGGAAUUAAUUCACGGUCUAUCUAGCACCCUCGGUAGAGAGCGAUUGAUUACGAAAACGGUCCCCCCUC'
p53
aS'AUGCUCAAAGCAGUUAUACACUUGAUACUUAGUCAGGCUGUCAUUCGGUGGCUAUUCCAGCCAUUUCAACUCCCGGGUCAACAUAGUGGCCCUCACAUCG'
p54
aS'GCCGCAGUAAUUGCCCACCAGCAGACUAGUAGUACUGAUUAGUAAGGAAGUCAUUGAUAACGGUGAGCUGCCCCCGGCCCGUACGGGCCUACUCUGUUUG'
p55
aS'UAUACACGAACAAAGCCCGCCUCCCGCAUUACCAUGCCGCCUCUACCGCUAGUCAAUGUCCUAAGGUGCGGGAGCGUUACAAAGACGUCCCAUUUUUUGC'
p56
aS'CGCGAGCUCUUAAAGGUAAGAAAUCGGAGUAGCUUUUUCGUUAGGCCCAUCCAUCCGGGGUUCCCCGGUAUUUCAAACGCAAUAAGCCCUAAUUACAGUC'
p57
aS'AGCUUUCAACCAAACAAAACUGGUAUUUAUGUAGACGGAAUGUUUCGCACUGCGUUUAAACCAGCUAGCUUUCACUUAAGCAGCUUAUAGUUCCAGACUC'
p58
aS'GAGUCAUUAGGCGCUAUGGCAGCAACUCGCGUCGGGCCACGCCCCCAUCCCAACAGCGCCCCGUAGUCGUAACCGCCCGCACGUUACUAAAGAGAGAGUC'
p59
aS'UACCAACUUCCAGAACUCGCGCAUUAGAAUGUCGGGCUGUUUCUCGGCGAGACUGUCGCGCAUUACGGACACCGAAUAGUCGAUAAGCCCGGCCCUAUAA'
p60
aS'CCAUUUCACUGGCAUAUUUUAUGAUAUAUUGUUCUACUACCCCGGUUCAGCUUGUUCUGAGAUCCAUCACCGGAUCGUGACGACCUUGUGUUGAUUGGGU'
p61
aS'CAUACAGCCAGAUGUAGCUCUGUAGGACCACUUUGCGCGUCCCGUUUCUCAGGCAGAGUGUGCACGUCUGACCGGCAUCCUGCCAGCGAAACGUAUGUUA'
p62
aS'GUUCGCGAAUGCGGAACCAGCUGUGAGGGGGUAAGUCCCAGCCGUACCGUCAUGCCUAAUCCCCUUUAAGCUGGAAAGAAGCCCUAAGUUUCAUAAUCUU'
p63
aS'GGAAAUUCACAGAACGGGUUAAGAGCAAUGUUGCCACUUUAACUAGAAACUGGGUCGCGCUCCGUAGCUGUUGACUUUGUUCGUGAAGAAUUAGCUGAGC'
p64
aS'UAAAUCGCAUAGGUUUCGACGAGUAUGUGACAGAUGUUCCUGCCGACAGUCUAGAUUCGUACGGUCGAGGAGAGUAAAAACUCAUUUACGUGUGGCGUGC'
p65
aS'AAGUUAGUCCGCUUGUCCAGAAUCCUGUCAAGUCGUACGAUCGUUAGAGGCAUUGGGGGUCUAGUUCAAGUAGUAAAGGAACCUCGACUAGUUCAUUCCA'
p66
aS'UUCGGCGGCGAAAGUCGCGCGGAGAAAAAUAAACGGCCUCGCCUUAAAUGGAAGGGUUAAAUGCGGGUUGUUAUGAGCUUCCCCAAGCGGGAGCUGAAUA'
p67
aS'ACGGUAACCUUAGCUGCUGCGAUAUUUUUCUAGCGAUGCGCCCGGCGAGGCGAUCGAACAUGAAGAAGUCUCAAACUACGAAAGGCUCGACUGAAACGUG'
p68
aS'AAGUCGUAAGGAUUCUGUCUAGUCAAUCUGUAAGUCGUUCACAUCGGACAAGAUAACGAGACAAAGAAAGCCAUAAGGGGGCCGGUACGUCAUACAGUUG'
p69
aS'UGGACCCAGUUCGACCAACCUCCGUUUAGACGCCCAGUACAGAAAGGAAUGAUAGUAUAGUGCACGUUGUGACCUCAUCCUUUCGCGACUCUAGGGAGGC'
p70
aS'AUUGACGAAUUAGCCACAUGUGCUCCACCGGCCGCAGCAUCGGUGUCCCCGGCUCUUGGCGUGCGUCGUGGGAGGCAGCCUUCUGACGACAACUUGUUUC'
p71
aS'CGAUCACGAGCGCAAGGGACAUGCACAUCAUUCGCCAGAGAAUGUUAUGAUCAUCGCAGCUCUAAUAUCAUAGGAACCCUCGCUGAGUGCGAUCGCCUUG'
p72
aS'UGGCGACGCGGUAAUUCACCUCUAGACCUACCUUAACUUGAUGGCCUAAGCAAUUCUAUAUAGUCGUUAACGUUCAAGUGUAGGAAUCAAGCAUAGCCAA'
p73
aS'GAGAAUUACGCUUCUAAUUCCCAUGUCUGGUAGUACUGGAGCUAGGCAGUAGUGGGGCUUGUUAGUACGCUUUGCAGAGUCGCCUCUUGCUCGCCUUCGG'
p74
aS'AUUUACCCCCACACGAGUGGGUUGGCUUGGAUGUAAAUUAUCCUCUCAGCCCCUGAAGUCAGUACGCGACCGAUGAAAGGCUUAAGUCACAGGUCGUAUG'
p75
aS'AUUUCCUUGGUCUUCGGUCCGACGCGACAUACCGCUACUGAGAGUGUAUUGCGAUGAGAAAUGCGCGCCGCACGGUUGUCUCAGCGGUAAUCCAUGGUUU'
p76
aS'AAGGACCCGUUACUACAUGGUGAUUCCACUGUUUUGCGAAAAAGAGGUCCAAAUGGUUGCAAGCAGAUGUGACGUAUCGACCGAUACAACUGUCUUUCGC'
p77
aS'CAAUGGUUAUGCAUCUUAGAGCACUAUAGCAAGCGGAGAUUUAGUACGUCCUCGGUUUGAUAAUCGUAUUUUGGCGUUCUGACGGCAGCCCUCGGCUUUA'
p78
aS'AGGCCCUAACCCUGUUAUUCGUUUUCUUUAAAACCGGGUCGUUACCCGCACGCGGAGCGUGGCUUCAGUUCGUGAUGCGUUCCAAGAUGGCCCCGAACCC'
p79
aS'UAUUAAUAUAAGCACAGGCACCACCAGACGCCCCCGUAGGGUCGCAUCUUUAUGCGAACAGCCAUACGACGGGUCCUAGCUUUAUUCGGGUUUCUUCUCG'
p80
aS'UCUGCAUCUUAAGGUGAGGUGAUGCGGCCUGAGUUAUUGUAAAAGGCUCUCGGGAAUCCCCUUACCCUUCGUGGGCUAAGAGCGUCAACAAAGCGGUUGG'
p81
aS'GAGGGGCACUCGAAUGCAAUUGUCGCUAAUUUACAGGCUGCAUACGAGUAUGGUCAACCCACAGAGCCACUCGGGUGACGAAGGUUGUAACACUCUCCCU'
p82
aS'CAUCUUUCCCUCUGUAAUGGGAACUACUGAUCCUUGGUCACUACGGUGGAGCAUUUUGCCCCCGAUUUGCUGUCCGCAUUUUUCCUCUCGCAGUUUGUGU'
p83
aS'UCGGAUCAUAAGGCGUACGUCUUGUAUGGCACCGCGCUUCCUCCGAAGAUCAAGAAAUGUCCUCAGGGCUCAUCACCUGCCGCUUUCAUGUCACCAUUUA'
p84
aS'UGAUGCCCGCCCAAGCUCCUGACUCCGAGUCAGCUGGUGGACUCGUCAGUGGAAGCGUCAACGUCGUGCAGUCCUGGAUAAGACUAAACGCCUGUUCUUG'
p85
aS'GCACCGCGGAUAGUCUUGACAAGGCUGGCUCAGCCAGAAGCCUCUAACAUUUUCUGGUGUCCUCGGUCCCCGUAGGUUAACCUCAGCCCCCGAUAAACUC'
p86
aS'GAGAUUUUAUUGGGCAUAUCGCGCGAGUUAUUGAUUACAAAUCGUCAGCACGAGGCAUUUGGGAUCACGGAGUAUGUCGAUUGAGCCGGUCCGGCAAGGG'
p87
aS'GCCCUGACUUGGGGAGUUUGCAAUUUGGAACGACAUGCAGGUGAAGAGGGCUACAAUCCGUUGCGCACUUCAUCUUUUGGUACCCACCGCUCCGAGUCGC'
p88
aS'AAUUGGGUAGUGCGCCCCUGUCCGCGCACCCGUAACGAGCAUGGAGACCUAGGCUCGUUGGUAGGGAUCGAGACUUGUAUACAUUGGUCCGGUGUUCAGC'
p89
aS'GCAAUUAAGAAAGCUCAAUGGAAGUCAUCGGUCACUCGCGGAGCUGACCAGUUUGCAAUCAUUCUACAAGCAAACGCGAAUUCCUGGAUGAGGGAAUACC'
p90
aS'UAUAGAAUCCUGGGUCAGGUAGCCCCCUACUAAACCGUUUUCAUCGAAAGGAACACUUAUUGUUGAGUAUAUAUCGGCAUCACUCAAAAGGGCCUCACGG'
p91
aS'UGGUUCAGAUUCGGCACCGUCGCAGGUCACAGAUCUGAACGGCGUCAGCCUUAGGAGCGCUGGGUUCAUUCCACUGCCUUAGGCAGACCGACCGUAUAGU'
p92
aS'CAGAGAAGGGACUGAUCCGGGAUAAGGCCGAGCAAAAGCGGUCUACUUCUUUGACCUGAUCAGCAAGCCAAGGGGUAUGCUUCACAACUACGGGACGUGU'
p93
aS'GCGUCUCGAUCGCUAUCACAAGGUCCCUUGCUUUGACUUAAACCAUGAUGCGCCGAGGACUUACGACUCUCAUCUGGACGAUAUAAAACCCCUUAAAAAA'
p94
aS'ACGAAUGUUGAGUCGGUUCAUGAAAAGCGACCGGAACUAUGCACAAGUCAUGUGCUCCAUUCUGUUCCACUGGAUCAGUACUGUAUGCCAUCUGUCCGUC'
p95
aS'GUUAUGGGCUGGGUCACCGAUCGUCUAACCCUCACUGCUGACAGAUGCAACACGUAGCGAUAGUCCCGACCCAUUGGGGAGGACGAUGUCUCCCACGCGC'
p96
aS'CAGCCUAGCUGUUAGUACGGGCCAUACUCGUCACCUAAGCACCCAGACUUUCGGAUCUAAGGUACGUACUAUUGCGGAAAGACGGAGUUCGUGGACCCGA'
p97
aS'GUAAAGGAUGGACCAACCCGCUUUGCAGGCUCGAACUCACACUAGCGUAAAAGGUUCACUGCUGUCUUUGACAGCCUGUCGUUCGAGUCUCCACCUUCGU'
p98
aS'GAAACUUUAGUUGACCAUAUUUGAUACUGAUACAUGAACUUAACAGUGGGUUUUGCAGUCAAGUGGUCGAGGCGCAGCCAUUCCGCCACAUAUAUUCAGC'
p99
aS'AAGUGCCAGGCUGUCAUUUGAGAAUCUUCCUAAGGGUGGCUUGUGGCCGGAGUCGUAUCCUCCAAAGUUCCACGCUAUGUAUUGCUUUGACGGGUGCAUG'
p100
aS'AGCCACUCCUGACAGUUAUCGGAGCCUGGUCGCGAGAAAACCCACCCGGACCGCCCCACCGCUUCCCUGGGAUUGCAAUCACUCUGCUAUGCAUAGGUAC'
p101
aS'AAAGCCGGCACCUAUGGCAAGUCUCGGCUUGAUGCUGCGACGUGCCUAAAUGACGUAUGAUAACUAUGUCUAAUGAGGUCAGUUUCACCCUAGAAUGACA'
p102
aS'UACAAGAUUUUCGAGAGCGAGUCUAGUAGACUGAAACGAGCUGUUAUUCAGUAGACAGCGCUCGUCGGGCGUAAAUAGAAAGCUUUGGAACGUUCAUCGA'
p103
aS'AAACAUUAGGGCAUGCCGCCAACUCCCGGCCCGAAGAGAUCUCUUCAUGAGCUUAGCGACAUCUUAACUAAGUUGAAUCUGACUCUGCCAUCUGAGAAAA'
p104
aS'AAGACCAGGGCGCGCGGCAGGUAGCGCAUCUGCAAGUAUUUAUUUGUUCGUAUCUGCACGGAGCACCUUGGGACGCUGCGGAUCAGGGAAGAGCACCAGG'
p105
aS'AACUAAUUCGUUACCCUGGGCUUUUUCAGGUGGCAUCUUUGGUGCCGUGACAAUCUUUAAGAAAUAAGACGGGCCACUAAGAGAUCACUCCGGUGGUCUC'
p106
aS'UGACCCCAGCUCUCGUUUCACGGCGUGAUGUGAUUUCUUUGGUCCAUGAAAGCAACUGACUAUUGGUUCCCUGCUACUCGUACACCCUAUUCAUACGGGC'
p107
aS'CGGUUGGGCAUUACUCAGCCUCGAUAAGGUAAGCGAGCGUGUAUCAUCAAUCAGCACUGUGGGCGUGAGAAUUCCGGACGUUGAGGGUGUGAUUCAGUGA'
p108
aS'GGAAAACAUCAGCCUAAGGCUGUAAGGGCCCCCCCACCCGCCUCAACUCUGCACAUGUAACCACUGCUCAUCAGCAGGGCGAAAUUUCCCGGUUCCUGGU'
p109
aS'GGAAUUCUGCAUCGAAAUCCCAUAACCUGGAGCUUAGUAACUAAAGUCGAGCGCAAACUGUACAAGUCAACAGCCAUUUCGGGAUAAUGAAUAAAAUUUA'
p110
aS'ACGGAUGUUUUGCAGUAAGCUGACCACUUGUGCUACGAGCGCAAUGACGCCUCGCGCUUCAGUCUCGAACGUUGUCAACCCGACCCCUACUGCCCUCGGU'
p111
aS'AGCGCGUCAAUCGUCACUCGCGACAUGACUCAUCACGACUAAUCGUGGACUCUUGGACGAGACGAUAUCGCGCAUUCGGCUCAUCUGUAGUAUUCGGGUC'
p112
aS'AGUUUGGAUGUUAAGAUCGAACGAAGUAUAUACUCAGGAGGGGGCACACUCUGGCCCACCGCCUGAUAUGCACGGUCCCAUCACGUGAAGUCCGCAUGGC'
p113
aS'AGAGUAAAGAUAUCUGUCAUCGAACAGCUUCCCGUUGAGGUCAGUAUCGACUCCCUAGCCUGUAAAUGAAGAAGUGCCCGCAGGAUGUUAACACAAACUC'
p114
aS'GAAAUAAUUUGGCCACAUGUUCAACUAUAUACCCACUGGUAGCAAGAGAGUGCGCUACGGGCCAUGAAAGCUCAAGUGUGGCGCCUGAUGGAAGUACGGU'
p115
aS'GAUAAGUCCGAUGGUCCGACGCACACCUUAGUCCUCUGAGUUUGUUGGAACUUGAGAAUCAUCCUAGGGAAAGAUCGUUGAAUAGACCCCAAGGCCAUAU'
p116
aS'CAAUAUAGGGUAUCCAUUUUCCCAUUCUUGCCGAUAUUAAGUGCUGUCUGAAAUUGUAAUGUCCAUGACGUUCGCGAUACUGAAUGAGUUGGCAUGUUAG'
p117
aS'CUAAGACCGGCGAACCGAGCAUAUGGGUAACCAAUUAGGCAACGAGUUAGUCGGAUUGUGGUACUACAACUCGGUUGUAAACGAAAUGGGGUCAACUACG'
p118
aS'GGAGCUAGUCGGAUCGGAAAACCGAAGGAUCCCUGGAUAAAGUACAAGACAAUACGGUUUUAACUUAACCAGGUCUUUCAUCACACGCUGGGGAUUAAUA'
p119
aS'ACGGGGAACAAAGAUUAUAGCAGUGCCUGACUUCAUGUGCUUAGAUUAAACGUUGGUAACAGGGGGAUAGUCGAUCCUUCCUUCGACUUUCGCCGUGACU'
p120
aS'CGCGUGCGCGGUCAAUAUUUUCCCACUAGAUUGGCAUAGAGGCAUAUCAACCCUGAAACAGUAAAUCGCUAUGGGCUGCAAGAGCCCCUAAAAGAAUUUU'
p121
aS'AUUUACCCAGCCCCGUUGACGCGAAGUACUAGCCAGUGCGCAAACAGUGGUGGUGGAUUCGGGUCUUUGAGCUAUAAAACUGUAUCAGAUUGGAUUACGA'
p122
aS'CACGACUCCCGGCCUAGUUCAGCUCGCCACUUCUUCUAGAUUACCCGCCGGUCCCGGUGGAUUCAGCUCCGCGAACCCAAGACGCCCUUCGAGCUUGGAA'
p123
aS'AGCUUCCAUAUUUGUAUGAUCCUGUUAAGGGUGGGGGAGACGCGCCUGUGAGUGCAUCAUUUGGCCUUAUAUUAGUAGUACCGAUAUGAGCGACUCAUAA'
p124
aS'CAAUACUGCUUACACAUAAUUUUUAGCAUCUCUACAACGACCUGCCAUGGUUGCUGUAGCGAGCCCCAACGGUUCGAUACCACAUUAGUGUACAAGCCUC'
p125
aS'UACACCUACCCAGCAGCCUAAUCCUCCCCCUUGUUUGAGAGAUUGGUUGGUGCCGAUAGAGACAGGUCGGACCAUGGGAGCGCUAACAUCGUCUCGGUGA'
p126
aS'UUAUCGUCUCCCGGGAUGCAGCCGCCUAUUCCGAUCUCAUUUCUACUGGCAGAAGCAUUCCGUGGCGGACAGUGGCACCUAAUCUCAGACGAUUUUUCGG'
p127
aS'CGUCUGGUUCGAUCGAAAUCUCGAUUAUUCCGAGACAUUAGUAGCGAAAUAUAACAGAGAAAUCGAGAGAGCCCCGAUGUCGUGAAGGAUCUGUGGGUUA'
p128
aS'AAGGUGUAGGAUAACUCGUAAUACCCAGGGACAAUGUCAAUCGGAUUCACUCAUGUUGCCACAGCACUAUACCCGACCGACACUAGGUCAAGUAGGCUCA'
p129
aS'AGAUGCAUUGGCACGGGAGGGAUAAGCGCACCAGUGGUCAUAACGGCAUAGCGCCUGCUAGACUUUGGUGCUUUGGCCCAUAUCCUUCGUUGCUAAGAAG'
p130
aS'UGUGACGACAAUUGGCCCGGGCGUCUAGCGAGUUGGUCUACACUCUAUAAAUACGACGGUUCCAGUAUAAACAAGCAGACGUAAAGGCAGGUGAAGCAUU'
p131
aS'CCCGCGAUGCUUUAGGAAACCUAGUGGCUGGAACGUAUGUUCAGAUAAGUCAGAUUCUUUGUUAGUCCUCCUCCGUUAAGUUACGUAUUCUGAAGUUAAC'
p132
aS'UGGAUUUUAGCUAUUAUGCCGUUGCCUGCAUCUGUUAUUCGGCACGCAGAGAAGGAGGGCUCCACUGAAUUUAUAUUGAGUACAACGAGCCUCCUCAAUU'
p133
aS'CGGCCCAUCAGGACAGCCUUUGAAUAAAGGUGCACUCGCGGUCUUUCACUCGGGGGCCCAGUACAGCGAGAAUUCAAUGCAUAGCUCGGGGUUUGACCCG'
p134
aS'CUGGCAUGCUCGUGACAUGAUGCUCUCACAAAAGAGAACAGUAAGCUGUCUUAACGCGUGAUGCGCCGGGCCGUAUUCCAAUCUCGUUCGCGGGGACAUC'
p135
aS'GGUAAAGCGUCCACCUACCCAGCUGCUAAAAAGCACGCCACCCUGUGACUGACACGACAGGGAAUUGGGCCUAUCGUACAGCUUUUAAGGAUAGUCCUUU'
p136
aS'AGUCGUCUGAACGCCUCCGACUCAGAUGGCUGGUUAGACAUCCCAUGGAGGGAUCUACGUACGCACAAUAUAAACUGUGCUUGUUACGCAGCGCCGAGAG'
p137
aS'CUAGAUGGACUCUAAUCCAUCGUUUCCGUCUUCUAGUGGAUAUGCCCCCGGGGAACGAUCUUGCACGGACGGCAUUAUACGCAAACAGCGAGAUAUCCAC'
p138
aS'AUGAGAAUACACUAUCCCGGGCCUGGUGGCUAUCAGAGCUGUUCACGAAGUAGAUAGCUAAUACAGUGUCUAAUCGAUUAGCUAAUCCUGAGGCUACCCA'
p139
aS'GGGUAUGUGCACUGAAAAGCAAAAGUCUGUAGUGGUUACGACUAUGGGAUAAUCCAUCUCGUGGGAAGGUCGAGUAAGGUGACGUCCUCAUUGUGGGAAG'
p140
aS'GAAAACCAGGUACACGACUACCCGAAGGAUGUUCGUGAGUCCCAGCUGACACUACAGACCUCAAUGGGUUGGUAGGUUCUCACGUUCCAUUGAUCAUACC'
p141
aS'GGCCUUACUACGGAUCAAAACUUUUUAGCUCCGUUAAACGACGCCCCCCCCCAGCACCUGCACGUAUCCUCGUUUGCUUGGCGGUAAACUACCGGACCCU'
p142
aS'CCUUAGUCAGGUAUCUGGAGUAGGAUUGGAAUAUCUACCUGCGGAGGUAUAAUGGGCGUAGCUCUAAAUGUCGACCUACACUGAUGUCGCAGACACGUCG'
p143
aS'UUCCCAUCCCCGGGUUACCUUUUGGGCCCGCUCGGACUACUUGCCUCACACAUUGGCAGACGCCCAUCUCCCUCUCGUAAGAUGGACAAUUUUGCUCCAG'
p144
aS'AUACCAACCUUGUAGCCGGGCGCGCGGAUAACCGUGGUGGAACUCUCGCCUGGUCAGUGUGGACAAGCGGAGCGUUAAAUACGGGUAACAUUCGUGGUCU'
p145
aS'CCGGACACCUCGCGCCAAUUGCACUCGAUUGCUCCAUCUUUACAAUCAUUUCGCUCGUGGGGUAGGAGCUUGGGGUCCCACUCCAGCAGUAGUCGGACCU'
p146
aS'CCGCUUCUAUCCCAAGGGAUUUAGCGACGCCUCGGCCCCAAUGGCAGCUAUGAAGACAGUUGCAAAGAUGGCCAGGAAAGUUUGCGGUGACCCAGGAUCG'
p147
aS'GCGGGACAGGAUAAACCCUUAUUAGGAAGACCUAGGACAAACUCCAGGGGAGAGGGAUGCUAGGGGAUUCCCCGAGGUCAGGCGAAUCGCAUACUCGAAU'
p148
aS'CUCAAGCCACCUGCGUAGACGACUUCCGACCAGGCGACUUAUCCGGCUUCUUCUCCCCCAGGGGCUGCGUCAUUUUCAAUACCGGCGGCAGGUCAUGUAA'
p149
aS'GUCCCGGCACGGAGUGAGUGUUUUAUUAGCUUCAAACUCCGGUUUCCAGGCAUCGAUGGUCCCAAAUGAGAUCAUUGGCAGAGCGACUAAGCGAGUCGCU'
p150
aS'CACAGGUUGCUUAUGUGCUGAAGAGAGAUGAACGAGUCGGUUUCAACACAAACUAGUGACUGCAUUCUCUGGAGCGGACAUGGAUGGCUGAUGGGGAUGA'
p151
aS'UCAUUUGGAAUCUACCCCGCAAGCGGCAAUGAGCUGACAGGGUGGGGUAGUGGCAUACCGCCUAUUUAACACACUAAAGACCUGGAAUAACUUAAAGGCU'
p152
aS'CGUACACGCUACAGUCCACUUAGAUUUCCGUCUUAAUCUAAGGGUUGGCAGACGUCACAACUCUCAUGGGCGGGAUUAGAAAUUGAAUUCACUAGAUUUU'
p153
aS'AAUAUAUCUCCGACUCAGUCCGUGCAAUCACUAAGAAGACAUGCACCAUACUUUCUGGCAAGAGUUUUAGGGAGACCGCGCGAUCGAAUCUAGCAACAUU'
p154
aS'CCAAGUACCCCAUUUCUGCGAGCGCUCUGACUCGAAAGGCCUGAUGCAAUUCGGACGGACUCGAUGUAAGUAAGGCACAGGACUUCAAAUGCACGUUAAC'
p155
aS'CUUGUUUGCCGCGUCUUGCCACAGUGGUCUUGCUAGAAUCAGGUAGGUGUGACAUAACACGCGAAGCAUGAAACGUUAUGGAAGCAUCGUGUGCAGACGA'
p156
aS'CCGUACCACCUGGGGAUGGAAAGAGUGCCCCGCAUCACGUGACGGCACUUUUGACCCUUGACGUGCCCCUUCUGACUAUGCGCAAUUAUCUAAACCCCUG'
p157
aS'UAUUAAACCACUUGAGAUUCUGACCCUCACGGGAGCCGACGGAACAGACGCGUUGAGUAUACGGUCGCUCUUCAUAUAUACAACGGACAUGGGUAAUGAC'
p158
aS'AGAAGAAUACUCCAUUAAUGAAGAUGGUUAGUCGCACAGGAUGGAGGGAGCGCAUCACCUAGUCGUGUUGGCGUCCUAACACUCAGGACUCGGGUGUAUG'
p159
aS'UUAGAUCUCCGUGAACGUGUAACGAGUAAAAAGCAUGAACGUAAAUAGCACGCUUCGCACAGGAGACCAUCUGAGUGCCUGGAUGUACGGAAGGGAAUCA'
p160
aS'GAGAAGCAGACCAAUGACAUUUAUACCGUCCGCAGAGACAUCAAUGUCAAUGUAAUCGGUUAGCGCGAGGCAUAACCCCCAUUAAUGUACCUUAAGAAAU'
p161
aS'GUUCAUCUUUUUGCCGGUAGUCGUGAUGCCCGAAAUCUCUCCAUCUUGUCCCUACUUUCACGUGGCAGCAUCGAGUCACGAGGGAUGGCAGUUAGCAGCU'
p162
aS'CCCACUUGAACGUAAGCCCAUGCAUAUGUUAGUUGUGAGAAAUCACGCGUAUAACGUCUCCGGCCAUCUUGCAUAGGCUUAUAUGAUCUCGCAAUAGCUC'
p163
aS'AGUGGAUAUAGUCGUGAUUAUACCACGGAAGUCCCCGGACUGCACGGGUCAUCUAAACCCAUUGCUGGGGGGUAAAGCCUGCUGUUUUCUUCCAAUCAGA'
p164
aS'UGAUGAAACAACAAAUUAAUUCACCGAGUCGCUUGGUAUUCCGAUCCUUUUAAGCAAAAGUUUGUAUGUUCGGGACGAUUAUGAACUCACCCAAGCGGUG'
p165
aS'GGCACAGCCCCCACGACACGGCAGAGAAGUUAGACUGUUACGAAAGCGAACCUUAGCUCAGUGUCUCGUAUCCUGUACCAGCUCUUAGAUUAGUACCUCA'
p166
aS'UCAGGACCUGAUCACUUACGUAAUAUACACGCACUCUCAAACGUGACAAGAGUAUAUGCAUACAUUUUCUUGCCACGCGUACCUUGCUAACGCUGCCGGA'
p167
aS'ACUGUGUAUGUGAAGUCGGACAGAUGCCUCUCGGAUACGAAGGUUGCAAGUCAGCCGCUCCGACCAGAGUUAAUGCAAUAGGACUGCCCUCGUCCCAAUA'
p168
aS'ACACUCCGGCGCGGAACACAGAGCUUUUCACAAGGAAUUACACGGUGAGUUGCUAACGGUCGCUAGCUGAUAUAAUUUCCCCGUCUUUACAUUGUCCCAG'
p169
aS'UUAACGCCAGUUGCUGGUGGUUAUAUAAUUCUAUCUCGACGGGUCUAUAAUUACGGGAUGGUGAACUGGUGGGGUCACGUGAAUCCCUCGUCGCAACGAC'
p170
aS'UCAGACACCCUUGUUCUACCUUUAGUUUCCCUCCAACUUUAGGUGUGGGCUUUCAAACUGGAAUACUCGCUGAGCUCCUACUUACUGCCCGGUCCGUGGA'
p171
aS'UGGCCGUCACUGCGAACGACGUCCCAAAUCUGUUCAGAUUCGUAGGCAACGCCUUCACGGCCAGGUUCGACCGAUACCAGCUUGACACCUUGGUCUCCAA'
p172
aS'UGUCCACGAUCUGGACGGCUAAUGCAGCCGAGUUCAGUGUCUUAAAUGAUUUUUUUAGGUCUUUACACUCCUCAGGCACAGUAGAUCAAAUCUAAUCUUC'
p173
aS'UGAUUUGUGUGUACAGGUGUGACGCCAACGCGAAGGGUAAAACGUCGGAACCUUUUCGUGAGCUUUCGUAUAGUCUGUAGGGAUAGAUACAAGGUAGAGU'
p174
aS'GAUGGAUGCAGUGUCAGGUAUGAACGCAAAUCAACUAGGGAGCUCGUAGAAUAUUGACGGCACCUACCACCAGCUAACUCCCCCGCGGUAUAUUACUCCA'
p175
aS'ACCAUUCUAGGAAGACGGACACGUACCUACCCAGUUCCCCCCCCUAGCCCGUGUAGGUACAAUGAUCAUGUGUCUUAUAAUUCUCACCUUUUGGGUAUAG'
p176
aS'AAGUAAAGAUGCUACACAUAAAAACAGCUUCGGACCUGUUCGCUCCUCUAAUCCAGAUCCUAACCGCUGAGGAAAGCCGCGCGGGGGUUGAAGAACCUGG'
p177
aS'UUGGUGAAAGAGUCCACGUCGUAAGGUGUGACAGCCUUGAGGGUGGGCCCGGCGGUCAGUAGCGGUUGUAGAAGGUAAAGACUACGGUUGGCGCCAAGAU'
p178
aS'CCGCUCGCAGUAAUGCGCCGAAGAUUUAGGCGGGUUGUCCGCCAGUCCGUCGUGACACAUUCGCGUGUGUUCGCGACGAUAAUGCUUCAAACGUAUCUGG'
p179
aS'GUACUAGCGAGGUACAUUUGACGAAAUAGCCGCACUUUUACUUAUAUAGCUGGGUCCCCUAGCCGGGUCGACGAGUAACCCGUCGCUAUGUCAGGCUAGC'
p180
aS'AGGGAUCGUGAAAUGAACAGGGUCUUGGUGCGCCUGUCUCCAAAUAAACAUCACGCGUGAAUGGUGAGGUAGGCGCAGAUGAAAGAGUCAUGCGGCUAAU'
p181
aS'UCGGCCUCGAUAGCUGCUGAAGUUGUCUUUAGCAAAGAAGGACCUUGGUUCCCCGGAAGCUAAGCAGGGGGUCAGAAAACAAGAGCUAGGUAACUCGUGA'
p182
aS'AUAUGUUUGUACUUAGACUGUUCUGCCAGGUGUCUGAAACACGUGAUCCAUCCUCCGUGCUGGCGUACUAAAGGGUGGACCUUCGCCUUGAUUAGGAGGU'
p183
aS'CGCGAAUGUCACAUGAAGAGUAUGGCCCAUAAGGAUACUUCUAGGUUGGCACCAUGAGGCUCGUUUAGUUAUAGCCGAUCCUAGAUGUCUCCGCGUAUCA'
p184
aS'CAUAUUUGAAUUCGUGUGGUGAAUGGUGGUCCCAGAGUCCGAAGCGACUCGUAUUACUAUGAUGUAAUCCUCGCAGGGGCUCCAGCCGGUAUGUCGGAGA'
p185
aS'GACGGAACGACAAUCGGCGUAUAGGGCGGCCAGGCUGUCAGUGUGCCUGCGAGAAUGUGGCAACCGCGGUCCUCUAAUGCGUUUGUCCUCUUGCGCGGUG'
p186
aS'UGUGGCGUCCGUCCGACAUUAUAAUAGAGAGUUACCGCCCCUGCAGUAUCGUAAAGUAAAGAACCUUGUCUUGAAUGCAGCUUUAACACGGACUGCCCGG'
p187
aS'AUGACCGCCAACACCGUCUCGUAGAUCAAACAGGAACGUGCUUAACUAUGAAAGCGCGACAUGUUACCGCCCAUACUUAAGCGAUAGUUGAAAGAUACCA'
p188
aS'CUUAGAAGGUAAGGUAUGGUUAUAUAUUGAGACCAAGUGGGGACGGACAUCAUUUCUUCGGACCAAGCGCAGCGUCAGUUGUCACUCCAGACUUCAGUGG'
p189
aS'GACUCGUCUGGUCCUAGAUUCCCCAAGCGCGGCGGCUCAUCAUGUGCGUCUAGCCCUUCCUCUUUAGCGGGAAUGUCGAGGCGUUAUGGACGGUGACCGU'
p190
aS'CGGUCGAGGUGGUGUGAGAACGUAGAGGUGCUCCAAACCGCAGCUUUGGAGUAUCCGAUUUACAGAAUCUACGUGGAAUAAACUAGACAAUAUCUUGAGU'
p191
aS'AUCUCUUGGUCAGGGCAGGGGUAAUAAGUGUCGCAACCUGUGCGCCGGGUUGCUCCUUAUACUGGACUAACAAACUUCGUGGAAUCGGUUGAUUGGUGCA'
p192
aS'GGAUAGCCUGCCUCUCGAUGCUUCAAUAAACUCGUACCGUGCGUAAGGUAGACCGUGUCUGCUAAACUACCGCAAGCGUCGCCGCGCCUGAAAGUCCUGU'
p193
aS'AUUUCGUCCAUCAAGGCCCCUUGCUCGUGUAUAUCGAAGGAACUAGCACCGUAGCAGUAUUACUAGAAUGGUUCUACAAUGUCGGGUCAGAUAUUAAAGA'
p194
aS'CGGGAUAUUAAAGCGAGUUGUCUCAGGACUCAAUCUGUGCUCCACUAACUGAAUCACUAAGGCACAACCUCUCGCAAUAACUUCCACCGAUUCGCGUUAC'
p195
aS'CCGGAUCCUUAAGAUGCAGCCGGAAUGGCAGUCUCAUUCCUAGUUUACUUCAAAUCAUUAAAGGAGGUGGCACACGAUCGUAGUGACAAUGCUAACAGAA'
p196
aS'UUUUACAAUAUGGUAUCGCGUCAAUUGCUCCAGGCUUGGGUAAUUUAAUACCAAAGAUAGCUCGAACUUACAUGUUCAGUGGAUGGUAGAGCCUGAAGUU'
p197
aS'GGGCAUUUCCGAUGUACUGUACACCUACAACAGUGACUCAGCGUUUGGACUCUGCGGUUACGCAGGCGUCUGACUAAAUGUACUCUUGUUUGUACUCCGU'
p198
aS'AUCCCUGCCCCAGAGGGGAUUGCAUAAGACUAGGGCCCCACGCUAAGGAACAUGCUGGGUAAGCGCUGAGGCUCUUAAGAGAUCAAAGCGUGCGCACUAU'
p199
aS'AAGUACAUACAGGUAACGCACUCGGCCGCUGCCGAUGAGCCACACCUAAUAUUGUGACUCUGGAGACUUACGCGGGCCUUGCGAGCAACGAUCGUCGGCC'
p200
aS'UCAGAGCCCAUCCGCCCAUCCCUGAGGAGCCGCGAGGGAAAUCCGGACAAGAUCAUAGAUGUCACACCGACAGUUUCUUUGAGCAACUCUGUAACAGUAC'
p201
aS'GUUAUCUAGGCCACCAGUUCGCUUCUCCUCGGACGAUAAAACGAUCAUACGCUCCCGACUCCUACAUUCGGCACCUAGAUAUUGGACUGACGCUGUGGGA'
p202
aS'AGGCUGUGUCUGGGUAAUCGUAGAUCGUGACACCACAUAUCCCACAUGUUUGUGUCACAUUCAAUACACGUAUGUUGAUAACCCGCUCUUAUCUAUCGCC'
p203
aS'UGCGUUUGCAGAAACGGAACACUCACCGGGGGGUACUGCAAGACCGAGGGCAUAGCCGAGAUGAUUAAGACGUACCAGACGGUCAUUUCCAUACACCGCG'
p204
aS'AGAACUUAUGAACAGGUGUAACGUGGAAUCGGUACGGUUGUUGACGCUAAGUGGCGACCCCGUCGCCCCUCCCCGCCUUGAAUCCGAGAUGGCGCUUGCA'
p205
aS'GCACUGAAAGAAAGGGGUAUCCCACCUAUAGUUGUACAUGGCGGAUUGGGAAGUUAACAUAUCUGUUACGGUGCACAGAUAUUUUCUUGAUGUAUAGCUG'
p206
aS'CAUUUUGUACACCCUGCAUUGAUCACUGCGGUCACUUUGAGGCUCCACGGAGCCUCCUACACCGUACUUCACUGCGCAAAACUAAGAAAAUUACAAUGAU'
p207
aS'AAUUAUUCCGGUUCAAUCCAAGUAGAUCGGUGAGGGGCAGUCUUUGAUUUAGAUGGCUCCACGUCGUCACUAAACCCUUGUGAGACCAUCCUCAUUGCCA'
p208
aS'UCACGGCGAACCCUGGUGAAUACGGGUGGGUUGUUUUCCAAUCACCGGGCCACUGUUAAUGUGUACCUAAUCCUACAGGAGGCAAUUUACAUGUAGGGCU'
p209
aS'GAUACCGGUUAGGCUGCCUACCCUCAAAGCCGGUCGAAAUUAGCGCUCCUACGAAUUCAUAAUCCAGGUCAUCCCACGCCUACCCCGUCAAGGCAUAGGA'
p210
aS'UGGUACCUAGAAAACGUUAAGUAUUUAUCGUAGAAUCUCCUUCUAUAGAUGUCCUCACGACGGAUCGAAAGAAUACCCAACAUCAUGUUCGCAAUAUUCC'
p211
aS'UCAAGAGUCAGUCGAGUCACCCCCCCCUUCAAGGAGGAACUCACCUGUGACUCGGAUGUACAUAGCUUAUACUUCGAUGAUAUAGUUAUUUUGCGAUGCU'
p212
aS'CAAACAUAGCCACACGUUCUUUAAACGCGGACCUGCAAGGAACCAACACCUAACUCAACUCCCUGGUUGAUCCUUGAAGCCCCAUACGACCUUCAGCUUC'
p213
aS'UCUUAACGCGCAGCAGUUCGAUGCGUGAUGGUAUCGCGACUACGGGCACGCUAUUGCCCCACUAUUGUAUACCAGAAAGGGCCCGAGUUGUCAUUCAUCC'
p214
aS'UGAAUGUCGCCGUCCAGACACUGAGUGAUUGAGCCUGCGCCAACGCCGCGCCAGAAACUGACUAUCAUAUCGAGUUAGGAUCUCCUUACCACCCGAAUGC'
p215
aS'ACUCCCGAAUGGACAGCGCCGUAGCUGACGAGAGGCAUUGCGAAUAUCGCCACGCCACUUGAAGGGGCAGGACUUUGGGUUCUCACUUCAGCAGGGACUU'
p216
aS'AACCGAGCAGGAAAGUAAGCUCGCUCGAGACCGGUCGCCUCCAGGAGGUUCUCUAACUCGAUAGGUACUAGUCACCAUCUACGAGACGUGGACGCAGUUU'
p217
aS'GGGAUAGAGCUGGGACUGCGAAUUGCCACGCCCGAGUGGUGGUAACUACGUACACAUGGUGCGCAUGCCAAUCCGACAAAGCGAGGCUGAGGCCGCCUUU'
p218
aS'CCAGUGCGAGCCGGCAGUUGAUAAGAUUGCUAUUUAAUGCUCUUCCAUAGUGCGUCACGUGUUCCAGAUAACAUCAUUGGGGCCGCCUCUCUUUGAUCUC'
p219
aS'CUAAACACGCUACCUCGUGGACGAUAAAUUAGAGAGGACCAUAGUUGUUCUCACUCCCGGACUUUGACUAUGACCCCCGCGAUAGAUCGGUGCAUGAGGG'
p220
aS'CUAUGAGAGGACAAGUUGUCCUUUGGAUCGGACUCGAAUAGCGGAUCUGCCGGCAUAGCAUGUGGGAAAGGUGAAUUUAGAGCCCUAGUUCCAGCCCUUG'
p221
aS'ACAACUGAAAUGACCCAAAACAUAGCGCGCGCCCAAUCGAAAGAGUGAGCGGAUCCGUAUAGGGUCAUUAGACGCCUUCGCAAUGGCUAUGAUAGGGUAG'
p222
aS'UCUUCUUGUACUGUCCCUACGCGAGUUCGGUUACGUAGGUCAAACCCCUAUUCGUCGGUUACACCGGGGAGGGUAUACUUUGGAUAAGCUAGCUGACGGA'
p223
aS'UUCGUGGGCCAGUAGGAGCACACUCAGAACCGUGUCAGGCUACAUACACCACAAUAAGCUAUACCGCAUAUUAUACAAUGGAUCCCAUUAGUUCUGUUAC'
p224
aS'GCUAACCCCCCGGUCCCGCGUCCGGCUAAGGCGGUAAAGUUGCAGCUUCUUGCAAGAGAAAGGCUGUGUCCGGGCAUAAUAGUGUCCCUAAAAUUUAGGC'
p225
aS'AUCCGACAUUGUACGCGAUGUGGGUUAUGCAUGCGGCGCGUCCGUACCUUUUUCGUAGAUUCCUUAGAGUGCUCGAAUGCAGUAUGUGAUGAGUCUGGUC'
p226
aS'CAAAUCACGAACGACGUCGCAUACGACCAAACGAAAGCAAUGGCUUGCGGGCGUAGAAAAUUAGCGCCUAACUCUACAUUCGUUGUCAAGCCUUGUUAAG'
p227
aS'AAACGAACUGCAAUAAUAAAACACCGCGAUCUGGCAUGCAUUGGGGACCUCGGCCUAUAUUUAUGCUGCUGUUACAUAAUGGUAGGCGGACUCCAUAACA'
p228
aS'AUACCGCGCUCUGAUUACGAGGUGGUCUCGUGUAGAAAUUGGAGGGUUACUCAAUCGACAGGGCUACACCCGGUUUCACACUGCACCGAAAUACACAAUG'
p229
aS'CGCUGGGCCGGAAUUCUGGACCCAGGAGGGACUACGUUUUAUUGCAUACUCCACGCAAUGGGUGAUGACCCUCGGCGCUCCAAAGUAUCGGACCCCUUUC'
p230
aS'AGACUCAUUAUCGGUAUCUCCUGGGCAUACCAGUUGCCCGCUUAGCCAAGUCGAACUACCUUAAGGUAUAAGAGUGGUACAGAUCUGUAGCAGGUAUAAA'
p231
aS'GAAGACUAAAGCUCCUUCAAAAAUGUCUCUGGUACUCUUUCCCCUCUUCAUAGCGGUCAGGGAGAGCUUUGUCCCUAUCAAGAUGUAGGUGACAAUAAGG'
p232
aS'AAAACGUUAACCACCUCCUGGCACCUUAUAGUCUGUUUUAGAAAGGUUACCGCGUCUGCGGACCAUGUAACCUUCCCAUUCAAAGAUCAACUGACAUAAU'
p233
aS'UCGAAAGUGCAUCUGGGUUUGAGACUGGAGGGCGUCGCCAUCCAUGAGUUCGAGUCGAUCACGAGAUCUCUGACCACUAAUCAGGGGGGGGGAUCCGGCG'
p234
aS'UAAUUCCAGCGAAUGACAACGCCCCGUGCCACCUAUAUUGCAGGAGGUAGCGGGACUGAUACGUCCGACAUUAUGUAACCUGAACGGGUGUUAGGCCCGC'
p235
aS'AUCUCCCACCGUCCGGGGAAGGGCCUGCCCGCUCUACAGAACUAGCAUUUGUUCUAGGUACGCGGUUGUAUUAGCGUCGUGUUCAGACGAAGUUAGAUGG'
p236
aS'AUUGCGACGCCACUCCAUAUUACAGCGGCACGAAUCAAGUAAGGCACUGUUCCAUCGCGAGGAAGCAAAGAGCUGCGGCCAUCACCAGCGCUUUGGGUCC'
p237
aS'GUCGUCUGAGCGUUAUUCUCAUAACAACGCGUAGUCCGUCCGCAGCCGGAAGAGGGGCCUGGUAUGCUUACGUCCGAUUUAGAAUACACUAAUCGAGGCC'
p238
aS'GAGAAACCAAGCCAUUGGGUUCAUAAGUAGCUGAAGUGAUCACGGGGGCCGCUUAUUCUCUUGACCGUGUGACUGACCAAUCCGCACGUGAACUACUGCA'
p239
aS'UCUGUUUUAUACUGCUGCCCUUCGGAGCGGGGCCCUAGUCUACUCGUUGCCAAUGCGGGCCGCACACGUAUACAUUCUUGGAGACCGGCUCACCGCAAGC'
p240
aS'AAUGGUCCCUAAGCUCCAAUGUCCCUAUCAAAAUUAUUUACGACUGUACAGGUGUACUUUUUUGGGGCCCCUGCGCAUGAAAGCGGAUCUAUCGAUCGUG'
p241
aS'GGGAGUCGUAUGUCAUCGUGUUUGCUUUAAGGCCCUAUCUAAGUGGUGAAAUAUAUUAGACCGGGUAGCAUGCUCGGGUUUUCUGGAGUAGCAGGAUCGA'
p242
aS'UUAAUUUCAGAUGGAGAUCCUUUUAACACCAUUUAGUCCGUUAGCAGGCGUAGGACCGAGCCGGGCGCGUCAGCAAGGUGAGAACCAUGAUGGAGCAGUC'
p243
aS'UCCCGGAUCGGGGGGUGCGUAUAUCUCGACGGACGCUCCGUCAGUCUGACAUCGAACCGCGUGGCUUCAACAGAUGGUCCGUGUUCUGAGUCGGUCGACU'
p244
aS'GCAUCAAAGCUUAGAGGCUAGAAGCUCUCAGUCCGUUCCUUUAUCCCAGGACAGAGUCAGUUUGCUCUUCGUCCGAAUAUCCCCGUGAUAGCUUGGGAUU'
p245
aS'AUUCACGAUUUUCUAAAUAGCCUUCGUUAGCACGACCUCCUACCUAAAAGUAACUGCCGAAAUCUUGCGGCCAAGGCAGUGUUAACUAGUAGACGGUCAA'
p246
aS'AUGCUGCCAGAAGAUAUUCUGUGGCAGACAUGGCGCUCAUGAUUUGUUCUUUAGGGAUCCAAAGGAGAGCUUUCAUCUAACAGUCCCACAACGGCGUCUG'
p247
aS'UGCGCAGAAUCUGGGACCAGCAGUGUAACCCCGAGCGUGUUUCAGUAACCUGUACAUCAUAUCUAUGGGGCUUCCUCGACCCAGAUCUUCCCUAAAUCCA'
p248
aS'CAAGCCUUAUAAUGUGGCUGGAGUGGCUAUGAAUCAUCUUGCUUUAUUUAGGAUUUUACAGAUCCAACGGAUUACAACAAAUUCUCACGCUGUCGGUGUU'
p249
aS'UGGAGCGGUCGGGGGUCCAGCAUAUAGAGCGCAAACACCUAACAUGCAGUUGGCAGCCUGUAUCUGCGCGCCGCUUCAGAUUCGAUGACCGAGAUGGGGG'
p250
aS'CCAACCUAGGAGUGGCCGGUGAUCGAAGCAAGUUACUCCAAAUACACGGGCUACAUGAUUCCUCUUACUUGCACCAUUGUGACUGGGGGGCGAAUGUGUA'
p251
aS'AGCCAGGCGCGGGAGUUUUGCUCUUGAUGAAAUAAUUUCUAAGGAUUAGGACGGAUACAAAGACGCCUCGAGCUCAAUUCAUAAGAUUGAUGCGGUGGGU'
p252
aS'CGCCCCCCCGAACCCAUGAAACACCGCUACAAAGAGUGGCUCAUCUGACCACCUACGAACUGCGACUAUUGUGACCUCUCGCGACCUUAGAGCGCCCGGA'
p253
aS'GCGUUCUCAGUUGAAAGGCUGCGGUCCGCGAGACUAUGCAAAGUGAUCAAAUCACUUGGGCCCCCUGACUAGCGCGCCGACGUCUUAUUCAGCGGUUUAA'
p254
aS'CGCACUGCUUGGCGUGAGCUAACGGAGACUCGUUUUUCAUAAUUGGCCUGCCCGGAUCUAAUACGCCAAGGGGAGUGCCAUUGUGGGGCGGCGGUCUGCU'
p255
aS'AACUGUAAGACUAGUAGCUUGUCGAAACAAUGGCCACAUAUUCGUACAAGAUGCCUUGUAAAGCGGCUCUGCGUGCGCUGCUAUUUGUUUUUGAAGUGUC'
p256
aS'UGUAGAUGCUUGGUUACCGGGCACAGCAUAACAACAAUGAUCCUGAACCAAAUGUGGCCAGAGACCGUCAAGGGUUCAGGGAGCGUCGACAAGAUUAUGC'
p257
aS'ACCAGCCGAAGAAUUAGUCGUAUCAUUGGUAACCUUAAGUGGGAGCGGUAUCGAUGAUAGAUUCGGUAGUUAUUAAGAAUAGGUCCGCUGCCCUAGGGCU'
p258
aS'GGUACUUGUAGUGCGUUGGUGACUUAGCCUGUUGUCCAUGUACGAAACGUAACAGAGUCGGCUUGGGAUGAAGUGCUCGCAGCCGAAGUGGACAAUGGAG'
p259
aS'GCGUUAUCCGUCGGACGUAAAAAUGAUUAUGCAUUUGACAGCCUUGACGAACUUUAACAUAUAGAGGAAGUAAAAUAUACAGACGCCCGUACGGUAACUC'
p260
aS'UGUGUGUUAGAUAAGUCAUAUCAUAAAGGUGUGCGUACCUUCAGGGCGUCUAAUCACUAACUUGGAACUGGGGAGCAUCGAGACGGCUGAAGGUCUUCCG'
p261
aS'AGAGUGCGAGAACUGCUGUAUUGACAGAGCCUUGUCGGGGCGCUCUCGUCGACAUAGCCGGCGGAGGACACACGUACCUGCGUGGAAACACGGCGCCCCU'
p262
aS'CGUUCAUGUUCCCAUGGGGCUCUGAAGCCAGUACACAAACGGCGUGCAGCAAGCCUGCCGCAACCUGUUGGUUAACCGAAUGGCAUAAGAUUCACGAAUA'
p263
aS'CGUUCGCCGGCCCAGUUGGCGAGCCUCUUAACAAUAGAGCCGGGUUAGGAAGGAUCGCGGGUACACUAGCGGGGGGACUCCGUGGACCCUCAAUGAUUAU'
p264
aS'GGGUCAGUUUAGCCUCUCAUUAAUUACGCUAAAACACAACGCGAGGGACCAGUCUCGCCCCUUUAAGAACGUCACGCUAACCAUCAUAAUGACCAAUGAC'
p265
aS'CAUGCUACAUUACUACAAAAGCUCAAAAUUUCAUAUGAUGACCUCGGCUUCGGAGCAAUGCUAGGUGAUAGUUACAUCGUCCAAGCGAACCCUCGAGAGA'
p266
aS'GAGUCUGACAUAUAGGACGCCUCUGCCACGUUAAUUGUAAGCAUCCGGAUGCUCCAUAAGACCUUUUUUUGCUACCCCCGAAAGGGUAUAUGCUCCUUUA'
p267
aS'GGGCCGAUGCCCCGGAAGACUCCGGUUGUGUUGAUUGGUACCUGUUACGACGUCCCCUUAGGGGCACCUGGCGGUGCGUUAUAGCAAUCAAAAACAGCCA'
p268
aS'GGUUUCGACACGCCCUUUUAAGGGUCAAGAUACUUGGCAUACGAGGUUGAGCCAUAAUAUUUAAUCGGCUAACCUCUCGACUCGCUUUUUCCUGCGACCA'
p269
aS'CGUCUGCGACGCCGUCUACUAGGAGGGUGCCGUGCGGCGACCCGCGAUGCAGCUGUAUGAAGGGUUAAGGUGAAGGUUCGCUUUUUUGUUUCGGGUCAGG'
p270
aS'UACUGAACGACGCUGCGUUGAGGUCAACUCGAGACUUCUAUAGACUAAAUGGCUCGCCGAGCUGGCGGCCAACGCGAGCCAAAGAGUAUCUAGGACCACG'
p271
aS'AGUCUAUUGCUAUAAGUACUGAAGCCGAAAGGAACUUCAGCCUCUAGGAGCUUAGGUAGCCCUAUGGUACACCGCCAAAUGUGUACGAACGUCUUUAGAG'
p272
aS'GUUCAACCUAGCGGGAUUUACUGGCUGCUGUUACACAGCGAUCGUAAGUCAGACAACCGCGAAAUUGGGAGGCUGCAACCCUUAUGCGACGUCCGUGCUG'
p273
aS'UGGGUCGACUGUCCACUACAGAAACUCCCGCCCCGACAGUCCCCCGUGUAAAUUUUUGCACGGGCUUUUGGUACGUAUCACAUGACUCGGUCGCGAAUGG'
p274
aS'CUCGACUGAUCUGGAGGUGGUGAAGUCCAGGCGAUUCCUAUGCCCACUCUUCAUUCUCCUAGGGACCAGGACCAGAUGGCCUAUCGUUGCAGCAUUAUGG'
p275
aS'GGGCGAUAGACUCGCCACCCCAUUACUUAGUAUGAAGAGCGAAGCAUCCGUAAAAUGUCACGUCGCUAGACUGCAGUGAAGUUGCGACCGAAAUGCAUUC'
p276
aS'AAUCUAUUGUCAUCUACGACUUCUUCCUCCUGGCCCGGACGCUUCACGCUUUACUCCCAACACCGAAUGUCUACUAGUUCUGGCAUCUAACACCUCCUUU'
p277
aS'GCACACCAGGCGAAUUUGAUGUAGUUAAAGGGUAGAUCGAGUUAACGGCCCUAUCUAGACAGGACUUGGAACAAUCACUGCCGUUUCGCGAAUGUAGCAC'
p278
aS'AGCAGUCUACGUUAGCUGCGUCAUAUAUCUAGGUACCGACAUGUUCAACAAAUUCCUUUACUUCAGUAUGUCUUGAGCGUCGGCAAGAUGCCGCCGAGUG'
p279
aS'CAUGCUAGCCGAUGUGUGACCCGGUCCGCGCAACAACGCCGUUUCAAAGAGUCAAUCGAGUUUCCUGUAACUGAUGCUACGAGCAGCUACUCAAGCUUCG'
p280
aS'AAACUUACAGAGCAGUUUUAGAAUUGCUGCUGACGUUCCAUCAGUCGCCAUUCGUUGGCAAAGAAAUUUCUUAAACUGGAGGCUAGGAGUCUAGCUACAC'
p281
aS'ACAGUGACCACUCACGAGUGAUGGCAGUCCACGCCAUUCAUACUAUAAGGCGUCGGCUCGUCACAGCACCCAACUAAACGCUCUCAGACUUUAUAGAGAA'
p282
aS'AUCUACGUUAUCGUUAUAAGCAGUGAGCUGCUCCUCAUAGCUAAGCUGCUGGGCGACGCUGUAUAUAAACCUCUCGCGUAGGGCCCCCCGGGCCCCGACC'
p283
aS'CAUCGCUUCGUCGGUUUUGCUCCACUCUUUACUUUUGCUAGCUUCUCCCCUUGGAUCUAAUGAUGAGUUUCGAUCCGGAGACGGGUAUCCCUAUGUCCUG'
p284
aS'CUAAGAUCGCUACUCACAUGGCCAUUUAGAUCGCGACUUGGUAUUCAAAAAUUGCCGUCAAUGAUAUAUCUCUCAGCAAUAUCAUGCAGGACUAAUAGCC'
p285
aS'CCCACGUUGCCGCGGAAGCAGGACGAGGGCAUUGGAGCACGGAUUCGUUCUCCUGAGUCCGGUGUCGGACAUACCCAGAUGCUUCUGACGUGAAUACCGA'
p286
aS'UUGUCGGAAGGGAGCAACCUGACUCGAGCGCGGUCGGCCUUAGCUACUGGGAGUCCCAGAAGGCCGCGGAUCUCACGACCCCGACCCACAAUCGGGGUCG'
p287
aS'AUUCUUCAAAAAUCGGUCGAUAAUUCUCUUCAGCGAAGCAGUGAACCUCAUAGUUCCGGGAAACAAAAAUGAGUAUCUUCGGUACGUGACGCUAAUAUUG'
p288
aS'UACUAUAGUGCUGAGGCGCUGGGAGGGCAAGAAUACGUCCGAUCAAUAAUAGACGGUGUUCGGCAGCCACAUAAACCCAUAUGGUAUAAUCACAGAUGUA'
p289
aS'CGACGAGCGUGUCGUACCCCAAUACCUGCACUACAGCCUUCUCAAUAAGAGGCAAGGGGCUGACGACGCGGACUACCGAAGGCCCUCUUUCACUGGGAUU'
p290
aS'AUUGAUAUGGCUAUUCCAUUGCCAAAGCUGGGCUGUCUGAAUGGACACACCCUUCAUUGCGGUCGUGCUGGCAUUUUCACCAACUGUAAAGGUCCCCUAU'
p291
aS'UCGCUGAGGUCAUGGGUGUGACAUCCGGCGCGUAGCCGGCUCCUGGCAAGAUCCUCAUUAUAUAAACUGCUCUCGGAGGAAGGCAGUACGCAGGAUCACU'
p292
aS'ACACGACAAGUUGUACUCUAAACCAAAGGUUAUGGAAAAAAUUCAGGCGUAUUUGGAGGGACAUCUAAUGAUUCCUUGGGACGAACUAUCGAUCUUUGCG'
p293
aS'CCUGCAUCGCGCGACUUGGCUCAACUUGUUCGUGCACCGUCCAUGAUAGAGCGUCGCCCCGGGCACACCCUGCACCUCUUGUAAGAUUGAGCUAGCAUCG'
p294
aS'AUCAGAACAAAGCCCCCACGGGUCAACAUCCCUUGAUCGUCAAGGUAGCUGUGAAUUCCGUUCUACGUAUACACCUAAAGCUAGGGCCGGAACCGUCGCG'
p295
aS'GCUGUUCUUUCCUCAUCAGUUUGGGGUAUUGCGCGAAAGCGUCGGCAGGCGAUGGUGCGCUGCCACGGACAAAGACCAGCCCGACGGCAUGCGGCCGGUA'
p296
aS'GGGAUUCUGCGAUUACGUAAAGGCCAGUGGCCCCCGCAUCAAGACGUUCAGACACUCGGGAGCCCGUCUUGCGAUCUGGUCCUCGUCUACAAUGUUGGAC'
p297
aS'CAACGUUGCGCAACCCCCUGUUCGCCGUCUGGUUAUGCCUCCCAGUCUGAUCGACAUCUGUAAGUGCCGACCAAUCGAAUAUACCUGAAGUGUAAGUUAG'
p298
aS'CGACAGCGGAGACAGCCUCCAUGAGUGAUAAAGGGUACCUGUAAGAAGCUGGUUGAGCCCCACCGUCGUUCUGUUACGUGUACGUACCUUUCGCUGUGGG'
p299
aS'UCAAUGUGAACUAGAUUUCUGUACCGCACGGCUGGUUGCAGACUUUUUAGUGAUUGGCCUCUCGCGUGGAACUUGCUUAAAUUUCACGAGGCAAGACGCG'
p300
aS'AUCUGGCAAUAAAAAGUAGCCAUAACGUUAUGUCAUACAGGAGCUGUCCCAAUGGGUGGUGAACGCUUUCUUAUCACGUAAAUUUUCUUCCGUAAACGCG'
p301
aS'GCCAUGGGUUGGCGCUCCUUGUAAACGAGGUAUUCCACUGUUGCUAUAGUAAGGUUUAGCUAUUUUCCCUGAACCCUGGCGUCGAGAUAAUAAAAACGGU'
p302
aS'UCAACUUUCUUGCGUUGACCCUGGGGGUAUACACCUCUUUCAUUCAAUGAGUACUGGGACAUGCUGCAAACGGACUGUAUAUCUUAUUGUACCACGCUAC'
p303
aS'CAGGUGACAUGGCUUUAUCUGGCCUUUUGGAGGGGCUAACCGCAGAUGGAGCUUUUUAUUACCUGCAUGGAAACACUGAUUGUAGCGUUCGGGUAUUGUG'
p304
aS'GCACCUGAGCACUCUCUGGGCAUAGCAUUUUACCGCUAAGGGCGCCUGCAAGUGCAGCUGACCCUCCAAAAUCUUACGAUGGAGCCGAGUCGCGCUAAGU'
p305
aS'GGACAAGGUUCGGAGUCGGCUCGAUAUUUGUAUCUGGUCCUGCGUGGUACACACAGUCCGCUUCCUGGCAGGUAUAACACGGUAACACCCGAGGUGCGUC'
p306
aS'UAGGUGAACGAUAUAAUAGAUCUGACUCUUGGAGGUUAUCGCCAGGUCCGAACCCAAGACGUCUCCGGCCCACUCUAAGGGUCCGGAGCCGUCGCCAUAG'
p307
aS'GGGGUAUUCAGGUAUUGAGAGGAGACUAACAUCGAUUGAGCUGAUAGCUGAGUAUCCCACUCGAAACUGAAACCGUCAUUUUAUGCGUGAACUGAGGUGA'
p308
aS'CCCACCGUCAGGAUCACUAGAUUCGUUUACCAUACCCCUAAAGGAUGCUCCACCAUCCGACACCGUAGUUGCCACCGAAAAUGUCCGCCGAUCGAGAGGA'
p309
aS'GUAUUCUGAGACGGUCAGCCGUCAUCCCCUUCGGUUGAGCACGGCCGUGGGUAAGAGAGGAGAUGACGUUGGUAUGUGCCUAGGCUAAUACUCUGCAGGU'
p310
aS'UAAGUGUGCCCGGUAAAAGAUUCAUCCGAAAGAAGACUGGUCGAUAAAAUUGCAACCGAUUGGUCUCCGCGCCCCUUGUGAGACUCGCCUUGCCGCGAAA'
p311
aS'UUACCAAAUGCGAUUCUCUUUGGCGAGCCGAGCCAUCGGAGCAGUCUUUUUCAUCAGAACUUUCCAGCGUCUGCCCAAGAAAAUGAACCCAACGGUGUGG'
p312
aS'UUAUGACCCAUUAUUAGGGUGGCCUCGUGCUGGUAUCAAUGUAUCUACCAUUGCGCACAUUAUUCGUUCGGAUACCUACAACCACUCAGGGGAGAUUUCA'
p313
aS'ACCCCCGGCGCCUACACAGUUGUUGGCUACGUGACUCACUGGAAUGGGAUUAACUAUUACAGGCAGAACGAAAAAAGUGUAUGAUUGUCGUAGGCUCGAG'
p314
aS'AGACCGGACCCUAUCAAGUUUAUUCUCCAUUACUUAGUGAUCGCUAUGACGCUUCCACCAGACAUUCGACCGUACUAUUACCGAACCUCGAUGGGAUCGG'
p315
aS'GGAGGUGAUCCAGCACGAAAUCUUCUUCUCGUAUGGCUACUUAUGACUCCCGACAACAGAUUCGGCUACUUUUGACAUGCAUACGAACGGGUACGUUCCU'
p316
aS'AUCGAACCCCUGUAGUCUGAGGCCCCGCCGUUAGCGUCAACUGGACUAGAAAUGGCAAAAUGAGUGCAUCAACACGGUUACGACAACUCUGACGCCAUGC'
p317
aS'ACGGACGCGGCGUCUCCAACGAUCACUGCGGAACUGCCUUAAACGCUGUCGGCCGCCAAACCGUCAUGGGUCGGCUAAAGCCCGGAUAUAGCUUAGGCGC'
p318
aS'GCCGACCCCUUCUUUGCGGUUUACAAGUCGGCUGACAACCUCAACUGUUGUUUAACGUUGCCCCUAAAGUGGCAAGAUAAGUAAUCUCAUGUGACUAGUU'
p319
aS'UCGUGCUAGUCUUCGAGCAGGACUACAUGGCCACUUGGUGGAUAUGUCCAAAACCUAAAUAGUCAUUAGUUAUCGUCGCCUGCUCUCUCUAUGGGAAGUU'
p320
aS'AAUAGACACGGUUGAAGCCUCUAACCAGACUCCCCGAAUCCUGGUAUGGCAUGACUAUAGAAGAAGAUUAAUUGGAUCACGGUCAAUCACCCAUUUAUUC'
p321
aS'GUCUAGCGCUGGUCUAGGGUCCAGAGGGACGAAGAGCCAGAGUUGCCUAGCAUGCCUUUUAUGCUAUACGACGGAAGAAGGUCGUAGACGGGUGAAAGCA'
p322
aS'CAAGCAUUGAUGCGAAUUCCAUAUGCCACCAUGCGGAAGAUCGUACCCAACCUCAGUUUACCAAGCUCCCAGCGGUGAAGAGCUGGCCACUACCUUGCUA'
p323
aS'UCACUAUACCGAAAGUGAUCCGAGAAGAUUCCACGUGAUCGACGGGCUGGCUGUAUGGGUUCACAAACACUGACAAGUCCCUGAGUCCACCAGGGAAACA'
p324
aS'AGAUUCCCACCAGAGAACAGUUUCGGUCCGAUUCAUGAGCGUAAUGAUACCCAGUCUGCGACGGAGGUGCUCGUGUUUUACCAUUGUCCAGGCUUACGAU'
p325
aS'ACCGCGGGAUUCUGCUGAGUAUUUCAAAAGAGCUGAAAGUGUCAAUAUAGUGGGUCCCGGUACCUGGGUCUGUAAGAGAUGUAGCAUGGGUACUAACUUU'
p326
aS'CCAGGAGUGCCUAUCAGUGGCCUUGAGGCAGAGGCUAUACUUGUCGCCUACCAUCAAGUCAUGAAGGUGUAUGACCCUGGUUAGCUCCCGGUCACACUGA'
p327
aS'UAUGAGAUGUCCGCCGACGUCAUAGGUAUGCGCACUCGCGGAAUAUCAAGGAACACCCUUCCAACUCGAUAGCCACGGGAUAGACUUAAGUAGGUGCAAA'
p328
aS'UUGGCACUCUCGAACCCUUAUUAGUUACAACUCCAAUCGCCGGGGUGUAACACAUGUAUCCCCGUGGACGGCCCCAAUCUGCACAUCAUACCUUCAGGUG'
p329
aS'GGUGCGUAGACCCGAAUUCACAACACUAGUAGGUAUGUUGUCAACCAACCAGGGUUACGGGCACUCGCCUGUACGAAAUUUAAGUGCUAAGGCGGCCGGA'
p330
aS'UUCGCGUCUGGUAACCCAACGGGCAGUGUGUUAGGAGGCCCUGCAUUAGGCCCAAAAUAAAGAGGAUGAUAUUAUGCGUAGGGAUAAGUGACUGCAUAAU'
p331
aS'GGAGGCUUUUUGCAAAUAGCAGGCACCGUGUAGACGGUCAAGGAUUGCUUUUACGAGUUGUACCUUCAACUACCUCCUCAGUCAUCUCGGACAUCCUUUG'
p332
aS'GCAUGAGCACGAACGUGCCUCGAAUCCCGCCGCCUUAACAGGCGACAAGUCAUACUGAUUCUCCAACUUUCUAAACGAUUAAGCCUAACGGUUUAUGGCC'
p333
aS'UUGGGAUGAUCCUACCCACCUUCGGUCGGAGUUCGCACGUGCUUAAAGUUGGCCACCAUGUUUAGAUGCCGGCCUACGGAAAAGACCGCCAUUUGGAAGA'
p334
aS'CAUCGAAGAUACGACCACAAAGCUACGAGGGGGAGGAAGGCCGUCAGUCUUACCGCGUCCCGAGGUCCCCGUGUCGUCCCCUUACACGGAACAAUUUAGG'
p335
aS'GCUUGAGGGAGGUCACAAUGUGAGGAGUAAUUCGGGUCAGGGUGCGAGCAGGCAGGACAUCCCUUGUUGCACGCAUAUGCGGCCGACUUAGUAUAAAUGU'
p336
aS'CAUUCACCGUCGCCGAAUCCGAGGGGAAACGGAAGACGCAGAAGGAACUUAGUUGCUGACCUCUGACAACCCACCCUCGGGGCUGUGGCUGUUAGUGUGU'
p337
aS'ACAAUGAGACUUGUCCUAUGGCCUAAACAGCCGACAUUGGAAAUAUAGACCUUCUGGGCCUACAAACGUUCAACAGCGUGGGUAUAAACAGCUAAGCUGA'
p338
aS'CUUUCAAUUUAAGUCACAGCCCUUAGCUAUAACUCAGGUGUAGCGGCCUGAAAGCCAAAGGAGAUUAGUAGAAUAUGCGCGCCACCGGCGGAGCGGGCAU'
p339
aS'CUCCCUUUACUAAAGCCUCGGGCAGAAUAGCGGAAUAUGCGCCACCGUGGCGAAGGAAACAUUGACAAGAUUCUCCUCAUGUGCUUGGGCCGUUCCUAUG'
p340
aS'GCGUGGAGAAGUGGCGCUCUCUGUGCGCGCCACGGUGGCGGGCUUGGAUUGUUCUUGCCAAAACCGCUGAGGCGUCGGUGUCCGGCACAAGGGGACGUUA'
p341
aS'GUUUAUGCAGAUACUGCUCACAGAGCUCCGUCCCCUCACCACGAAAGACUAGGCCGGGUAAUUGUUAAUAAUUUAGUAGCACGCUUCAGGCUGGGUGAUU'
p342
aS'UACAUCGUAACUUUUCUGGUUGUUCGCAGCUAUGGGGCGUCAUAACGGCUACUAUCUGUAUGGCAUUUCGAAAUAACCUAUGAACCGACACCGCUACUGG'
p343
aS'UCCGCAUGGAGUCACGCGGCAUGGCUGGGAUGGGACGUGGCCACACGGGGAUGAAGCAUAGGUAUAGAUUGAGCAGUUCCAGCAUUCUGCAUCAGUUAAA'
p344
aS'CGGUCUGAGUUCGCGAUUCCACGGCGCAGAUACUGCGAAACCUUGUUAUCUAGGAAUUGGUGCCUCGGGAAGUGUGCCGCGACCGUGUUGGGGGAUUGAC'
p345
aS'UUGUUUAAUCUCGCUAACCCAAGAGGCCGCCUGCGUUGGAAUCAAGUACCACGAUUUUAUUGGCUAGAUGCGAGCAAUCAGUAAUCGUUUGUUGCGGCUA'
p346
aS'CUCUAAUUACGCGGAGAAUAGGCAGUAAGUUGCUAGUGUCUGGGUGAAUUGUUCGAGUAAAGUGUCUGACAUGGCGGUGAGGACUUGGCGGACGCUAGAU'
p347
aS'UACCAGAGAGAUACAAGCAUGUUGGAAUGGCAGGGGAAGCGUCUCGUAAGUCCAUGCUGAUAGACCUCACGUGGUUGAUGGCAUCGAAGAAUUAUCGUGA'
p348
aS'ACUGAGCCACAGCGUUAUUCUGUAUGUCUGAAAGGUCAAUUGUCUACGGUACGCCAGUCACUAGGUCGCCCUGACACGAUGAGUACUUCACUAUAGUAUU'
p349
aS'AGAUGUGGUAUGCCAAGCAACUUCGAACGGAGGCGUGUAUUUCGGUUAGACCCCGCAGAGAUUAAUUCUGCCCACGCCGUGUCUUAAACACAACUAUUAG'
p350
aS'GGCUGCGCUGCGAUACGGAGUUGUCCGAAUGGGAGCAGCUGCGAGCUACAUCCCAACGUUAGACCCACCUGGGUGCUCAACAAUGCGGAGUAUUUGCUUA'
p351
aS'CGUGCGAAACGGAGGUUGGUCAUGUAUGGUGUAGGAUAACCAUAUAGCCAAAUUCCAUUCGGUUGCCAACUGGCCUGCGCCCAGAUAGGACCCAUGCGCA'
p352
aS'UUCUUUACCAUGAGUGGGGGAUUCAGAAAGCACCAGGGGCUUAUGGUUCAAAGAUGACUGUUGUACCAUUACGGACACGGAAGCGAAUAUGCAUGCCUGG'
p353
aS'GCUAAUCGGCUCAGUGAGACGAAAAGCAUUGCCGUAGCGCUACGUGGGCGACUCCUGUCGUUAAGGCCGUAGAUCUAAGUAAUGGUUCUCGUCGUCCUGA'
p354
aS'CUCCCAGUUCUCACGAUACACAUCAAGCUUCUGUCCUAGCAAACGGCGAGGCAUCCCCCACGUUAAGAGCCCUAUCUGGCGUCGGCCACACGUUGAGCUA'
p355
aS'CCAACACGUCUCAAGAAGACUCCCCAAAGCCCGUGGACAGAGACGGCCACGAGGUCACAGAGUCAGAGCAGCGCAGCCGGAUCCGUGCUAAUCGUCUAAC'
p356
aS'AUCGCUGGCCUGUAACGAUUAGUGUAAUAGCUACUUAAAAUGUUUAUUGGGCCUUUAAAGCCAAACGGUGAGGAUCUAUCCGUCCAAGUGGUGGGGCUUU'
p357
aS'UUAUAAGUAUCAUUCAGUCCCAGUCUCAGUGUAAGGUUCUAGCUGCCACACGUUCUGAGACCCGUAUGACGGGUGCACUGCGCUCGUCAGAUAUACUGCC'
p358
aS'GAGACCUCGGAGAACCACACACAUAGAGGCUACUCAGUAAACAUGUGGCUGGAGCUGUAAGACGACCCUAAUCCACCCGUUAAGUAAUACUUCUUUGAAA'
p359
aS'GACAAUUUCCAGAGAUAGUGGUCGUUAAUCGGAUUUCGCCCAAACUCGUCGUCGGGGAUGUCGAUUACGAUCGGACUCAGGGAAGGCCUCAUAACGGUAU'
p360
aS'UGACAAGAACGGAACGAAAAGGAUGAUCUAACGGUGCGACUGUGGGCUACUGACGUAGUUGUCGGGUAUCGGCCAUAGCGCCGUUGAAACCAGAUUCUCA'
p361
aS'UCGAAAACUCAAGACCCCAUGAGCAAGAGACGCUGUAGUGUCCGCUCUAACUCUGUUCACUGUUGGUUGCUCGCACAAUUGGCGACUAAGGGAGCUUACU'
p362
aS'UUACGCUAAUUCUGGGUGAUUCAUAGUAUCCUGUUGCUAUUCAAUGCGCUUAUUGACCGAAGGAAGGGGCAGAUCGGGUGUUAUUUGCUGCCCUCCUAGA'
p363
aS'AGAAUCAACCCCUACAAGGAACCCCGAGGCUCAAGCUGUGUCAAGCGUUCAGAGCUUGUGUACUGGUUUGACGUGAACAUACGGAGUGAUGUAGCCUUGU'
p364
aS'UGCUGCGACUGGGCGGGUUGCACACCACUAAAAAGACCGCCUGGAGAAUGUGCUCGGGCCUGGAUCGAUCAUGUGGUAUACUGAGGCGCCAGUGGAAGAA'
p365
aS'CUUAUCCUGGUACAUGGUUCUCUACACUAUAUGAUUUGUGCGAAGAACCUCAGGGAUAGUGACAAAUGCGGGAGGUGUUUCUAACAGGUGGGUAAUUUUG'
p366
aS'CAGCCACAUAAGUUGCGCAGCAAUUAUUGCUCUCGGAUGCGCGCUGAACGACCAUCAAUGUGCGUCUGAUCCCAACCGUUUGUUUGUGUGGCGGUGCAGA'
p367
aS'GAGGUUGACACCUUGCACGAUUUUCCGACCUUCGCGUAUUUCCCUAUCUGAUUGGAUUUCAGCACCAUUGGAGCUAACAGGUUUUACGCACUCGGAUUCG'
p368
aS'GAACGCGCCCCUCGUCAUGGUGCAUAGGGUAUUCUCGAUUCUGUUUGUUUGCUCACAAAGAAACAACUCGGUCUACUCCAAACGCAACCAUCCAGACUCU'
p369
aS'GGAGUGUCGCUAUACGUGAGCUGUUGGGAAAAGUCCAAUGGCGAUGAGCUUUUGUCACAUCCGGUGUGGCGUCCCUGGAAUCCAUUGUCGCAAUGCCUGG'
p370
aS'UCUGUGAGGUACCAUAAACUGAUCCCCUGGUCAUUCUCACAAAUCGCUGUCCAGCGAACGUAGGGCGCCCUAUUAGUUAUCUGCAUGACCUAUCAAACAU'
p371
aS'AAGCCGCCCGUGGAAUGUUUAUAAAUAUCCCACUUCGGACAGUGGUUUUGAGAUGGGCCAGAGGCAUCUAAGGUGAUGCGCAUGUUGAGCCGAGCAAGCA'
p372
aS'GCUCCUAUAAAUUUGAGGGGCCAAGCUGGAAAUAUAAGAGUUUUGUCGCUGGUUAUAUAAGGUAAUUAGAUUCGUAGAGACAAGCCUGGGCCAUCCUCUA'
p373
aS'ACCUAGUGUGAACAGUACCAUGAAGGUCCUCAGCGUGCGAAUAACUUUAUUGUAACAAAGAGUCUAACCGCCCGUCUAGAAGCAAUAUAACGUUGAUGCA'
p374
aS'AGCAACCUGCACACCCAAUGAGUGACCCGAUGCCGCAUGUGCUUUCGAUGGUCUGUGUGAGGUCAAUGAUUAAGAGUACUCGCAGUUACGACCACUUCUC'
p375
aS'CAGAUCAUUGGUGCUGCCGAGGAGAAGGGCGCUCGAUCACCAUCGAAGGUCUCUGAGCAUCCGGAAUGCGAGGAUCAUUUCUUUCUCACUCGUCAAAAUC'
p376
aS'UGCUUAAGGUGAUGAUCAUCCAUGUACCGCCAUUCCUGUCCCGUGGCUAUUAAAUUCGGCUACAUGAGGGCUGGUUCCCCGCGCGCCCAUGUACUUGCAU'
p377
aS'CGUGCUCUAGCCUCGUAGUAAUCCUGAUUAGCGGAAUGAAACUCCGGGGCGUGCGCUGGUGUGCUUUAUCGCCCACAAUACUCCAACGGUGGUAACCAUG'
p378
aS'CUCUUUGCACUUGGGCUCUGAGGUCGAAUGUUGCCCUUAACAACGCCCCUGGACACAUUGUGAUUAUCCGUACAACUAGCUUCCAGGGUGGUAUAGCGUA'
p379
aS'GAAAAAAUGGAUGAGGUAGCAGGACGGUGUAUGAAGCUACGUCACCGCUUUAAUCUGGACCUGAUUUCCUUUGGUACAAAGGAAAAGACCAUCAAUCUGC'
p380
aS'CCCUCAGUUCUGCCUCUGGCAUGUUCCUUUGAAAGCGCGUACUCAGAGGCAAAUUGUUAAUUUACCUCUAAACACAUGGCUCUCGCCCAAGAUAGCCGAU'
p381
aS'ACGGCGUGAAUAUAUACUAGAUGAUUGGUUUCUCAGUUACCCCGCAAAGAGAUACCGCUGGGCGGACCGGAUCCGUACAAGACCGCGCUGAAGCCCCGUA'
p382
aS'UGUAUGGACAAAUGGCUAGUGCCGAUACCAAUAUUGUACAGAAUCUGUGCCAUAGCUCUUGAUAAAAGCCCCGCGGUUUACUAACUCGUGCUUCCGGUGA'
p383
aS'UCAGGGUCGUCACAAUGCAUCGCGAUCGCUUCAUUGCUAACUAAUGGAUCCUCGGGUAGCAGACUAGUUGUGGUCACUAUAACUGCAGACUGUACCUUAU'
p384
aS'CGUGAGUCGGUUGAUGUAUCCUUAGGUAAGAUUACAUCGACAAUAGGGCACCAACACAACACAUACGGUUGCUCACUUCAAUGGCAUCUACUAUAAUCUG'
p385
aS'GGUAGGCGCUCGUGUCGCGAUACCCAAACUAUAAAGUGAAGUUUAUCAGUAACAGUAUAGAUUUAAAAAUAUCCGCGUUUAUGAUAGUUUUAUUAUCAGC'
p386
aS'CAUCGAGCGACCUGCUUCCACAGAAGCUUUUCAAGGCCUCGAGAUCUAGCGCCCCCAAACCACAAUCAGUUAAUUUUAUUAAAGGUAAAGGUCGCGUAGC'
p387
aS'AAAAUAAACUAACAUUCAGUCUCAGGACAUUCUAUUGAGUACGUACAAUAUAUUUUUGGAAAAGUUAGCUGCCGACAAAGGGUCUCACCGCAGACGCCCU'
p388
aS'GCCCGAGUGCUAGGCGCCACUACGAUAUCCCGGAGGCAUCAGUGCUACAACUGCCUCCGAUGUGCCUGGUUUGCAAGCAGCCUUAACCGGUUAUUUCCAG'
p389
aS'CACAAACCACUGGAUACGGUGGUCAUGCGCGAAAUCGUGCGAACUGAAUAGGUUGAAUCUGCAGAUCUCUUUCAGGGGAUGAGCUAGACGAUUAGUUGGC'
p390
aS'UUUCGAUGAGUCUAUUAUCCUAUAGAUGCUGCGAUGACCCGUUGCAAUAGAUCUCUCUAGGAUGAUUUAUCAAGGACCAUAUACAGGUCCUCAGUUCUGC'
p391
aS'UGAUUUGACAAGUAAGAAUCCGGCAUUUACAAAGCCGGCCUUUUAUAAAGUAAGCCCCGCUUCUGAAGUUAGACAAAUUGUAGGGCGCCUGCAGUCGCUA'
p392
aS'GCCCAGUGGGAAGGCUUGCCACUAGAUCUUAGAUCACAAGGAACUCCUUCACGCAGUAUGUCCGUAUGCUAUUGGGUCACCUGCCAACGAGAGAACGCGA'
p393
aS'GCAGGUUGCGUUAAUUGCUCUGGAGUCCGGUCGUUGAUCCCUCUACGAUCUGUGUGAUCCGUUACUCAGUCGGUGAAGCAUUGUGUCCCAUUAUACUGAU'
p394
aS'UCGAAGAUAAGCAACCGCCACAGGCUUGAACCAGCGUAAGUAUUAUUCAGUCCGAAACCUUUUUGAGUCUAUCAGACCGAAUACAUCAUGAGAAGUUCCA'
p395
aS'AUCUUACGUUAUUCGUCUGAAAGUACAUGCGCUGUGGCACAUAUACACGUCAUGGGCAAUUACGUCUUAUACCUUGCCAGGGGAUGUCUCGUUGUUACUG'
p396
aS'UCAUACUAGCUGGCUGGCGUCGAACAGCCAUAACCAUUGUGUAUAAUAAAGCGUGGAAGCCUCGACCUGUUUAAGGGCGAAAUCACACGGUCAUUUACGA'
p397
aS'GGGUCGCGAUUGAGACGUAGUGCACUCUUAUGCUCCUGAAUAUGAAUGGCGCCGAUGGAUAGUUUCUCUUACUCUAUAAGGUUCUUCCUCGGUAGGAGUG'
p398
aS'UUACUUGGUCUCUACCAGUCGGGAUCACAUAGUGCUAUGCACCACCUUAAGAUGAACAAACGGGCCCUCUCGAUUAUGGCGGCACGGAGGAGUAAGACUG'
p399
aS'UUUGGAUCUCAUCAUUCGCUGGGCGGGAUUACCGACCAACAUGCUACGAAGGAUCCCGGCUCUGCAGCGCUCCUAGAAAUCCGGGUAAAGGUGGGAUCGG'
p400
aS'UGACACCACCCACGUUUCCCGCAUGAAGGAUGUAAGGAUGCGUUAGGUAGUUCGGGCCACACCAACACUUUCUUAGGAACGCCUAAUCGCUACUCCGGGU'
p401
aS'CCCAGAGAAGAGGCUCACCACCUCGGCUCCCCACUCUACCCACCUACCCUCCAAAGAGCCACGCGAGAGUCCACUUCCCUUUAGAGGCAUCUUGAGACUA'
p402
aS'CUCGAUGAUAAGGUGCUGCGGGGGGCCGAUUCAGGCAAUAUGUCUGCAAGGUGCCUCACAGACUUUCUAGGGUCGGCUAACCAUUGUUGAUUGCUUUUUC'
p403
aS'ACACACAUUCCAGGGUAUCACGUACGGUUUGAUUCUAAGGAGUCACCUUGAUCCGACUAAAUGCCCUUCGAUCGACCCAAAAAAUGGUAUGUUGUGCUUC'
p404
aS'CCUCCGCUUUGUUAUCCAGAUCUGCUGUUUCGUACGAAUAGCCUCACGCUCAAACGAGAAUGCGUGUUCAAAGUAAGUAUAGUGACACGUAGGAGUAACG'
p405
aS'UGUUUUAGCGCUGGGGCGGAGACGACUCGCUGUCCUUGAAUUAUUGUUAGUUGGGUCAACCCCUACAAUGGAUAUGAUCUUCGAGCCGAGAACGACAUAC'
p406
aS'ACCUUGGCCCAGAAUUUCGACUCCCUAUCCAGGUGCCGUUCCAAAUGCCGUCAGCCUCAUGAAGUGAUGGGCGGCGGGGACUUUCCGAAAAUAACGUCGA'
p407
aS'AUGUAGUGGAAUCGAACACCAGUCUGCUCUGGACUACGACAACCCUGCUCCCCACGGCUGAUAGAACACCAGUAGUAGGAUCGAUAACGCGCCAGCACAG'
p408
aS'AACGAUGCACGGUAUGGGUUAUGCCACCACCCACCCCGCUUCUCAAGGACGCUCAUGGUCUUUCUACCGUCAACAUUUUUAGCUUUGUUGCACGCGCUAU'
p409
aS'AUUUCCGGAACAUUAUUUAUAUACACCACCCGGAGCCAGAUCAGAUCUUGAGCGGUUUGUUCCGUUUGGAUAGCUGACACCAUGAGAGCGCCCCUACUAC'
p410
aS'CUCAGUGGCUGGUAACUCCAUUAGUCCACAAACCGUUUCUACUAGCGGACCCUGUUUUUACCGGCCAGAUUGUACAUGCGAGCGUGUGGCAACUCUUAUA'
p411
aS'GACCCUUUCCGUUACGCCCAGUCGUAUUCAUCGAUGCCCUGUCGAUCGUCGAAAUUUAUUGAGCAGCAUAACGUUGCUGCGAAAUAACUUCGUUAAGGGA'
p412
aS'AGAGCCACAUCGACGUUUCCGAGCAGGGGGUGUACCGGUCGAUUAACAACACAAGUAUUAGAUCCGGCGCCCUGAGCUGAUAUAAACGAAGUCCGGUCCG'
p413
aS'ACUGGCAUGUUUAUGGUACCCACAAUAUCCCUGUCUAUGUAAGUAGUCUAAGUCGCGGGGGCAUACGUGGCUGGCUAGGUGCUUACCGAUCAAAAGGAGU'
p414
aS'GCCAUAGCUUAGUGCACGUUCCGACGAUUAGGUAUUCCACGAUACGGGCGGAACCUGUCGUUUCAUAGUGGUUGCUAGUUAGUUUACUAGGACCGUGAAC'
p415
aS'AAAUAUAAUGUGAUUAACCCGUGUGACCACGCCCUUUGCCUCGUAUGGCGGCCCUAGGGCUGUAGCCAUGCCAACACAAAGGAAAGAUAAGCAAGUAACU'
p416
aS'AUUAGUCACUAAGGAAGGGGAGUUGAAACUUAGGGAAAAAGCCUCUAGUGGAGGUCCCGCGACACUUACUCGGGAUCAGCCAGCUUGAGCACGAUUAGCG'
p417
aS'GCUCAACAAUAUAAUUGCUCUAUUACUAGUAAUAUACGGGCGCACGGAUCGUACAGUCAUCCCUCGAGUCUGGUAGCCCGAUUCCAGUAUGUACGGAUCC'
p418
aS'AUAGAGUGAAGGCGCAUGGGUUGCUAAGUGUGGCUUUUUAGCCAGCUGCUUCCCCACCGUGUUGUCUUAUCUUUGUAGUGCAUGGGGGCGCCCUAGAAGU'
p419
aS'CGUGUUUAAAUGCUGAGAGCCAUAUAGCAACCUCCGCCGUCAUCGAUAAGUGUGUUUUCGCACUGACUCCCGUUGGAAGGCUGCCACACGACAUAUAAUU'
p420
aS'CCUCGGCGGAGCUAGAAGUUUAUGUUGGUGCAUGCGAUCUCAACCUAUCCGCCCAAUGGCCGGAGUGCCGAUGCCGAAUGAGUUCUCACUACGACAAAGU'
p421
aS'UUACGACGUAUUACUACCCUUUUUUGGGGGGCAAAGGAGCACAGUGCACCUAUGAGCCUCGCUCAUUUAACAUGGUCGGCAUCUACGAGUUUCUUCAACA'
p422
aS'AGAGAAAACCCCACCAGGUGAUAAGGGACGGGUGCUUCCAGCCAUUUCGAAUGAGAACGCCUUUCAGGUGAGCUACAAAUGACGUCAAGACAAUCCGAGU'
p423
aS'AGGGCCUCAAGACUAUAGUUCAGGAGUGUGUCCAUGGCAGAAGGUCAAACGCAGUUGGGUGCCAACGGGACGGGUUUACUAAUUCGGGUGUUGUCAUCAG'
p424
aS'CCGCCAACAGUCCCGUCUUGUGGUAGCCAGUUAUUCCGGUCGAUUCCGGUAUACGUAAUCAACGCGGGCGCACCAUUAUUGUGGGUAUUGUACGAUGCCC'
p425
aS'UUGGCGUCCUUGGCGCGGAGGCCUUCAACCUGCCACUCCUCACGCCCCCAGUGACCAAACCGUGUAGCAGAGGUGCGAGAUGCUCAAUAAGAGAACGUGU'
p426
aS'AACCGUACUUUCCCAGCAGUAGAAACGAGCAGUCCACAAAAUACGGUCUUCAACGAUCGACAGUGUAGGCUGCAGCAGGCAGAUCUCAGGUGCAGACAGU'
p427
aS'CAGCCGAGUAUAGACGGCACACCGAAUAAGACGGAAGUCCUCGAUUUAGAUUAGUUAUGGGUCGAGCCCGGGAGUUCCACGAGCCGCGCGAGUGCCAUCC'
p428
aS'AGCUCUGUGGCAGCUGCGUACUUCCUGUACAGCCCGUAAGUUCAUUUCCGAAUAUACCGAAAGUCAACUUCCCCAACUCUUUCGCUAGAGUAGCUGCGAA'
p429
aS'UAGUUACCCUAGUGCAGGGUAUAAAAACUUCGACCAAUUCUGCAACUCCGAAAUGGACGUGCGGAUCCUGGCUAGCCUCAGGGGAUUCGUUCCGGAUUUU'
p430
aS'UGACACACGAGAGAAGGCGCUAGGGGGAAAGGACCCAUGAGCAAGCAUUUGAGCACGCUUAUUUCAUUACAUCGAUAGGGGGGGGCUCUAAUCGCUCCGU'
p431
aS'GAAACAAAGGUCACAUCGAGUCGGUACGCUCGCAUUUGUUACUGAAGAAAACAGUCAUUUAGACUAAUAGGAUACUUGAUUGUGUGUCGGGAAACCGUUC'
p432
aS'CCUGUAGACACGAUCAUCAGGGAUGACCUCUCGAAUCAGUAAGUUAGCGAAAUCCUCCCGGAUAUGUAUGGGCGUAAGGAUGAAGACCAAUAGAGUUACC'
p433
aS'GAGCUUAGCCAAUUUCCUCAAGACUACAAUAAACCUACUGAUCUAGCCUGGCAUCGCCGAAGCUAUACAAGUUUCCAACGAAGCGUUUCCGCUGGUAGAA'
p434
aS'GUUAUCGUACACGGUCCUACUUACCUGAGUAGGUGGGACAAACCCUCGGAAGUGUUGUAGCCAGGUCUUAUGAUAGACGCACUCUCAAGACAGGAUAGUG'
p435
aS'GCAGCGCGGCUCGGGGUAGAGCUCACCAAGAAGAGCAUAAAUAUGAGACAGGAAUACGAAAAACGUUAGAUAUGGCGUCUUGUAAUUACGCAGCAGGGAU'
p436
aS'UGGCAGUUGUUUAGUGCACCUAGGGUUGCGCCUUCGCUUGUAGGCGUGGGGACACGUCAACCGCCACUCCAUUACAAGCGUAAGUUAAGGGGCGGAGCUA'
p437
aS'ACAGCCUGGGAGCCCAGGCGAGGGCUUUGUCAUACGACCUUACCAUUACAAGUUUCCACUGUGCCUAGUCACCUAAAACGUCGAACUCAACAUAUACGCA'
p438
aS'CACUUUUAGUGACUGUGGAAGCUCGACCUGACGAAAUACCCCGCUAAGGCGACCGAUACUCGGCGGGUAUUAUGAUCAUAUCGCAUUUUUCUAUACCUCU'
p439
aS'ACGGUCGCACUGGAGAACUAUAAUUCGGUCAUACUUUGAGUCGGGUAGUUCGGUCCAGAACUAGCAAAGAACCGAUUUUGAGAUUCGAUCAUCAAGAAUG'
p440
aS'GAAAAAGCGUACCAGCGGCAGUUGUUUUCCUCCACGCUACCGAUCUCGUGCAAACUAAAUUGCCGGAUUCAACGACCUAGGAUGAAUCUUCAGCAUUCCA'
p441
aS'GCGUAAGGAGACCGUAGAUUGGAUGAGGAACACAUAGACUCGCGGGCUUCAUCGAAACAGUACGGGUUAGUCUGCCGAGAGAUUUAAUCGACAUCGUCUU'
p442
aS'CGGAGCGAGUCGGGUGAAUACACGCCGGACUGUAGAGCUACAAUAUCCCGACGAACGAGGCAAGGCACUGGAUCUCACUGAAGCUGUUCGAACGGAGGGA'
p443
aS'CCUUCCUCCCCGAGACGAUUACCACUGCACGGGCAGUGAACUCAGGAGAACGGAAGAUGAAACGCUGUCAAAUGGCGCAACCAGAGCCGGCCUAUCUCAU'
p444
aS'CGGUGAAUAGUCACAGCUAUCCGGGCGCGCAGAUGCCUGAACACUGACUUCCCAUAAAGCUACGGAGCAGUAGAGGCAUACUUCUGAGACGCCGUGAAGG'
p445
aS'GGCACACCCAACGAACUAUUAGUCAGUGUGCAGUUAGCUACUUGGGUAUGAAUGUAAUGCCUACGAUCAAGUAGACCAUCUGCGACAAAAGCUCGGGUCU'
p446
aS'UAGGCUAACUUCCUCCUAAGGCCAUGCCAGAUGAACUGCGGCUUUUCACAAGGGGCAGUGCAGGUUGGAACCCUUUGACUAGCAGUGUUCAACGGGCAUU'
p447
aS'GCUCUGCCCUAUGCAUUUGGUCUCAUAAACCAGGCGGAUGACUGGCUAAGAAGAGUCGUCUUUAAGGUAGGGCCAGAGCUGGUUGGGUUGUUCGGUGUAA'
p448
aS'GAGGCGGAAGUGGCAGUACGUCGCUCUAGGAAGGGGUUCAGAUCCAUGGUCCCCGUCCAUUGCUGCCGACAGGGGGCUAGAACCGUGCAGGCGGUUGUAG'
p449
aS'CACAUGUAUUGCUCCGAAGGCUGUCUCGGGAGACGGGGGCAGACAUGCACCUCCUAGUAUGCCGAGGCCUAGGUUUUACCAUUUAGGACUCUAAUGAACU'
p450
aS'CCUCUACGGACAUGCGAUAGGCGCAGUGCGCCGCACAUGCUUUAUGACCACAACAAUAAUACCACUAAGCCUAUAUCGACCCGACCUUUGCCACUCCGAA'
p451
aS'UACUGGGACAACUCCCCCCAUCUAGGUAUCUUCCCAAUUGGGUGGGUAAGUACGACGCAGGGCUGGUGAAAUGUUAACCAAGACGCGAGACUCUGAAGCG'
p452
aS'AACCCGGCGGGCUCGACACUCAACCACACGGCUGACUUCUCCACAUAUCUCAAAUUGGCCAUCAGUUGGAUAGUUCCCAUUCUCAUAGGAGCGAUAGACG'
p453
aS'GUUUAUUAAUAAAGGGUUAGAAUUACUACGCGCACUUCGGGCGUCAGUCUUUGGUAUGCACUUUUCGAUGAUUGGCAAGUGUUCGGACCAAAGACUUGCU'
p454
aS'GAUUUAGAGAUACAGGAGAGCCACGUGCUGUAUUCUCUCCUCGGUGGCGAGGUUAACCUGGGAGUCGCAGAGGAAGGUCAAGACGGAUACCGCACGGGCU'
p455
aS'UGGGUUGUCGCCUAAGCGGGUAAGGAAUAUGUAUAUCGACAGCGCAUACCGUGUAACUGAAGCCAAGCCGGGGCGUUGGACGCCACCUUCAUCCAAGGAG'
p456
aS'CUCUGACUCCACCAAUAACAAUUCUUUGACGGUGGACCUAUCUAAAGCCUGGCACCGAUGCUCGAUCAGAGUAUAUAGUCUGUUAUCCUGAUCAGUCCGU'
p457
aS'CAUCCGAGCGGGAAGAAUACAGGUUUAGUGAUGCGCCAGACGCACCAAUAGACCGCCGCACCAGCAACCAGUAGUUCCAGGCAGCGCACGGGAGCCAUAA'
p458
aS'CUAUUAAUUUUUUCCCUCGUCAUGUGAGGGUUCCCGGGGGUAAUGAGGCAGCUACUGGCAAAACUGAUCCCGAGUGGGUGGGGGUACGAUGCCUGAUAAC'
p459
aS'UGAUAUCUUCAUAAAAAACCACCUUAGCCGUUCGAAACGACGCUCGUACGCCAAUCGUGAGGAAGUGCCUGAGCGAACUCUAACAAAUAAACCCCGCGUU'
p460
aS'UAUCCUGAAAUCAUCGCCAGUGUUUGGGUUCACACGCGUCUGGACUUCCAGGUUUGAUGUCAGUGAGCGGGUUCCCCAUAACACCGCGUUAUGGUCCAUA'
p461
aS'AAUGGUCCCACGGGUGGGCCUUUAAUUUUCUCGGAGCCUAAUCGAUGUGGCCGGUUUCGCUUUCAUCGGUAACACCUAUCCGUUCGGGAUUUUAACCGUC'
p462
aS'CCACCUCAGGUUCAAUUCAUCUAUCUCGGAUGAAUCAACUGGAUCACCUCACCCAUGCUUCCUCCGCACUCUGUUCCUGGAUUGGCUCAUGUAUACUCGG'
p463
aS'UAGCCGUACCCUUUCAAUUAGUAGUAUUGGUUCUUGAACAGUUCGGGCGGCCCGCAUCUCGCCAUGUCGUAUUCUGCUCGGGCGAUAGGAGUUGGAGGGU'
p464
aS'UCAAAUUGACGCUUGCGCAAUCUUUUUGACUCCACGAGUCCUUGCUACUUCAAAAGACGCGAUUGACUUUAAGUAACUGCUACCAACUGUGAUCGCCUAC'
p465
aS'UUAACCCAUCGACCCAGUGUGCCUUGCCCGUCGGACCUGUCCCCCCUGGAUCCAUCCUGCCCAACUAUUCUGGGAGUAUGUCAGCCAGCCCAAGUUCCGG'
p466
aS'GCCGUACGCCAACAGCGCGCGGACAACAGCCCUAACUUACACGACGCCAUACCGGUACGUACUUCAUAAAAUUAGGACUCAUGAUCGGCGAAUAGGGCCU'
p467
aS'UCUUCAAAUUGUGUCACUAUCGCAACAACACGGAAUUGGCCGCAUGAUGUGAUAGCCGGUAGCGCUAUAGGAUCUUGCGACUCACGCUCAACAAUUACGG'
p468
aS'UGAGUUAUCCAAGGGCAAUGCUAGAAGUAUUUUGGGUCACGUCGAGCCACGCCGCGUGAUUGUUGUCUGAUCUCAACGUCCAUAGGCAUAUACCAAGGGC'
p469
aS'CUUUAUGGCAAGGCGCCUGCUAGGCAGUUACAUCCGCACGGUUGAUCCGCAAACAGUCUAGCCCAAAGGGCUUUAUUGCAAGACGGUAGUAGCACUACGC'
p470
aS'GUGAUUAUCAAUUGCAUAGCUGUCUCUGUAAAGGAGACUGCGAAGGCUCUUGUCUUAUUGGUACAGAUGCAUGAGCAGCAAUUUUCUGUGUGUCGCAACC'
p471
aS'UUACAGCAGGGUCCAGAGAUCAGGGUCGUGGUAGACUCGGUCUACGAUCCAUGUUGUACUUACCCCAGUAAAAGGAUUCAUGUCUUAUCUGCAUAGAUUA'
p472
aS'GUCGUACACGUAUCUUCGAUACCCCUGUAACCUGCUAGCUUACAUGCGCACAUUUGUCUUCCUGUAUCGGGAUUGAGAGUCGGAACUUUUAGCCCGGGCU'
p473
aS'UCAGCAAUAGGAGGCUGUGGCCCUUCCAGCAAGAAAGAUAGUCGGGCCGGCAAUAGACCCGAAUCUCGAGUGUGUAAUCCUCGGGCCUUCCAUAAUUGAG'
p474
aS'CAUGUGCUAUAGGGAGGGUCAGCUUGGUUCGCUCUCGGCUAUGGAAUAGCGCUACGUAAUUUUGUCGACGCCCUUGGGACUGGCUGCUCGUUAUACUGGG'
p475
aS'CCUGAUGUAUUCCCAUCUCUUGAGAGAUCAAACUGUAGCGCAUACGCAAAGCUGAACUUACAUUCCACUCAGGAGUAACUCGGAUUCCUGAAGAGAGCUG'
p476
aS'GGUUAGAAUCUAAUAACGGUGUCCGGUUCGUUCUGACAAGUCUGUUGCGGAGUGAUGCGCAUUUUCACGGACAUGCUGACUCGGAACUGUCGGGUCUGUC'
p477
aS'GUUCAAUUGCAUCCCACAGCGGCGAUGUGAAGGCAAGCGGGUCUACGGUGCUCUAGGCUUAAGGUUGAUUCGAAACCCAUUAUGUCGUGCCCGGUACGGA'
p478
aS'UCUAGUAGCAUCAAUAUUUGUCAAUCGCCAUAACGUUAUAUUGAGGUGUAUCGAAUGUCUCGAGGGCUAUACUAUGGUUGGUGGAAACCUCGAAUUACCC'
p479
aS'UUCUUGGUAAUUGACCUUAAACCUCGCAAUCUACCCACACGAUUUACGGCUCCUAGGUUGUCGUUUCGGGUCUUCGCAACAUAAUGCGCUUUUAAAGGAG'
p480
aS'CCGCCCACGUCCGGUAAAUCACUAAGACUAACCCGUCCCGGGAGGCGCACAAAACUAUUGGAUGAUCCUUUUGUCAGGCGGACUUCCUGAAUUGCGUGCA'
p481
aS'CAUUUUAAGCCUUAGAUGGGCGCUCCUUUCAAUCAGUGGUUACGUAACAUUUCUUAUGUCGGGUAAUUGUCUUUCGUCUUAACGUCCACAUCUAUCCUUC'
p482
aS'AUAGGUUACAUCGAGAUACCGUUAGUACCCCAGUCAUUAAGCUUGUCAUGCUUAGUGCCGUAAGGUCACAUUCCUGUUAAACAACUCACAUUUUUAGCUU'
p483
aS'AAAUCCCUGAGUCUUUAAAAAGGGAAGGAAGUGCCAUUGAUAGCCCUGCUAGCACCGCGUGAAACGACCAUGUUAACUCUCCCAUGCGCUUCAGAAGACU'
p484
aS'AUAGUGAAUGUAAAAUAGUUCAGCGCUGGUCAUUGAGGCAAUCGGGCUCUUACCAGCGUUGUUAAUCGGCUCAACCACAUACUCCAGUCAACUGUCUACU'
p485
aS'CCCAGCGAGGUUAUUUGUAAGUCAAGCGUGGAGUCCAAAACACCCGCUCUAUGGGGAGCCUGUGGUUGCAAGAAUACGAUUCAUGAGUUAGGGUGCGGGU'
p486
aS'GCAUACGGUGACAGCAAGUACCCGCCUGUCUUCAUUGAUACUCACCAUGGGAGCAAGUGCUUGGCGAUGGUUGCUUUUUGCUCCUUUGCCCUCCUCGGCG'
p487
aS'CUUUGCGGACUUGACGAACUGUUUGAUAGUGUCCGCAGUCUUUCAUGUGGCAAACUGUCCCGGAAGGAAGUUGGCAUGCUUAAGAUACUGCAAUACAGGU'
p488
aS'GAGCCCGAACGCAGCCGUUGCUUCACGGAGGCUGCCCCCCCCGCUAUACUCAACCCGCUGAUAGAGCCCCUUUACUAUAUCACCUCCGUCUAAUGAGACC'
p489
aS'GGCAGAGGCGUCCCCGCGGCAAGGGAACGACGCGUCAUUAGAUAUUAGGUAUUCUUCUAGAUUACAGUUAGAGUAUAAGUGCAAUGCCAUAACUUUACCU'
p490
aS'ACCCUCGGCCUGGAGAUAGGCUAGGCAAGACUCCACCACGGAAGGCUCCGUCUAAACAGGAUGUGAGUCAUGUUUAAAACUCCUUUUUAGUUGUCUACGA'
p491
aS'UAUGGAGAGAUGUACGGGGAGGAUAUACGGGGUACGCCCCGCCCAAUCUUUUUAUGAUACGCCCUGUCUUAAUCUAAGUAGUGGUGCAAUUUGGGUGACC'
p492
aS'CUGUCAGCCCUCCAUACUUUCGGUGCCUACCACCAUCUGCAGUAGUUCGACUCGGUUCCCCCAGGUUCUGCAAAUUCCCUCCAUUGAUCAAGGGUUCGAA'
p493
aS'UAUACCGUUAUGUCGCAGGUAUACCCGUUUUGCCGCGUUAUAGGAGGUCACGUUGGGACGCUCGAGAGGAUGCCCAUUAUCGACAUCUGUCUCCAGGCAU'
p494
aS'CUAGGCUCGGGACUUGCUGCCGCGAUUUAGCCCAUAGGCGCUUUAACCGAUCGCGAGAUUUAGACGCCAUGCUAGCAGUGUCCGCGUCUGGGAUUCGAAA'
p495
aS'GGUGUACGAGUUGGCUCGGUCCCGACAAAACCCCGACCAUUAAUUCAUCUGUGACUUUCCGCAAGAGUGGUACCAGAUUCUUUGACUGCGGUGGAUGUCG'
p496
aS'ACCGCGACUCAAGUAAGCCUCUUCACGUAUACGGCGCCUGGUGAGCCGGAAUCUCCCCCAGGCCUCCCCACCCGUCAAAGCGUAAUGCAUGUGUCGCAUA'
p497
aS'UGUGGUAUAUUUACGUGAUUACCGUAUCGAGUACAUUGCAUUCGGUCUCUAUGUGCUGUGGGAUGUCGGCGGACAAGAGGAACCCUCUUGAACCCUUCGG'
p498
aS'ACGAGCCCGCAGUUCACUUAUUAUCGACACAGUCUCUGUUCUAGUUCUAUUCCGGGGGCCUCUACUUUUAACCGGAACACAAUUCGUUGUCGGGUUUAGC'
p499
aS'UCACCCGGUUAAUGAUUGUCGAACGCCCUUAUCCUAAGAAAUGAAUCUCAAGGUUCUUAACGACGUUCGCAGGACCAGUUAAAAAGGCUGGGAUUUACAG'
p500
aS'UAAUGGGCAUUUUUCUAUCCUUCGGUAGAUUUCCGGCGACAAUAUAAUUUUGGGGUGGUAGUUUACCAAAAAGUCGCGAUGUUCAUCUUUCCUUGAGGAG'
p501
aS'GGGUGCAAACGCCGUGUAGGGUUGCACUGAUAAGCAUGCUCUCGGAUCAUUCGAAAUGUCGGAGGUCGCUGAGCAUAACCGUCUAGCGAGUUCCUCUCAA'
p502
aS'AUAAUCUGACUGGCCUGGCACUUGGCUGAGCCUAGUUGUCUCUGCGCGGCUUAUAGACACCCCCAAGCUCCCUGCUAGCGGUUCCCUAACGCGGAUCGCU'
p503
aS'GUUCGCGGCUCAUCUCAGGAUCGACGGUGGCUGCAGAUGGGGGUACUCCCACUCGCAAUCGCCCCUACGAAAUUGGGCGGAAGCAUAUUGGUCACCGAUA'
p504
aS'UAAAAAAGUAUGUCGCCAGUGGGCGUGUUAGAUAUGUUAAGUAUUUGACGUACACCCAGUGCCACCAUUGCCCGUAGCUCCUCGAAUAGUUUAUGGAGUA'
p505
aS'CGAGCUUAGAGUUCCGGCUACUCAAUAUGUGAAUACUAGAUAUCGUGAUAGGUCAACGCGAUAGCUCCCCCAUAUUUUUUAGGGGGUCUUGUUUGAUUUA'
p506
aS'UAGCAUUGAUGUAGAUGUAAUAACGUAAGGGAACCAGAAUGGCUGGUCAAAUUAGGUCAUUCAGAUUUUUUGUUGUCCUAUAAUUUACGGGCCAAAAUUG'
p507
aS'GCUUAAUUGACGCGCUGCCCCAGUGCCAUGUGUCUGAAACGCCAACAAUAGUUACCACCGCAUUCGAUUGUCGUCGGGUCCACCGCGAGCAAACAAAGAG'
p508
aS'AAGGUGGACCUGUCGAGCCUAGAUGCAUGUUACACGUCGAGUAUCGUACCUUUACCGCAUUAGCUGACGCACCGACAGGGAUCCACCGCUUCAUGCAGUG'
p509
aS'UAUAUAGUAAAAGCGUGGGGCGUUCGACUUAGAUGCUCGAGUGAGGUGCGCUAUUAUACCGUUAGCUUUAAGUAUAUUACCCCACGAGUCUCUGCCACCU'
p510
aS'UUGGUCAUCUUCCUAUAAGUAUCAGAAUAGUAUGAUUAUAGCUCCUUAAGAGUGUCUCCAUCCGUCCGCGACUUAUGCGGAGUUCUGUCAUCUGUAUUGC'
p511
aS'CUUGUAAGCAAUGCAGCGUAACCCUGUGGAUACAUAGCCGGACACAAAAAAACCCCCAGUUUUACACCGCUGGACCCUUUGGAACUCAACCUAGGUUCCG'
p512
aS'CAAACCUCAAGCUGGGGUCGCGUGACUCGGACCAGGUCAUAACGAAAGAUAAAAUGCUCGGAGGGAAAAGUGCUAUGUCACCGGGGUGUUAGGCGGAGCC'
p513
aS'CGCUACAAAUCCUGCCGCUCGCGAAAGUGCUCAAAAAGACAAGCAGUACCAGAAACGCCUCCCCCCAACCGCCUAGGUUCCAUUUUUACGAUCGUAGGCC'
p514
aS'GCCACCGACACAAUAUUCUACCGCAGACUAUUACCACACGCCCUCUUGGCUUGAUUAUUUCGAGGGUGAGCCGACUUGAGCACUCCUAGAAUGAUGCGAG'
p515
aS'AAGAACCCGAAGCAGCCCAUUUUAAUAAAGAUAGCUUCCACCGGUAGCCUUAGUGGUCUCACACCUUCGGGCCAGCGAAUAAAGGGUCUGAGGUGUCUCC'
p516
aS'AAUGACAUCUAAACACAUUCCUUUCGCGGGUUUGAGACAAGUGAUAGGCACAUCGCUCGUAUAUUCCCUACCAUCGAUUAUAACGAUAUCCCCAAGAAAU'
p517
aS'UGCACUCCCCAUCCCCGCGCCACUAGGACGCGAGUCAGCGCGCAGCACUGGUGUACACACGCACAGGGAAAGGAUGUGUGUAAGACCUAUCACUGUGCCG'
p518
aS'UAUCUGAUGUCCCCUGAAAGCUGUCGGACCCAGCUUGUAGGUACAUUUAUAUGCUUACACACUUAAAACCCACAUUCUGCGUGCCAUUCCAAGCCUGAAA'
p519
aS'CAUAAUAGACCAUCGCUCUGUAUGAGAUAUUGACGCUUACUGAUACGAUGAGCUUUAUGUUUCUAACGCAUUUACGAUACAAAUAUACGCGAAAUAACUC'
p520
aS'AUUGAUGGAUCCUUUUUCCUUAAGGGCGCGUGACCGGGCUACUCAUGUCGGAGUGUGUGCGUGAGGCCUCCCUCAUCAAACUCUAUCGCUAGGGCGACCC'
p521
aS'CUUGUCUCCAGGCUGCUCUGAUAGUCUAGCGGCACAAGUUUCUGAGAUUAUUCUUUUCACACCGUCACCUCGCACUAGAUUGUCCCCGAACUGGUAGGGA'
p522
aS'GUAUGCAGGCCGACACAGCACAGGUAACAAGCGGAAAGCUAUAGCAUCGGUGUUUGGCUGACGCGCCCUAUAGGGCUCAAGCUUUACCCGGGCGGGAAUC'
p523
aS'AUAAAUUGUGCUAGCGGCCUGGAGAGCGUUACGUUGUCACAGCUCCUAAUUGUCCCCGUCCGUGUUUGCUCCAAUCCCGGAACGCCUACCAAUAUAUUUA'
p524
aS'GGUCAGUAGCGCGCAUAUCAUAUCCGGGCACUCGCUGAUCAUAGCGACGCACCUAAAGCGUUUAGAUCUCUACUCACAAAGGAAUGUAACUGUAACCCUG'
p525
aS'CUAGUCAUACGUUGGCAUCAACCUGAGACACUUCACUCCUAAUUGACCUCUCAUUGUACAGAACGCGUGCACCAUGCCUGUUCCUUAAUCGCGUGAUGGU'
p526
aS'CAGAGGUCACAGCAAUAAGAUCAAUCUUGUUUCUGCUGGAUAGGCCGGGCCCGCCCGGUGCAAGUGUGAAUGUGCGUAAAAUAGCGUCCAAUUAACCGUU'
p527
aS'UGUUCCAAUGGUGCAUCACCCAAAAACCUGACUAGUCGCAGAAAUAUCUGGGUUAAAUAGUGUCAACCGCGAGGAAAUCGGUGGUUGAAACCGGAGUUUC'
p528
aS'CCAAGAUUUGCGCCUGAACUAUGCGCCUGGCUGUGCCAAGGUGUGCCCGGGUGCUACUCCCGCCCAAGCAAUCUCAUAUCGUAUCUAAGCAUGGCGCCGC'
p529
aS'UACGGCUAAAGUGAUGGGGUGGUGGCCGCACCAGACAGUGAAAUAGAAUCGCGAUAGAGCCCCCAUGAUCGUUCCGAAGUGCUUAGACAGGUGCGUUACU'
p530
aS'UAUGUUCAGAUACAUAAUGCACCCUGGGCCCUUUCCGCAAUUGUAUCCCUCGUUUCACUCCUUCUGCAAAUAUUUCAAUGGGGGGCCCCCCAGUUCAACU'
p531
aS'UAGCAGGAAAACGGCAGUACUGUGUCGCUAGCACAAGCACCAGUAAUCUAUCAAGCAAAUUAUUCUGCCAACAGGUGCCACGUAGUGGGACCUAGGCACG'
p532
aS'UCCUAAGGGGGCGGUUUCGAUAUGGUCGGCGGGAGAGUAAGAUUUUGCGAAGGGCAAGAACGUAUGUCUGAGAGUUUAGAGGAAACUCUCCGUUUGGAGA'
p533
aS'GAAUUAUUCCCGGCCUGCUAUGCUUACCACUGCGAUGAAUGUGGGUUUUUAUCAGACGGAGUACUCGGACCAUAAGACGAGCCCUCCAUUUGUAUUCACA'
p534
aS'AGCGUAUAUCAGUGAGGCACGACCUAAGGCUGAGUCUUAGCGCAUGAAUUAAACGAAGCGACACGAAGCCUCUCAGCGCUCAAGGAUACGUCCACUAAAU'
p535
aS'ACUUCGAACUAUGGAUACUUGAGCCUUGCACCUUAGCCGGAAUGUCACAAGCUCCACUUAAACAGUCCAGCUUACUAGGAUUAAGGAGUGGCUAGGGAUG'
p536
aS'CCUGGGAGAGUUAACGCGCAGCAGCAUAUGCGCCUGACAGUACGCUUAGCGAGACCCCGUAAUCCCUGUCUCGACUGCUCGUGGUUAACCGAGAUCCGCA'
p537
aS'GAGCGUUCGAACCAAUUAUUCCGUGCGCUGGGCAGACCUGUUCCGUAGAUCGUUCCGCCACCUUAAGUGUGACUAAAUCGAUUUUUAUUCUUGUAUUGGG'
p538
aS'GAAGACAGUAGCCCUCUCCACAAAGACCAUUUUGAGUCAUCUUCGUACGGCUGGAGUAUCGGGACUUCUGCAGAUGCGCCGAGUGCACGGCACAAACACA'
p539
aS'ACUAGGUCUUUUGGUCUCCCAAAGCCGGGGUGGUUGAAAAGUCACCCCUAUGGCAUACAGAGGCGUUCCAUGUUCCACGUUGGGCCUCUAAAACCGUAAG'
p540
aS'GGUCGGUGUAAGUACGGAAUUUAAGGUGCCUAGAUACCUGAUUGCCCUAGUGACCGCACUUCUUCUUGCGAGGUUUAGUGUAUCCCACUCUAAAGCCCAC'
p541
aS'GUCCAUAUGUUCCUUUGAGACCGCACUAGUGUGAGAGUGUCCGUUAGUGAGCUUACUCGGGUCUGAAUGGCCCCGGAUUUACCCGUCGAUCACAGAGCGA'
p542
aS'AAGUACAAGGGCACUGUAAUACAAAAUUGAAGACCCUUUACACCAGGAGCCGAUCCGCACGACUACAUAUAUAUAGAUACCGCAAAGGAGCUUCGAGAGG'
p543
aS'AGCAGCUUUCUCGUGGCGGGCUGUCCAUAUAAUGUUCGCACACGACAGCGUUGAUCGUCAACUUACCGGAGAGAGGAUGCAACCGUCCGUCCUAAAAGUU'
p544
aS'UCCCGGGUUCUUUACAGAGCUCAUUGAGAUAACAGUCCCGCAGCGGGAUUGGGUUAUCUUUCCAGAAACACCGCGGGACUUUGUGCUACACAAUGCACUG'
p545
aS'ACCUCGUGGCCCAAUUUAGUACGGCGAUCUUUGGAUAGUCUAGCCGAGUGACAUUUCGUGUAAUCCGAAGCGGUGCACACUGUGGAGUAAGGGGUGGGCU'
p546
aS'UUAGCCAUAAUCUAAACCCUACCAUCAAGUAAACAGUCUUAAGUCACAAGUCGCUUGACCCCAAAUGUCUUAAGUAGAGUCCAAGUAAUUCUAGGUCCUC'
p547
aS'GUGCUUCGUAAACUUAAUGGGUCGUUACGAGUGUUGAGCCGUAAUCCAAGUCUAAUGCCUGCGGAAGUAGAACUCAGUACCACAGUGCACGGUAAUAGCU'
p548
aS'UCAGUACCGCCUCAUUGUUCAUGUCCUAAGUCGGCGGUACAUCAAUUACUGGUGUUACUUUCGGAUCCAUAUACCAUUGCAGUACUGAAUGAUGCAUGCG'
p549
aS'GUGCGCUGCCAUCGGCUUAUUCGCGCGCGCUGCUUGGAAAACCGGGAGUGAAGCUACGAAAAUUUAUAAUGUCGCUAGUUGCCAAAUGCGGCCAGGAGAG'
p550
aS'GUAUCUUGAGCCAAAGUGGCUCAAGUUCUUCAUAGCGUAAGGUACGAAUAGAGCCUACCCCCGCAAUCCCAUGUAGCAGUCUCUUUGUGCUUACGUGAUG'
p551
aS'AUAGGGCCAUCAUAUCCGGAAACCGCCAUUCCAGGCUUUAAAUCGUAGCUGACCUGCAAGGGUAAUCACGUCAUAUCUAGGGAGCUGCGCCGAUAACGCG'
p552
aS'AAACGAUUAAGAGCUUUUUCGCUAGGCAAUUAAGACAGUUUCUCUGUACCCUGUGUCCCAGUGAUGAUUCAGGCCAGCAGCAAAAUAUAUGACGAGUCCC'
p553
aS'GGCGAUCCAGGUUCGGGUAGUCUAGUAUAAGGUUCUUAACCAUGAGCUGUCGGCGAGUUGCCACACGAACAGAGAUUUUUGAACGAUAUAAGUCAUGUCG'
p554
aS'AUGCCCAUAUAGCGCUUACCGAGGUUAGCCCCGAAUAGCUCAAUAUCCACCUAUGCCGUCCUGGGCUACUACGUUACGGGCUCAAGCGUUAUGACCUGGA'
p555
aS'CUGGUGGGUGGCGAGGCGCCGCACAUGUGUUGAGACCUUUGGGGUUUAAAUUGAUGUCACGAUUAAGACGAUAAGAUACCGUCGUGCCGAGAGGCGCGGC'
p556
aS'CAUUCUGAACCACCGGAUUCAUUUUUAUGUCUUUGAGUUGGUUAUUUCCGUGAAUCCAGAAGUGGGCCGGCUCACGAACGAGGUACGGUGUGUAGUUGAU'
p557
aS'CAGAUGGUCGCAACCUAACGGAUUAUUAUCCAUUGAUGUUGCUACUUUCACGGCGGUCCAACAGCAAUAGUCGACGGGGCACUCUCACACGCGCGAGUAA'
p558
aS'CGGUGUUUGGCACGACUGGUGGAGGCACGGUACUACCGGCGAAACGUCCUCGAUGUCUUACCAUGUCACAUACCCGGCCUUGGUUCGAAACAAUUAUCGA'
p559
aS'AGACAAUAUGGAUAGUGCCUAGGAAACUUCGUCAAAUGUAUUACCAUGCCCCGCUCAGAGACUUCCUUAAAGUACGUGAUAUCAUAUAGAGUACUUAGCC'
p560
aS'AUUUGAUAAGUUUUAUCCGACCUAGCAGACGCACUCUAGACGCCCCUGCUCAGAAUUUUUCCGCCCGAGACCGCGCCAUUCGGAGAGUAACGGCUGUUCA'
p561
aS'UAAUGCGAUAUCCUGAGGUCUGAAACAAGCGCUACUGAGACAGUUAGAAGACCGCGUCACUUCGAAUUCCACUAAAACAAGUCGGUGCCUAAGCGUUACG'
p562
aS'UAACGCCAAUCAGUUUACUGCAGCGAAACACAUGAAUUCCCCUGGUGUUCCCUAGGUCUAAUCAACCAUUAAUGCACGGUUAGGUAUUCCAUAGAUUUGG'
p563
aS'GCACUAACUUGAGAUGUCCUCAAAUCUCAUUCAGUCCUAGGCUACCCUCGGGUUCUCUAUCGUAGACGGGAUUCUGGAUAUGCUACUAUGGGUUUGCCCA'
p564
aS'UAAGACGUGCACAGGCCGUACCGUCUAAAGCUUUAGUUGUCACCGAAGGUAGGAUAGAACUGCGAUAUGUUUAGCCGCUGCAUACACGCUAGAGAUGAGA'
p565
aS'AAUAAGGUUAGCAGUCAAAACUUACCAGUUAACUGACCUUGGAUUGUUGCUUUGAGUGUAAGAACGGUAGUACCCGAUGUCCUAGUAGGUCCACAUUGGG'
p566
aS'UCGGGUAACUCCACCGGGUAACUCCGACCAAUCUCAACAGCCUUAUAUACUCUUACACUGCACCUCAUCUCAUUACUGGGGGAAGACAUCUUUAUUUACC'
p567
aS'GACGUUUGCAAAACCGCUCAAUCGUUCCUUGGCUCAUCCAUAGUUGUCAGCACGCCUUCAUCAAGAAGAUCCAUGUUUUUGUAAGUCAGGUAGCAAGGGC'
p568
aS'CAUUAUGUUGGGAUCUAUACUAGACGGGGACUGAUCAAGGCGCUAAGUUAAAUGACGUAUUUAUUGGGACUCACUAGUCAAGAUUUAUAGGAGAAGUCAA'
p569
aS'UGUUCCAAGACAUCCCAGAGGACGAUUUCAAGACCUCUAAUGCUGUGUUCCCUGGGUCACCCCUAGGUUGCCGCCUCUCCGAAUAAGGAUUGUACGUGGA'
p570
aS'GACCAUGGCAUUCCCUAGGCUAAGCUCAGAUAUAAGAGAGACAUUUACGUGGGUGCCCAUCCGUUUUUUGAAUAGAUUUGUUGCCGGACCGUUGAUCGUA'
p571
aS'GUAAACGCGUGUUAAUUAGUAUCCUGCGGAGUUCUGCAGUGGUUUAUCACGGCAGGCGAUUCACAGUCCCCUUUCUUGAAAGCGACCGCGGAACCUACCG'
p572
aS'UUCGGGAAAAGCUUCUCUCUGAAUUGCCCGACAUGAAGUCGUGCCGAUUCCACGAGCUUAUAACACGUCUGCUGGGACUAGAUGGUACCAUAUGAAAUGU'
p573
aS'ACACAAGGUACUAUGGACUUUCCGGAGGUAUAUGCGCAAGCAUCGCUUCUCUAGAAUUGUGAUCCGGAACGAGAACUGGCUUAUUACCCUCACGUAUACG'
p574
aS'AUAGCACCUACAGGCGGUUAGCUCACGUAUAAUCCUGCUGGGGCACGAUUGUCGGAUCCACAAGCCCUUGAGUGAAUAGCGACUGAAGAUCGUUACACGG'
p575
aS'CAAACCCGCAGUCGUGUAGUGGCGAUUCCCUGGAGAAAAAUCACACCGCCGUCGAACCUAAGCACUCUUCGCCCUUGGUGGAAACGCACUGCUGGUAACC'
p576
aS'ACAUCGAAACGGAAGGGAACUCUGAGAACGAAACUAGAUCAACUGAUACCCUUGCUCAAUUUAGGAAUACCUCCAAAUUAAAAAGAGCGGUUGUCGAAGC'
p577
aS'CCUGAGGUAAGCCUUACAAUCAAUUCGGACUCUUUUAAAGCACAGGCUCUGGAUAGAAUUCUGCGAGAAGGCUAGUAAAGCCACUCUAAAUCUUUUGUCC'
p578
aS'AUCUGAAAUAGAGUACAGGUGUGGAUGUACAAGGAUCGAUCUUCUCAAGCGGCAUGGUCUUAGUGAGCGUCCCUCCCCGAUCUAUGUCGCGCGAAUGCGG'
p579
aS'UAGGUGGCUCACUCCCUAAGUAGUCCUCGCCCAUGAUGAAAAGGAGCAAUUACCAAGGUUUUGCUAGUGAAGGUUCAAUUCUCAGCCAACUACGCCAAUA'
p580
aS'UCUCGAGCGGCGGCAGUUAAGUUAACGGUUCGCUGCGAAAGACUACUCCAAUAAGCGCCUAAGAGCCACUGUCGAUAUCUCUGACUUGAAGCUAUGCAUU'
p581
aS'ACAUCUCGCAAGUUGUGGCGACCGCAUGGUCACACUGUAUGUUGGUCUCAGCACAGGUUAGUUAGGCUUUACACAGCCAGGACGUAUGCUGCAACACUUU'
p582
aS'UUCGGGGAUGUCAUUAAGUACCCGGCCACUGCAAGGUCACAAGUCUAGACUCUUGUCUAGUAUCCUGGGUUCACUUUCCACGGCCGCCUGGGCGAACUUA'
p583
aS'CAGCAGCUAUACGCUAUGUUAUCCGUCCCAUUUAGGCGGUCCUAUCCCCACCCUUCGGGGACUCUAGGUAGGAACUACCUAAAGAUAUAGGCCAAGACCG'
p584
aS'AACACUACGCUUACCGCAACUUCUUCCAAGAUACGAAUUCGAACAAGGACUAUGAUCGAUGGUCUCUGAAACUGACGCAGUGCCUUUGUCUGUCCGACUA'
p585
aS'CGUGUUAAUAAUCAAUACUUGUUUAGCAGGAGAGCGGCUCACAGGUUACCAGGACUAGCAGUGGGAGAGUGGGCCGAUCAAGCCCUCCUUCCUAGGACUC'
p586
aS'CUUUCUCUAUUUAUAUAAGUGCAGACCGUUCCUGAAUACUCCAAGCUCUCGCGUUUCGCAUAAUACGGGUCACUUGGUUGAUUGGCUUACGGUAAAUUGG'
p587
aS'GCUAAGACCCAACUCGAAUCUUGCUCCAGUAGAUAACAAGGUCUUCGUGAGUCGAUCCGCGUUCCAACUAUAGGAUUAAUGCAUCUCUCGUCGCUGAAUC'
p588
aS'UGUCUUCGUUUCAGCUUGCGGCAAUACGCAGAUCGCCAAUAGCAUGACUUCGAACACUACAUGGGCCGAAAUACCGAUGAACUCGUAAACCAACAUCCGA'
p589
aS'CGGGCUGGGCUUUAUGGCGUUUUUAGAUUAUUAAAUAAGUAGCACUUCCAAAAUGCCAACGGUUUGUAGUAAGCCGCGUGUGUACGAGCUCUGUAUCAAC'
p590
aS'CCCACAUUCGCAGACAAUCUGGAGCUUGAUAACCAAUAUGAUGAGUAGACAUGUAAUCAACUGCGCAGGCGGGUUGGCCCCUCUACGUAGUUCAUGUUAA'
p591
aS'UCUGGACGCUCAGUAUCAAAGAGGUUGGAGGGUGCCAAAUCAGCCCUCUAAGUGCGUCUAGAGCCCAGUUAUGAUACAGACUAGGGGUCUAUUCAGGCCG'
p592
aS'AACGACUCCUGAGUUAACUUCUGGAUAGCCCCACUCGCCCAUCAGAGUAGUAGAUACUAAGCCUACCACGUGAGUGGCUACGCUUUUUCACUACCUACGC'
p593
aS'AGCUGUGGUCUAUUGAUUGAACUUAGGUGAGCUCUAUUUCUGCCCCUGGAAAGCGAACUUUGGGAUUAUUGGUAUAUUUUACGACGGAGUACUCACGGGA'
p594
aS'GGACAGUACUGAACCCUUACGUAUGAUGCUGCUCGCCGAGGGCCGGAAUAAGAACAAUUAUCCGCACUGUCGCCAUGGAUAACGCGGGUUUAAAGGAAAC'
p595
aS'UGUCUAGCAUAAAAGCAAUGUCAAGUUCGCAUAAUCCCAGAAAUGACGCCUAAAUUCCCUGAACUGAGACCUGAAAAAUCGUGGGUCUCAUCUCCAUGAC'
p596
aS'CGUUCCAAUCCAUUGAAGAGACGAAUAGCUGUACCACCAACCUUCAGCGUGAAGUGUCCCGGGAGUGGGCCGCUGCCGCACGGUCUCAUGGACUGGCUGU'
p597
aS'UAUACCUAAGUUAGGAUCCACCCUGGCUUGGUGGGUGGUGAUGGUGACGGCUAUUGUUGUAACCCCCACCCUAGCAUGACUCAAGUAGCCCUUGAUCCCA'
p598
aS'AAAUGCUGCCGACUUUAACUCGCUAUAUACCGAAUCUCGUGGCAACGUCCGGUGUGACGACGAGCGCGACCUAUCAAUGAACCGAACAGAGACAUCGGUA'
p599
aS'GACGACGUGUGAGCUGCUUCCCCUCGGGACCUUUAAUCGCCAAUGGGUUGAAUGCGCCAAUACCGCGAAGUGCCGGCGUUCGGGUCCAUAUGGGGUAGUG'
p600
aS'ACCCGUUAUUGUGCCGACCAUCACAAGGUGGCCCGGAGUGGAUCCACUCCGGGGUUACGCUAGGGAAAGUCUCAUAUACAAACAAGAUGACGUAGGCGAA'
p601
aS'AUGCCCGGGAGAUUUAAAUCAAAACCUGUUUAUUAACGGGUGGGGGCACACCUUACAUCCUAAUUCGGCAGUGGGAGACCGAGUAACAUACCCGGAGUCC'
p602
aS'GGAUAUUAGUCGUACUACUACACUACACUAGAGUACGCCCUAUAUAGCAUCGUGUAGAAGUUCGACUGUCAAAGCUUUGUGGAGUCAGGCCGGUCACCUG'
p603
aS'UAUGGCGUUGCAACGCUGCAUCUUAGUAAUGACCUGUGAGAGCACCUACCAAUAAGUCUGUGACUACUCAGGGGCCGUCACGAGUCUGAAGCCUCACUGU'
p604
aS'AGCAUGUCCUUCCGAUACAAGUGUCAUCUCUGACCGUCUGGUUUGGGUGUCAAUAGCGCUGCAUCUUUCCUACUAUAGUAAACCAAAAGACACUCACCUU'
p605
aS'UUCCCUCUAGGCGGUUCGAAAGAUCGUGAACUCAAUAUCCUCAGCUUACCACCUCACGACGACAGGAACUGUUUCUAAUAGUGGACUAGGCUGACAUUAU'
p606
aS'CAAAGGCUCAGCCUGCUGACAUGUAACUUCAUCCACGACCUAUCUAUUUCCAUUCAGAAAGUCGAUAGGUCCACCAUUACAAUCGCGUACAGUUCUAAAA'
p607
aS'AGACUAUUGAAGGAUGCAAUGGUCUUUAUAGUGACGUAAUCCCCGCUGACCCGCAAGGCGAUUCGAAGCAAGUAUCUGGGUAAUACCCUAACGUCUUCUA'
p608
aS'UGAGUAUGACGGUUACUGGGCACGGAUCACGUUAGUUCGUGCGCGGGCCCCAUCCAUAAUCUUGGGCCGAACCGGCCUGCGUCCACCUGUCUCUGGAGCC'
p609
aS'AAAUAGGUGAUGUUAAGCCACAUGCAAAGGCGCAAGUCUACAUUUUGCUCCCCGGGUUUUGCGCAAUGGCAACGAUAAAGUGAACCAAGCUGCAGGGAAC'
p610
aS'AACGGUUAUGGAACAUACGCACUUCGCAGAACCGUGGCCCUCCACGGGUAUAUCGACGAGUACAGAUCACGCGCUCUGUUGUCUGACACUACUCUCUCUG'
p611
aS'CCCUAGUGUGCCCUCCAGCGGCGAAAGAGUUUACACUUGUAAAUAGGCAAUGUACCUGCUAGCUUAGACACCAGGAAAGUAAGCAGCCCGAUGACCAAAC'
p612
aS'AUCUUUACGUUCGAGGGAUAUUCGGAGGAUAAGGACUAGCUCCGAGUUCUUUAGCGAGUAGUCCGAACGCUUUGUUAUCACAUGCCAGAGAUAGCCUCUA'
p613
aS'ACGAGUCGAAAUGGAGCUCCUUCACAAACGUCCUCUGGGGCCAACACCUGACUGCGGGUGUAAAUAUAAUCUAUCAGACGGAUAUCUGCCAAUUAUCUAA'
p614
aS'AUUAGGGAUGAGCGAGAUCGCUUAAAACUGACGUGGGCGCCUUCUUGAAUGCAUUCGUCUGACGCAGUAAGGUAGUUGCCCGUCUUUUAAAAUGCUGCAA'
p615
aS'UGAGCACUACGGCCACAUGGGUCCGGGCUUCUACGUAAAUACUUCCUUGCAAGCCACUUUAACGGUAAGUGACCAAGGGAAUUCUCUCGGCCUCCUUGCC'
p616
aS'UUGCUUCACAAGGGGCCUUGAGACUCGAUUUGCUGCUUUGGAUGCUUUUUACGCAGGUACCUCGCGGAUUUUAUUACAUGAUUGCUCAAACAUCUCAGGG'
p617
aS'GAUAAACUCCAAUUCGAGUUCUAUGAGCCUAGGUUAUUGCGUGGGUAGCCUAAUAGCCAAAGAGAGAGGGGGUUCCAUGCCUGCGCUAAACAUCACGUAG'
p618
aS'UACCCAGCCUAUUCGCUAUAGAUCAAAUGCCGUAGCGUUGCCCCUCACUCGCUCGGCCACUCUUUCUUCGAUGACGCAUAUUCGAACCCGCAGUCCCAAU'
p619
aS'ACGUUUAAACGAUGUUUCCUUUAAAUCUAGAGGGGUGAAUUUAAUACCGCGCUCUGGAGUGUCGGUCGGGUUCAUUGGUAGAACCGGAGCUGUGCACGAA'
p620
aS'GGGGCCAUUAGAUCGCCCUGCAUCUUCCGAGUACAUUUCGCAACAUUGUUACCCUACCCACAUGCCUCCGAACUUCGCGGUAUGGAGUAAUCGGACCGGG'
p621
aS'GGCACAAAUGUACAGCGAACACGCCUAUCGUCUAACUCCGAGAUUGUCCGUGGUCGGAUUAUCGUAGCAACAAAGGAGCGAGGACCUUAAGCCGUGUUUG'
p622
aS'UGUAAGCCUUCCGAAUUUGUACUCCGCGGGCGGAAGGGGACUGAUACGGUCGACGGAGUUGUCACGUCUAGGCAGGUGGAGGUUUGGUCCCGGUAACUGA'
p623
aS'UCGGCAUCCCAGAUGCGGAGACUGCAAUUCGCGUAGCAACGAAAGCGCUUUUAGUCUGAGUCAGCCUGGUUAUGGUGAUGAGUGACUCAACUAGUUUCCU'
p624
aS'CGUCUCGCCUGAAUGAGCUGGGCAGUACCUUUCCAUUCUCUACUGAAUUGACAGAUUCGUCGCCCGUGGUUUAGUGACGGAUGCUGGUUGGGCCAGCUAU'
p625
aS'GCCACGGAGUUUGAUGGAGGGCUGCUCAUCAUCAAGGGAUUGUUAGUGAGACCGAGCCAUCCCAAUUCGCCGGUCGCCCACCCUUAGCAAACUAAUGUGU'
p626
aS'CCAACAGAGGUUUACAUGCAAAGACUCGGAUCCUCAGGCUCUUCUGGGUUAGCUGACCCAGGGCUAAAAUUCCGCAUGGAGGCCCACUAAGGCAUGUCCU'
p627
aS'ACCAUUGAGCGAAGACCAUUUCAAUCAGCAAUUCAAUGCCCAGGAUGUCACAUGUUGUGCAUAUUGCAAGUCCCUCAAUUCGAGCGGGGUUUAAGGUUCG'
p628
aS'CAAAUUACAACAUGCAGGGGAAUACGACUGGGAGUCUGGAACACCUUACUGAUAGGGGCCACGCCGUUCAGCUUGCGGGAUAACAAACGUUUCUCCUAUU'
p629
aS'UCGCUCGAUAUUAAUCCAACUGAUGAAAUUAUAAAGUAAGCACACACAGGAUUCUGAGUCAAUUAAGUAGGAGGUUAGAGUGCAAUACUACUUAUAACGA'
p630
aS'ACAUCUCUCCAGGUUUUGCAUGGGGGCAUGGGUGUGCACUGGGAGAGCAUGAAUAAACCAACGACUAAGGGCAGAGGCCGCACUGAUAGCUGGGUACACU'
p631
aS'UAGAUACCGUAUGCCUGCGCUGGACGAUUUACUCAGGACUAGUAUGGAGCUCACUGCAACGCGGUUGUCCAUUUCAGUCGAUCUAAUGACUCGCCAGAAC'
p632
aS'AUCGCCGCCCGUUCGGACAGCGUGAUGAAACGGGGUCUAGGCGCCAAGUGUAUAGCCGCUACCACGCCGUGGCUAGUACGGCGAGCUAGAGGAUUAGAGC'
p633
aS'UUGUACUUUACUUUAAAGACAACAUCCCCACGAUCGCCCGAGAUAAGAGAGCUAAGAUAUAAUAUGUAGUCGCAAUGUGUCGGCUUUAGCGGACAGUCAA'
p634
aS'ACUCAUUUCAAAAAUUGUGCUUUUCAGAUAGAGGGCAUGACGGAUACAGGAAUAUCCUAGUGCUUCACAUAGAUCAAAAGAGCCUUCUAAUUUCUUACUU'
p635
aS'UAGGAUAGUCUAUGUCCACGUAGGUUUCCCCGGUGUAGAUUGCAUAGUUAGUAACGUCGGACGACGGCGGCGAUGACGUUAAUGAGACAUUGUCAAGCCU'
p636
aS'CGCGUCGUCAACUACCCUGCUGAAAGCACGCUACUAGCAUCCGGGUUUCGUUUUCAGCGUACACCUGUCUUGCCUAUUCAUGUCUCAGGCAUGGCGGUCU'
p637
aS'UAGGGGUUCCAACCUCCGCGUAGCUGCGAUUGAUUCAGGGCAGGGGCGUUCCGUUGUGAGUCAACAUAUGGCCGCCGCACCACGGCACAUGUCCAUCCGU'
p638
aS'GUACUCAUACGCUAGACUAGCCUUACUUAAAUUAACGGGGUUACAGGUCCUAAUACCACAGCCCGCGCACUCCCUAUCGGCACAGGACCAAUGAUAUAAU'
p639
aS'CGAACGUACGUUAAAAGUAACAGCGCUUCGUUACAGGAUUUUAGGCAGAAGUCCCAGACCAGGCACAGCGGCGUGUAGGCUUACAAUUACGUCAGCUACC'
p640
aS'UAUUCGAUCACUUAGGUGGAGUGCAUCUAGGCGGACGCGAGCCUAACCCGGCAACGUAGCUGCCCUCCAUCGGGGGAACGGGGAGGUCACUGAAAAGGAU'
p641
aS'CACGGAGUCUGGCAAUUUAGAGUUCCAAGUAGUAUAGGCGGGUUGUACCAAAGAGCCUUCUAGGGACUAGUUUCCUACGAAACGAACAUACCAGUGGAUU'
p642
aS'CCGCUUUUAUAUCGGUUCCCAUGCUAAAGUUCCUAAGCCCCUCACGCUUUAGUCAGUACACACGACGAGGGUUCAACGUCUGAUGUGCUGAAUUGGCCGG'
p643
aS'ACCAAGGAGAAAAGGACUGCUAUUAUACAAAAACAGGGAGUGAUAAGAAUCAAAAAAUAACUACCAUUGUCGCCUGGGCCGAUCCCUCAAGACGACCUCC'
p644
aS'GGCGGUUGCGAAGGACUUGACUGUCAGCUGCCAGCGACUUAAUGCUGCUACUCUUAUGCGAUGAUGACUUUGGGCCAUCUAAUUACCGACAGUAGGCCGU'
p645
aS'CAAACCGCAGUUCCAAAGUGAGGUGUCCCGUGGGCCGAGUCAGCAUGCCGGACCUGUAUAACGCCAUGCACCAUGGAAUGCCAUGCAUUCUGCCUGAGUC'
p646
aS'ACCCACCUUCGCUAAUGUUCGUAGGAGUCUCCAGCGGACCUAUGGUAAAGACGAUGCUGGUAGCCUCCUUUAUGACAAUAGUACCCGAGCGCGGAGCCCA'
p647
aS'AAGGACGCGAAGAAUAAUUUACGGCUGUCAGCUAGGUAGCGAGUUGCCAGAUUGACACGCGUACAUGAGUGCUUACGUUCACGAUCGACGCCGCUUACUG'
p648
aS'UCCACAUGGCUUAGUUUGCUAGCACUACUAGGGUCGCAGUUGGGUUGAAUUUAAAAAGCUACAAAAUUCUGCAGAGAGGGGCACCAUUCGCCAGUGGACG'
p649
aS'CAAUCUACUGGCGCCUCAGGAUAUAACUUCCCCGGAAUAAGGUACAAUUGGCUAUCUUAUGUACGCUAGCUUUUGAACAUCCUCUUUAACCUACUGACAU'
p650
aS'GACCAUGACCGCACUACUCCUUAGGUGUCCCGUGACUUGAGUAAGUCAGAAAUACGUGCCUGGGCGGCUGUUCCACCAAGGACACUCCCUGUGGUAUGAA'
p651
aS'UCGCUACGACACAACCCUAAUCGACAUCAAUUGUAGAUCGGGCUCUUCAUACAGUGGAUUAAUGCAAUUAGGAGAGAGUCCACACUUCCUGCGCGUUAGA'
p652
aS'UCUGCGAUGCGGCGUUUUUGUCGCCGUAGGUUAGGGUCUAGGAAUCAGUUCGAGUGCCCCCGACACGGAUUGUCGCUCGUGAUUUAUUGUAAGCGUAGGG'
p653
aS'GAUGUCGUCCUCUUUGCAACUCCUGGCGUUGAAAGGUUAGUAAUGGAAGCAUCGUGUUUAUUCCGUCAUUCCGGGACACCGUCUGGACCCCUCAGUCACG'
p654
aS'AUUUAUGGCUCCUUAUCCCUCCCGAUAGGCAGAGUCUUAUCCUGCAGAAACUUUUCUGGGGCGUAGCGCAGAAAAGUUUUUUCACUAACGAGAACGCUGU'
p655
aS'AUGCAUAUACCGACUUACUCUGGAGGUGAAUGCGCUUCAGUACAUUGGGUAACAGUGAUAAAUCCAUACCCUACAAUGGCAGUCGUAGAUCGAAUGGCUG'
p656
aS'AAAUAUAGACGGAGCGCCUAGCAGCGCAGCCUGCCGCUUCGUAAUCUGAUAAGGGAACCCCCCGGAGGCAGGAGAUGUCGAAUAGGCUUACGCGUAAAGU'
p657
aS'AGACUAUCACAUGCACUGUAGUCCCGUUACAUAUGACUCGCAUUCGCAGGAGGAGUAUUCUUCGGUCUAUCUUGACGUCCGUAGUAGCACCUGUUUUGCC'
p658
aS'GAUCCCUUUAUGGAUUCUCCGAUUAUGUUUCCAAGCAUCGGCGCUCGGCAGGAGUAGGAUAGAGGUAUCAAGAUCACUAGCUUCCAUGGGAGCUUGAUCC'
p659
aS'GCUUAAGUACCACGAAACGCCUACCCCGCGACUGAGGAGUAAGGGAGGAUACCUGCACUCCCAUCUUUGUGCCGAAGUGACAUACCGCCGGGGUUCCCCG'
p660
aS'GGCGUGUGACGCUGCUGGCGUGGUGAAGUGCAUGCUUCUGAAGCUCAAUUAAUUCUGUCGAUGCGACUUCUGGUUAAUGCACGCCCAAGUCCGGUAAUAC'
p661
aS'CCCCUGUGCCGUGGCGCGAAGAUGCCGCACCACCAUAUCAGACGGCUGCCUAACGUGACAAACCUCAAGUUCGCCAGGCCCUACUGGAACACGAACAUCU'
p662
aS'UUCCAAGUGUUUACCCGGCGGCGUCUCGGCAUCUGGGCGAAAACUUAGUCCCGCUUCCUAGGAGGGUUUCUGCAUGGAACUUAAGAUCAGGGUAUGGCUA'
p663
aS'UCAUUGGCGCGGCAUACUCUACCAGAAAACCUCCUCCCGGGGAUCAGCGGAUGUCCCUUCAGAUUGUGAUCCGCCGUAAGCUUAGCCAGAAGGUGUACAU'
p664
aS'GAUAGCCUACAUCCUGACUGGUGUCUACGGCGAUGUACCCGGGACGUAGAGGGUCCGACGUCCCCCUAGCACCUUCUGUCGAAGCCGAUGCAUGGCGGGC'
p665
aS'AUUCUGCAGGCGUGGUGCGGUUAAGAAGCGGUAAGAUAAUAAGAUUGUUACUUGCUUACUUUAGGUUGGAUCUAGCCGCCACUGAAUCCACUCUAAAGAA'
p666
aS'CAGUCUCCUUUCGGUAAGGCCUUUUCAAGAGUCCGCCCCCCCUUAGAGGUUAAUAUAGCAGGCGUGGCGCUACGUGCUUUUCAGCUAGCACGGAAUUGUG'
p667
aS'CCCUCGGGUCCUGACAGGCUUUCUACCAUCGUGAUCGAUUCAUUUCUUUGCAGCUAUGCAAGGUAACAUUGCUUCUCGACAAGUAUAGGAGCCAUUGUGU'
p668
aS'CCGGACUGGAUUAGUCAAGAAGACGGUUAGUCAACCCGUCUAACAAGCGCAUCAAGGAGGACGGAACGAUGCUAAGCCGGUACCAAAUACGUCCUGAUUG'
p669
aS'AUUUCCCGAGCAAGGACAUCGCAUUCAGCUUAACCGUCGAAUGUGACAGAUUGCACCGAGUGCUUGAUGCCUGGUAGGGGGUACCCGGCGGUCCUUAUGC'
p670
aS'GUACACGGCAGCCCUUUUUGAUUCCCAGCCCUAUGUGCCGACUCAACCUGACUACAAUAUAUUCACGACGCACACGUAGUGCUUAGAGUCUAAAUCAAAA'
p671
aS'UCUAUGAACUGAACGGCGGCCCAUGGAGCCGAGUACAAUCACCUGUAACAUGUUGGAUACCCGGAAAGGCGGGGCGCUCGUCUCCCACUCGCGCCGGAUG'
p672
aS'AAUACAAUGCCCACAUGGCACGUAGCACUCCUGUCUGCAAAAACAAUGUAAUGCGCGCUACAGCUGAACUAGAUGGAGGAUGUCCAUCUGGUCAUGAUCC'
p673
aS'AGUUGGUUGUUUCGACACUAAGCUGCAUGGUAGCCCGGCUGUCACAUGGACUUUGAUGUGAACGCUAACAUCGACUUGCAACAUUCCCGAGUCCCGCACA'
p674
aS'UGUACCUGAACCGACCGAUUGUCAUCAACCCACGAUUUUACAUAGGUCAAUCUUUGGGCGAUAAGCGACGAUAUAUCAUUACCUCACGGGUUUGUCCACU'
p675
aS'ACGCGCUUGUUACUCAGUUCCUGUGGUGUUUUAAUGAAAACAAAAGCUCGGCAUACGUAAAUCCAAAUAAUCGGCGGAGCAGUAGCAUUUGGCUAGGAUU'
p676
aS'GGCGCACCACGCCGUAUGCUCCACAAAUUGGCACCCUCUCUUCGCGAACCCGGGUCCGUACUGCGCCCUGACGAUCUACAAGCCCGGUUCACUAACACCG'
p677
aS'CAGUCGCGAGGAUUUACGAGAAGAGUAAAAGCGGGGAUGAUUUUGGCUCCGGUCCGAGCACCGUUAUCCGUGCAGAGCACUCUUCCGUGCUCAAGUAGAC'
p678
aS'AGGUCCAGUCAAGAUUUGGUUCCGGGGGAAACUCGUUCGCUUACUGAGUGCCCUCGUAGGAGGUGGACAGAUUAACUCUCUAGAUUCCGUUCGUUUUCUU'
p679
aS'AAUUACAACGCCGGCAAACGAAGUGUGCUCAUCCCGCCUGAGACGGUAUUCCUCCAUCGUAGUUCUUGAACAGAGGGCCCCCGUUUGAUCCCCCUAGUUC'
p680
aS'AACGAAGCAAACCGGUUCGAAUGGCGGAUGAUCGGAAGAACGAGCAUACACAUUAGUCCGCACACACUUAAUGUUCUCCUCACCUUCCUCCGAUUACAGG'
p681
aS'GUAUGGAGGAGUAGUUCUAGUCAAGUGCUGCUGUCGUAACUCAAGCGCUCUUGAUUCCCAACUAACUAACCCCUGUUGACGAUCACAAGUUCUGCUGCAC'
p682
aS'ACAUAUCCGAUAGGACUGCGACUUUUUGAACGGCGUAGGUCUGUUCGUAUCACAAAGUGCACUACGGCUUACUCCUACACCAUACAGGGUUGUGGUGACA'
p683
aS'CAAAAAUGAUUAUGACCCGUGGUGUUCUUGUGACUCUUCAGAACCAGAGUUAUUCUGCACCGACGGCUUACCAGAACAUUUCUCUAUCUCAUACCUCGAA'
p684
aS'UUACGAAGUCACAACAUAGGUUUAUAUUGCGACCCACUUCGGACUUCGCCUGAAUUAUUGGUAUACUGAGCUGGGCUUGACCUACGUGAAAUCUAGCAGG'
p685
aS'UGCCGUCGCAGUCCUUAUGUUCGCGGUUGCCGCGUUGGCCUUACAUCCUCGGAGCAAUUGACCACCUGGGGGACAUCUCAGGAUAAGGUUCGUUCUGAAG'
p686
aS'UCUUUAUGUCGUAGAACUUUCAUCCACGUCAGUUUUAUAGCAUCUUGGCGCCGUAACAUAUGAUCAACAAUCACUGGACAGCAGACGGAGCCGGUAUACU'
p687
aS'UAGUACCCCCUCUGCGGACGCCCCUACAUUUGAACCUAUGCGCUAGCGACAUUCUUAGUCAAGGAGUCCAAUCGCUUCCGAUAGAUCAAUGUCGUCCAAA'
p688
aS'CGUUUAAUAUCUAGACGUUUCAGGUUCGCUGGCCCUUUCCGCGAGGCUGCUCAUCUCCUUCCACUCGGAUACGGCUAUAUGCCUCGGGGGAACUUUGUAA'
p689
aS'AACUUCUUCGAUAUCCCACUGGCCCCAUACUGCACGUUAGUAUGGUAGGACGGCAAUCGAAUCUCCGCGGAUCGAUGAAACCAAAGGGAUGAGUGAGCAC'
p690
aS'UCCCUAACCUUCUGCCAAAUGAGAACCCUAGGAUAUGCGGGGGAACACUGGCUGACGUGCGUUUAAUCGUGAAUGCCUUUGUGCCUAGAGUGGUAUUGGU'
p691
aS'ACUAGAUGAAUAAUCGCGGCGGUCGUACUCGGGCAAGUCGAACUGGGCUCAGGGACAGAACCCCUUUAGCCGUCUCGACAUUUGUUCACAAUCGGUGAAA'
p692
aS'GUCCAGAUGAAAUAAAACGCGGAGGCGCUGUCGUAAAAUCCUUGGGGACAUCCUCAAUACAAGAAUAGGUUUUUUCGGAUGGGCGGACGUGUGAGCACAC'
p693
aS'AUUCUAUCGGCGUGACCUGUAGCUAUAAAUGUUGGCUUUACCGCCAUUAUCCGUAUGCGCCCUGGGUUGGGGUGGAGCGGGGUCCCACACGCCUUUAAGC'
p694
aS'UCUCUUUUGACCAGCGCAAGUCAGGUUUACGAAACAGCCCCCAUUAGGUAUCCCGCCCCGCUCAGGAGAAUCAAUAAAAAAUUCCCUGUCAUUCAUUUUC'
p695
aS'AUUUGGAUCACAGUACGGAUAACGCGGAGAAUGCAUUUGGAAUUACUGUUGCAUCCUAUUAGUUUGGCCGCACGUGUACCCCGCCUGAUUCGAAAUCGCG'
p696
aS'GAGGAGAGACGAGAUUGCUUGUUGGUGCGAGUACUUACUAUUUACUACGGAUCGUUAUAGAAGGGUGUGUAAAGAUCCCCGAUCCAUAUCCUGAUGUGGA'
p697
aS'CGAAUGUUGAGACCAAGACCUCCAGGGCCAUGGUCCUCAGUCUGCGUGGAUUUGACAGCAUGUUUACGUAAUUCUUGUUUUUCUCUACGUGAUUGGUUGA'
p698
aS'UGUGGUACAAACCAUAAAAUGUAAAAGUGAUAGUUCAUAAGACGGCUUUAGAGUUGAGCGCUGCCGGAUCUGUUUAGGCACUCGAAGAGCAAAGGGACUU'
p699
aS'CCGGGGAGGCAUACACCCGACGAGCGUCAUUAACGUCUAGCCCUGUCGCGAAUGUCCCGGUAACGGGCGGGGUAUGAGUGCAGAGAUGGUGCUAGCUACA'
p700
aS'UUCGCGAGAAGCGAGGUAUCCUUGUUAUGUUUCAGGGUACUCGCGUACAGGCACACGCCCCUGGAUAGACAAUCUUGAGCUCAAAGUGGCACCAAGACGA'
p701
aS'GAAUCGUCAUCCGGCGGUCGUGAGCCCCUAGCUCUCUGGGAUCCAGCGGUAUGAGUCCACGCGCGGCCGGUGUGCUUCAGCGGCGCACUUCCUAUGUAAC'
p702
aS'GGCUAGCCUAAUGAGGAGUGACCUUCCAGUAGGAUGCCGACGUAGGGUCGUUAUCCAGCGGGAGGGUAAUAAGACCAACAAAGGCAGUUCAGCUCGACGU'
p703
aS'GGAAGUACAUUAGAAAUCAGGAACCCUGCUCACUGCGGCAACACCAAAAUAGUACCCAGAACACCAGCACCACCUCGAUUUCCUUGUACGUCAUCGGCAA'
p704
aS'UAAAAUUUAAAAGUUGAGAACCCGAAGAACCUUAAGACUCUCGUUGUUUGCCAGCGCACACUCUGGGGUACGGAUCCAAAAAGGCUCUUCGUCCUGGGCU'
p705
aS'GGUGCUGCUCUCCAGCUUCGAUGCGCGGGUGUUAACCUCCAACGAUAGAACUUGAGCUGAUAAGAUUAGGGAUUAGUGACUCUCAAAACCUGAUGUAUUG'
p706
aS'GAGGACCCUUGUUCUAUCAUUCAACGUUUUUGUCGUGUUCCGACAUGCUGUGAAAUGCAACAGACCACAGCGCUUCUAAUAGUCGUGCGGCUUCGCAAUG'
p707
aS'UUGUAUGCUGAGUUGGCUCUCUCUGUCAUCUAGACUACAUCGCGCUAUAAAAGGGCUAAUGGUACCCGCACCGGGCCAACUUCUGUUACACAUAUUCGCA'
p708
aS'UAGGAACGCUAACAAGGAAUCACCACAGGCCGGGCCAGCGAGUCAUGGCGUGCGUCUAGUGAAAUUUCUACGUACAAUUUUAAGAGGAUAAUAUUUUAAU'
p709
aS'CUAUAGUGAUAAGGCUGAGUGGUUAUAAAGUUGUGAGUCUUCCAGGCACUCUUGAGCCUCUGACAUGCGGCCGCUGGAAGUCAUAAGUUGAAGCAGUAUU'
p710
aS'UUGAGGUUAGCCUGACAAAUUUAAAUGAUACCGAAUGGCAUUGAAUUCCGCUAUGGGAGGCUUCAAAAAUCCGGACACAACUCUCAACCUAGGUAGCACU'
p711
aS'UUGGUAAACUGCCUGAUGGAUAUAGUAGUCAAUUAAAGUCUCUCACUCAGCAAGGAACAGCACGAUUUUAACAGUGUAAACUGCAAUGGGCGGGGGAAGG'
p712
aS'UUGAAAUAAGGCGACUUAUAUGUUUACGUUCGUCUAUUAAGUAUCUCCGGAAAUCCCGGAGCCAAUGACGAAACCCUUGGCGGGUCCGGCCUCUCCGGUC'
p713
aS'CGGGGUGGUGUACCCGUAUGGGACGCGGGCACCCUGUUGCUCGCCAAUCUUGGUCCUGACAUUAGGAACUAUUCGAUAAUAAAGCAGUGUCAGCACUGGA'
p714
aS'GUUGCAGAUGCCGGGAUUCCAUUGGGGCCCUCUAGAUCUUCCAAAUAAUUUCGGCUCCAUGGCGCCGUCAUCCCGGGCUACAAUAACCCCACGGUGUUCA'
p715
aS'CUAACCAAUGGGUGGGCGUUCUUAAUCCUUUCGAACACUCGAACCUUAAAAUCAUCAUAGAUCCCAUAAUGAAUAUUUGAAGAAACCAGGCGUGUUGAGC'
p716
aS'ACGGAGUCACUCUGCGAAUUGAUGUGUGGUCACGGGGUGUUCCUCAUUCGCGAGCUGCAUGGAUGCUCGUCCGUCUAAUUGUCACUUGCACGACUUAUGG'
p717
aS'UAACCAGACGGAGUACCACUCAAGAGAGCGGCGAUUUAGGAUAGAGCUGACUCUUCGUGUUCGAAUGGCGGGAAACGAGUGUGGUAAGCUAUUUCAUCAA'
p718
aS'AGUGGCAUUUGUAUAAGCCGACACUCACCCUUGAGGUGGGUGGACUGAUUGAAGUGCGGCGGCAACAUCCCUUAAUUACAUUUAGGCCGGAAAGGGAAUU'
p719
aS'UUGAUGUACAAAAAAAAGGUAGUACUACAAAUGAUCCGGCGUGUUUCGCAUGUCCUUUCUGGGGCCAAUACCUGGCAAGGGGGAACUUACCGACUGCUGA'
p720
aS'AAAGUUACAAAGAUGGCAUAAAUGAUUGCAAUGCGCUCCAGAAAUGGCUCAUAAAUAACCAAGCUUGGUCCUUUGAUGAAGCUCUUUCCAUCGGUAAAUC'
p721
aS'GCAUGAUCUUUUGUUACGUCCGAGAAGGUCCGACGCUUGUACCAAUCAGCACUCGCGGGGAGCAUCCCCUUACGCAAGCUAGGUAAAGUCAGCGCUAGUA'
p722
aS'AAAAGCCAGCCCCGAUCAACAUAGAUUCCACUGCGACAGCAACGACGGUUUGUGAUUGCACCACAUAGUAGGCGUAUCCGGUAUACAGCACCCGGGUUUA'
p723
aS'UUAACCACAUCAUUCGUCCUGGCGCCCGCUGCUCAGCGCGCCAUGGCCUGGACAUGCAAGGUGCCCCGUCCACUGGGUCCGACGUAUGUGCACAUAUCAG'
p724
aS'GCAAGUAAGCUAAACCCCUUGCUCCUCCUCUCGAGUCGUUGGCGCUAGGGUCGCUCCGCUACCAACUGGUACGACCUCCGCACUUAGAGCCUAGUUGAGG'
p725
aS'GAUCAUGUUGUUUAUACCCCUAAUAAAAAACACUUUCGCGGCAGGGACUAAAGCAAUAUAGCGGGCGAAGGAAGUUCAAGCGCUCACGCAUUCGAUAUGA'
p726
aS'ACAAGCUGUUUUACCAUCUGCCCUCAAUCUCCUUCCAUCAAAGCACAUAGUGGGCACAACUGGUCUUUGUGCACAGAUGCUGAUCUCUAUCCCCAGUAGU'
p727
aS'AUCGCGAAACACUAGAUCCGGCCGUUCUUUACUGCGUAGGGGAUCCUAACCACCGCAAUAUUCCUGGCCGAUCGACCUACCUCUAAUGUCAGAACUCAGA'
p728
aS'UUAAGAAUCUUGGUCAAUAAAAUAUCUCCGGAACCAACCUAUGGACCAGAACUCUGCGCAGAACAGUCGCUCCUUCAGAUGAGAGGACAGCCUCAGGGUG'
p729
aS'AUUGGGGAGUAUUCCGUUACAUAUUAUUGUAAGUUGCAGUGAAAAACCUGAACAGACUCUUGUCUGGGCUGAGCUCAUCCGUGGACCAUAGCUCAUUUGU'
p730
aS'AAGACAUAAUAUCUGGGGAACAGGUAUCUGACGCAUGCUCGCGAACUGUGCCGAUCUGGGAGAGCGGAUGUACGAAAGGCAAGACUUCCCUUUCGAGAUC'
p731
aS'GAGCCGCUCCUUAAUGCCAUCCUGCAUUCUAACCCCCUGGUAACUAAACACGCUGGAGAUUACCAAGCUCCCGACGUGGUGGAGAGCUACAUACUCCUAG'
p732
aS'GUUGGCACACUUAAGGGAUUAGGGUGAUUACAUGACAUUCGCUCCCGGCCACUAGGAGUUGACCACCGGUUUAUCUUAUCCACGUUGCUUAUCACCAAUU'
p733
aS'GUUGACGUCGUGAACGGUGGUAGUACGAUGCCGGACGGAUAGUCAGGUGCAAAUCCCAAAACGUAGGUUUGUAACGGGACCGGCACGGACCGUGUAUGUU'
p734
aS'GGGGUACAAACCCAAACAGGUACCGUUGGUAUGGGCGGUAUUAGAACAAGCUGAUUUCUUCAGGACUACGCGUCUGUAUGACCGGUGAAAGCGGGCAAAG'
p735
aS'GGUGUGACGGACUAUCAGGAUACAACAGGAUUUGAAGUCGCUGCGUAUAAAGGCUUGCCGGGGUUGCACCAUAGAGCGUCGACAAAGAGGCCCUUUUAUU'
p736
aS'CCUCUCAUCCGACAUUCCUUGUCUUCGUGAUGACUGCUGAACCAGCAGAAGAUCCUGGUGUAAGGACGUGGUAAGAACCCGCGCUCUGCUCGUAAAGCAA'
p737
aS'GGACAGACUCAUUCAGUAUAGAGGCAAAAGCUUCGAUCGGGAGGACGAAGAAAAACCCUUCAUAGAGACCGUAGAGCGGUCCACGCUUUCAAUAGCGCUC'
p738
aS'UAACCCCUAUUUCUUUAGAGCAAUCUUCGUAGCCCGGCCCAGCAAACAUAAGGGAAGGCAUCGGACCAUAAUGGAGCCGCAAAGCCAUGGCCAGAUUAGG'
p739
aS'AUAUAGCACACCGUUAUAACCUCAUGGACGACAACUACCACUCCGUCAUGGAAGAGCAUGGUGAUAAACGUGAUUAGCAUCAAGUGCUCGUAUGGGCUGU'
p740
aS'AACAUAGCAAUCGGCAUCGUCGUCAUUGUAAUGCAGUGGGAGUGAGACUCACCGAGCCACCGCGCCCCUAAAAUAGGCGAGGGAUCAUGUACUAGAAUCC'
p741
aS'AUGACGGCACGUCGCAUUCAGAGGCAUAAAGGUCCUUAAUGAUACUUUUCAAUAGCAAGCUAAGCGCAGCUGCUCCAGUUUGCUGACAAGAGUCACUCCA'
p742
aS'ACAUCACGCGCAGUGGUAAUCUUGGUUUCUGGACCCUGUACGUCUUCAUGAGGGUAGCCUCACAUCGAUACGUUGUACCAGCAGUCUGCUUAGUAGGAUG'
p743
aS'AUUUCAGCGCAAAGAUAGCAGGCCAAAGAGUCUCGAAAGGUUCCGAGCGGCGGGAACAUAGCUCAAGGGGUAGAACGGCAGGAGGAGGCCAUGGUUAGGA'
p744
aS'ACCGCAACUGCGCGGGCGUACUAACGUUCUCCGCCAUCGGAUCGGUCGUUAAGGGCGGCGGUACACGCUUAUUAGCGCACGAAGUGAGUUUUGAGUCGAC'
p745
aS'GCUAAACAUGUUCUGGUAACAUCCAUAUUGGACCCGCACAACGAUCCCUACUGCAGGAUAUUCAGCCGCAAGCCGGCGCGAUAAAUACGCAAACCUGGGU'
p746
aS'UUUGUUUAGUUUAUAGUCGUAGCAAUCGCGCCGAGAUUUCAUCUCUUCAUUGUAAGGGUGCAGAGGUCGGAAAAGCCACGUACGACAGGCUUAGUUCGUC'
p747
aS'UCCAUGCUUUUAUUGUCGUGGUAUAGAGGCGUACACCCAUUUGACCUGGUCAGAUAUAAAUGAGGUGGUCUAUGGAGAUAACCCUUCCAGGGCCAUAGAU'
p748
aS'CCUUGUUCGCGCGACUUUAUUAGGUCCAUCGCACAUUUUAUUCAUUGUAUGUAUGCUAAUUGCGUCUAAAUAGGCAGGGCCAACGCAAUUCGCUUUUAGA'
p749
aS'UCAGCUCUAGUAUUAAACAAUUGUACGCAACGAUACUCUCCGAUGGAUAUCGAACGUGGUCAGUUGCCCUGUGCCCCGUUAUGUUUCCAGACCUAGUCUG'
p750
aS'ACGAGAAGCAUCGAUUGGAAGCGAGCGUAAUGGGGUCUGGCAGCCACAAUCUAACCAAUUCACUAGAGUACAGUUAGGACAUGGACCGACCCGGGGCAAG'
p751
aS'GAAACAAUUCCACAAUAAAUACUUAUCGCUUCAUGACCAAGCAGCCUAUAGGGCGGCAACUGGUUCUUUCUUUGCGCCUGUUGAAUAUACGCAGUAAAAU'
p752
aS'CUGUGUGAUCUUACCACCUUUGUUUACACCGUGGUAUGAUAGUUGAACUUCUCGCGUGACGGCGACGUUCUUGAGCUAGUGAAGUUGCUAUGAAUAACUU'
p753
aS'CUUUUUAGGAAGCGCUUCUUGCUAGACGUGCAGGGCGAUCUCUCGCAUUCGGGGAAGGACGUGUAUCCCAAGAUGGACUGGGUAGGAGGCGAAAAGAUCA'
p754
aS'UAUGAAUCAAGAUGACCUGUAGCGUGAGAGAAAACCCUCAGACAUUGCGGCGCAACGUUAGUACGAGAGAUUCACUCAGUAGACUGCCCUGGUGCUGUGA'
p755
aS'AAGGUUAGCAAGAUCCCUAAGAUGAGUGGCUUGCACUCUUUGUGGAGCUUCCACCCAGGCACUGUCGGCAUCACCUCGCGUGAGUCGCUUCACGGUAAAC'
p756
aS'CAGUUUAUGAAUGUUACCUGGGUCUUGUGUUCCCCGGGGGCAUGUUGACACAUACAUGAAUACUCGUCGGCAGGCUAGGAGACUCACAGCUUCUCCAAUA'
p757
aS'GGUACUGGCUGUUAAUAACAGGAGCUUAAGUACGCGCGAGUUACAGUAACUUCCUAAUGUUAAUCUGCCCCGCCCUGCUAAGCAGGUGCUUACGCCCACU'
p758
aS'UGUCGAGUCGUGAUUACCGUUUCCUUUCUCAUGCGUGGCGAAGCGACGAAUUACAGAGUAGAAUCAUAUCAUGAAGUUCACCCGGGUAGUCGGCAGGUAA'
p759
aS'AGAUCCCGCAAGCCGUAUAUCGGUCAUCCGCUACUUACACUCGGAUUACCUGACCCCUCCCGUGUUUCUCGACAUCGAUCAGGUUGGGCAGUUCAAGAUC'
p760
aS'GAAACGAAGAAGGGUACGCUCUCGGGGUGGAGCCCAGACGGCCGAUAGAGUGCAUGCGGGAAUCAGGUUGAUUAGUUAACCUCAGCACUAAUCAACUUGC'
p761
aS'AGCUACUUCAAUAACAUCGCAUAUGAGCGAAAAGGAUGUUACACGGCUUACUAACCGCCCACCGCCGAGGCGUUCCACCUAAUUGAAUGGCCAGCCUCAU'
p762
aS'CGACGCAUAGUCCCCGGCCUACAUAGACCUUUCCGCUGAUAUUUCCAUGGCCUCCAGUAAGAGGACUCUCCCUGUAUGUAGCGUCAUCCCCCACGCCGCG'
p763
aS'AAGAACCAUAUGACUGAUCGAGACGUUAGGUCACUUCAGACCAGAUUCUUAGGGUGGAGGUUCCAUAUCACUGCUGCUUAAGGAAUCGGGGCGUCGAUCC'
p764
aS'UUCAUGAGUUCUACAGCAUCUUGGGCGUGCCCUUGGUACCCAAAGUAUUAAGAGCCAUUCAGGGUGUCACGCAGGCCAAUUUCCCCCUGCAUCAGCGCUA'
p765
aS'CAACUGUCUGGAAGCAUGAAUCUACGCUUACGUCCAUGAGACGGCCGGCGAUUACCGUCUAUCGCAACAGGACGAGCUGAUAGUCUAUCCUGUUGCAAUA'
p766
aS'UAUAAACGCCGUCAAGGAGUUGUAGCACCAUCAGACUUACUCGGAUGCUUAACGGUAGUGCGCGUUACACCUACCCUUUUCUGACCCUAUUCUAACUGAA'
p767
aS'UACAUGGUGAAGUGUGCACACUUGACUGAGAAUGUGCGCAGGUUACACUUCGUAACGAAGUAAAUGAGAUCGAGCUUGGUUCCAGCCUAAAAGAUAGGGC'
p768
aS'AUGAAACGUUCAGGUUAUUGAACAAAGGCUCUUUUAACGGUUUCCAUAACGGUUCUGUCCGAUCCAUGCCGAGUAGACUUCCCCCUCUCGGGGAGACAGC'
p769
aS'CGUCUCAGAGAGGCUGGAACCCACGGGCAUCCCAACUCAAACCAUGUCGAGGUAACUAUGGGCAGCUACGCAAUCUGGAGCAAGCACUAUUUAUGCCCAA'
p770
aS'GCUAGUAUAUCAACGUGCCAGUACACCGGGGUUAUCUCUUUCCCAGAUUAUAUGCCUCUUGAGCAUUUUUCACGCAGGUAUCAAGAAAUACUGGUUAAGU'
p771
aS'CUACUUCUUGUCUUGUAAAGAGCUUUAACAUGAGUUGGGUAAAUCGAUGGCAACCGUCCUCGAUCACAGGCCUCAGCACGCCGCUUCUUUGUGUAACUAG'
p772
aS'UUGCACAAGUCGCACAUUUGGUGUUAUCCGAAUAUGUCUUUUGGAUUAGGAGGUAAUUUUAUUGAACGCGUAUGAUACCUAGUAAUUGUCAGGUGGGAUU'
p773
aS'CCUUGCUAGACCUUUGAUUGUCUAAGCAAGGCGAAAUUGGCCUCGCUGUAUGCCAUCGCUCGGACAGUUUUCUGUCGCGCACACUACGAAAUUUAGUUCC'
p774
aS'AUUGAAAACCGGCAAGCUCUUCAUAAACUAACUCAGUUAGGGCCGGCCGGUGCUGGUCCCUACACCACUACACUUGCGGGGCCGAUUUCCAAAGAAAACG'
p775
aS'GUUUCAAACUGAUCCUAGCACCCGUGUGCAUAGGUGCCGCCAAGGACUGAUGUGCAGUCAACGGGAGCAAGGAAAGAACUCAUCCUCUAAAAAGCUAACU'
p776
aS'GGAAGCGCUACGACUCGAUCCGUAUAAAUGUUCGUGGCACUCGACCUUUACGGGAAAGCUCCUGGGAGACCAAUUCAAAGGGAGUGUGGAAAAUGAGAGA'
p777
aS'GAACGUUACUCUCUCAGGCGGCGCGAAGGGGACACAGAGACCAUUAUCGAUCGGAUAACGCCGAUUAUAACCUGAUUCGAUUGCGUCACAUCUUGCCACA'
p778
aS'GUACGCUGCAAUACCUUAUUUUGCAAUGUAUGGCACCUCGAACCAUUGAGGAUGCGAUACCGCAUCGGUAUAUCGUCCACUUCAAUUGGCAACACUCACU'
p779
aS'CGUCCACAUUGGUUCACACCCUCUCGCUUCCAGCUGAUUCGAGAACUGUUAUUAGAGGGAACUACAAAGUUGUAGGAGGGAGUGGAGGACGUGCGCCGUC'
p780
aS'CCGACCGCAUUUGACACUCAGCCUGGUUGAUGAUACCCACGUAUUUAAAUGCCACACGACGAAGAAACCUAUUUAGGCAUUGAUGGAUCGUCCUGUUCGU'
p781
aS'CGUGCUGUAAUUUCCGCGGGGGAUGCGGCAGUUUUUCCGGGCGGGUUGUUUAGUUAGUGCGCACCCACCUCAAUCGUGGAUACCCCACCGCUCUAUCUGC'
p782
aS'UACUGGAUUUAUGGGGACAGGAAACAGGUACAUCUUACAUCCAGCGAUGAUGAUCCGAAACCAACCAUAAACCGCGAAUCGCCUCGCGCCGGAAAUUUAA'
p783
aS'UACGGCACUGCCUAUAUUGCUAGGUCGCGGUACAUGUUGCGAUGCGACUAGCUGCUGAGCUUUGUGUUAUGAAGACCGGGGGAAUUAGUUACCGCGUAGA'
p784
aS'UGGUCAUGUCAAGUUAUUUAUUGAACCGCGGACUAGGUAUGAAUCACGGCAAAGUGAUCAAACGAACUGGUGCGCCGGAUAUGAUUACAUCCCAUCGUCC'
p785
aS'AAUCAGACCACUGGAAUUUUUAAAUAGGCCCAUAUCUCCAUCUGUAGAGGGUUCAAACUCUGUUACUGGUCGGUGAUGUCAUGUGAAGCGCACCCAUUGA'
p786
aS'CACUACCGACGACUGUCUCGUCGGACCAGGCAUAAUAUCUGUCUGAUCUGUCUUACCCCCAAAGGAACGCGACCAAAUAAUCAUAUUCUCUCUAGCCGAC'
p787
aS'ACAACCAUGUACCCUUAUCGCCGGCGACACAAGAGAUGGGUCGCAAGUGAGGUAUGGAUGGCCGAAGUAGGGUAAUGAACUUGCAGGGAUCGAGCGGUCU'
p788
aS'AUUGGAAGAAUUAAUGACCUGGGAAACAGUUGACUUAGCAUUGGGACACCGCUUAACGAGAUGUCAGCUAUAGGCAAUAACGCAGAUGGGAUUCGUAGAU'
p789
aS'UAGACGCUACCAGGCAAUCUGCCGGGAGUUCUGACCCGCUUGGAACAGCGAUACAACCAGAUUGUCCGCUUUAAGCUAGAAAGAGAUACUUAAAGGCGCC'
p790
aS'UACUCGAGUCAAAUUAAUAACCUUCAACUGGUAUUACGUAACGCAGAUGUGACGUUGACCCUACCUCCUACCUUACUAGCGUUAAUAUUCACAUCUUUUA'
p791
aS'AUUUGUUGUGCUCCUAACGAGGUAUAGGUCGAGAAUACUCAGGUGUAAGCCAAUUCUGGUCCCACUUUCGAUAGUUCUAUCACGAUCCUAGACCCCACGA'
p792
aS'CUAUAUUAUCGUAUGCUUUGCGUCAUACGUUCUUAGCAUAGCCAGGCCGUUUAUUGUGAGACUAUACGGUAGUGUAAGGGGCGAAAGUACCCCGGUGGGU'
p793
aS'AAGUUGGCUGAUCGUCGCUCUUUUCCCAAGCGACGCGCCCCUUAGUCGGGCCUUCCGUCACCUCGGCCUAAGUGCUAUUGUUAGUGGUUCGUGUUUACCC'
p794
aS'CAGUGGCGCCCAACUUAUUGCUCAAAUCCAUACGGUUUUGGUGCUCGCAUUGCGGUAUAUGAGGGAAGGAUUUCAAGUUGUCAGUCGAAGCACUUCAUGA'
p795
aS'CCCUCCGUUCCGCAAUCCGAUGCAACAUAUAAGCGAGGAGAGCGUAGAGUGCCGCGCGGGAACCGCUACCCCUCGUUCGUUAGAGCUUUCGUAGCCUCAU'
p796
aS'ACCUGGUAGACCAGCUUAAUCCCAGAUGGCAUUGUAGGCUUUGACUUGAAUUUUAGGACUCGGCCAGAAGCUCUAAAGCUCCCAACCUACCGAGUAAGAC'
p797
aS'CGUUGUUCCCCAGAAGACUCCAGCUCACUUAGCCGAACGACGCAGCAUCCGUUUUACGCCGGACCGUAUUUUGGAGUCCUCGGCCCUUGCUGAGGACAAA'
p798
aS'AGUUAGUGUCGCUACGGGUUGCCGUCGUUACUUCAAUUCAGAUCUUAUCAUCCCUAGUGGUGCUUCGGUGGAAUAUCGACCCCGUAUAAUUCCGCGCCUU'
p799
aS'CGUCAAAGAGUGAGGGCAACCACUGCCUGUUUCCUAGCACCACAGAAGCCCAUGCCUAGUAAAUCGGGACAGUAAAUCACGCUUAAGAGGCUGCGAACCC'
p800
aS'AACCCCGUCCGCAUAAGACUAACGACAGAGUUAGUGCAGGCAGACACUUUUGAUCUUUAUCUCUGGAAGGGCGGCCACGGGUACUCAUUUCCGAGAGCGU'
p801
aS'AGCGAAAGGCAAUGCCCGCGGCUCUAACGGACCAGUAAUGUGCCGCUCCAGAAUAAGCGUGAUCUGACUCACUCAAUAUUGGCCCGGCAUAUGCACGGGC'
p802
aS'UCCUAAUUGGGCAAAGCUUGGUGUGAAAGAUUAGACCACUGCGCUGACUGGUUAAGGUCAGAGCGUAUCGUUGUUGUUACAGUAGAUACCGAGUCCCAGC'
p803
aS'CCCGGGUUGGAACUGCUGUUCUGCUUCUUAUGUGCGAUGAAAGGACCCUGGCCCCGGAUUUCGCCAAGGAUACGGGCAACUUUCUAAACCAGUAACUAGU'
p804
aS'UCCUCAUUCCCGGUCUUUGAAUCUCAAUAUCAGUGUCCCCGGGUGGGUCGGAUCAAGGCAGUCCCAGGGGUCAACAGACCGGCCGUCGACGUAGGGGAGU'
p805
aS'ACAGCACAGCUUAAUGACCCACGGCCCCGAAUAGAUCGGUCUUGUCUAUCCACAUGAAAGCGUUCAUCGUGUGUCGAUUAGGUGCGGACUCAGGAUGAUC'
p806
aS'CGACCUAACGAACGUAGGAGGUCUAUUACGAACGCCCCGACAUAAUCCGAUCACCCCCUACGACGAAAAUGACGUUCAGACACUGUCGCUAGGUUCUUUC'
p807
aS'CAGCGGGCCCAGGGACUGCACCCCAUAACCUGCCUAGGGUAGAUCCUACAAGCUCGGAAAUAAACCGGUUGCAUCUAACGCUGACCGCUUCUAGUCUGUA'
p808
aS'UUACUAUCAAUCCGGAUACAAGCGGUAUUAGGCGUCAAUAAUAUCCCUAAGUAUACCGACUAUGGGAACCGGGCAUAAUAAGCGCGCAGGAUCUAGUAUG'
p809
aS'AGAGUAUGAGCAAUGCUCCCCCCUCACACGUCACGUGACCUCGCGAUCCUUGUAGAACGCUUGCAAACAAUUCGAUAGUCACCACUUAGUAGCCUAAGUC'
p810
aS'CGCUAUAGGCGAGAAAUAAUUGGUGGUAGGAGCUUCGCGGGAAAGGCAGUGCGGAACUGAGGCUCAAAUGCCGUACCGAGCGGUGGGGUUAAGAGAAAAC'
p811
aS'UACACUAUUUUAGGCGCGGACGCUGAACUCGUCUACGGAGCUACAGGAUGGUUCAAGGCGCUGGUGUGAUAGACAAUUGGAGUUACGCGCUUUGAAAGGU'
p812
aS'AUCUGUCGCGUACUCCCAAUCACAUUUCUUCCGUUAGCAUUUUGCCUUAUUAAACAAAAUACACAGCGCACACCGUAUGAACUUUCCCGAGUAGGAGGUC'
p813
aS'CGUAGUGAUCCACGGUGUGGUAUGGCCCAGGACACUGCCCAGAUGUCAAGGAGUACAGGGGAGAAGGAGGCUUGGCACUACUUGGGUUUCUCCAAACGUU'
p814
aS'UAGGUAUUAACUAAAUCGACCCCGGUUGCGCGGUUAAACUUGUAUUGCAUGUAGGAAUCCGCAUCCUUAGAUGAUAGCAUAGUCCAAUAAACGAGUACAG'
p815
aS'CGUGGAGUCAUCCGCCAUUGGUGCGCCGUAUGAGGGUUGCCAUGUGGUUUCCGACUUGUAUUCGCAAACCUUGUAAAAUAUAGGCGCGUCUGUCUAACAG'
p816
aS'CUCGAUUUUGGGCCUUGGAGUUGAUUUGGUAAUGUCGCGAUUGCUUACCCGAGGAGCACAAAGGGACACUUUAUAUUCUUGCUAUACAUGACUUACCGGC'
p817
aS'CGCCUGGCGUCCGGGCCCUCGUAUGGAGUUGACGUACGACUUAAGGAGCGUUAUAGCGUUUCGUCUCGUUGCUAGGUCGCAAAGCAAAUGUGUCGUCGUC'
p818
aS'UACAGGAACCGCUCUCCAUAAAUAUAUCUGUUUUUGAGACCGCCAAUAUAGAGCUCUUGGGAUAAAUUACCGGACCCGAGUGGCUAAUUAUGAAUCCGUG'
p819
aS'CAUUUGAGCCAGACAAGCUCACGGCCACCCAAUCGGGCAAAGUUGGGAGUAGUGACCAUGCAGGCGCGCGUGAACUGCAGCACGACUCGUCCAAAUGAGG'
p820
aS'GAGAUACCAUGAUCACGCAAUAGUUAUCCCUUUGUCAACGUUACUUGUCUUUCUGUGCCUUUUGCACUGAUGACCGGACGGCCUUCACAUAUGUGUCAUG'
p821
aS'AAAGACGAUCUGUCGUAGCAGCGCGCUCGUCCUACGGUACCGGUUCGUCGUCAUCAAAUGUUCACACUUACAAGUCCACCAUAGCUGGCUCGAUUGGCAG'
p822
aS'CGGAGGUCGGCCCGGACUCCGGUUUGCGCUUGGCGUUCUACGAUGGUCUACCUGAGGUAUUAUAAGAAGCGAAGUUAUUCGAACCGAGCUCUUGAAGCCA'
p823
aS'AAUUAUCACCAUCCUAAAACCGACCAUAGUGCUAGCACCUCAUUAACGAUCUUAUGCUGAUUGAGUGAUGAUGGUUCACGGAAAAGGGGGAUCCCCAUAG'
p824
aS'AUUUUGCAUGGAUCCUUGAGUAGCAGUAUGCCCGAGCGCUGUUGACCACAUGCUGGGGCCUUGGGGAUUCAAGAGGAGCUCCCCAGACGAACUGUUGCCG'
p825
aS'AGCUUAGCUCAGCCCUUCACAGUGCAAGGAUAGUGCUACUAGAGGGCCGGGUUCGCGCACAUCCCUUUUCCCUCACGUGUCCGCACGUACCUAGGCCGAA'
p826
aS'CCAAACCUCCGAACGUCCACAAUCCGUAUCAGUUAGGGUUGCGAGCGUGGAUGAGUCGACUAGGCGCCAGCGCGGCUCUGACUAGCCACGUUGAAAGAGA'
p827
aS'ACCAGCUUACUGGUUCUCGGCCUAAAGGUGACUUCAGAAUUAAGAAAAUUAACUAUGACUACAAACGUGUCGAAUUCGUUGGUUUCUCUUGCUCAUACUU'
p828
aS'ACGCAGGGAGGGGGACGUACAUAGUCCCGGAGCUGUGAAGGAAUAUGCCUGGUUCUCACUCGAUAUGACGCUUCUUGUACCAUCGCAGGGCCUCAAUCUC'
p829
aS'AAGGCCCGGAUUUACUCGAAAGCUCUGGAAACUUUUGGCGCAUAGAAAGGAUUUUUACCGUGUCGCAGGCGAGGUAACAGAACUGCUCUCCCAUACUUGU'
p830
aS'UGUAGCGAAUCAACACAAUCAAGACAUUACCCCCCGAGGCUAGUCCCGAGAUCCAUGCAUAGUGGUCAGGAUACAAACAACCUGCUAGCCUAGGUGGCGC'
p831
aS'UGCACACAUGUUCUGCUGGCGAGGUGGCAGGCUCGACUAACUAGUUCGACACCAUUGAGAACAGUCCGGAAUUUAACGGCGAAUGAUUCCCCAUGCGAUC'
p832
aS'GGGGCCGCCGACCGUUUUAUGCGUCUGGAUUUCUGAGCCGCCUUGCAAGGGCAUACGCGAUCACGCUUCGAAGUCGUCUUCGUUCGGACGACAUAGACCG'
p833
aS'CCGAUGGUCUCGUGCAGAGCGAUAUCCGUACCCUACAGCUGUCGGUUCAUUCUCGCGGGAGGAACAUCGCUGGGCUUUGCCCGAGAAAGCGAGGUAUUGG'
p834
aS'ACUCAUCAUUGGAUGGCUACAUGGGCAUCAGCCCGAGAGCCGUCACGACGCGGGUCACCCAUCGUACACUUCCCUAUAUUAACAGAGUCAAUUGUUAAUA'
p835
aS'CUAUAGCGUCUGCAGUAUGUAGCACGUGCCAGGCAAACUGCUGUGGGAGACUAGAGAGAGACUGCUCUCCGCGAAUAUAGGACCCAGGGAAUUUGAAGAU'
p836
aS'GUCUUUGUCGUUCCUAGUAUGCACAUCGUGUGAUGUUGCUAGUCCCCAUUCAUGUCUAUUAGCUCAUGAAAUCAUAGAGAGGGCAUCGGUUCACUAUCUG'
p837
aS'UCAAGGAUCGCACCAAGCGAUGCUGCAGUCGCGUUAGGCGCCCACAUCCGCGGGAGCUGACGAAAAACGCCAAACGAACAUUACACUGAGCAUUGCCAUC'
p838
aS'CUAAUUCACAAGUCUCUCAAGAUGAUAAGCACUAUUACCUCACUCAAUAAUCUGUUGGGUAUAGCUUGUCUAUAUCACGUACCAACACAUAUUUUGAUCU'
p839
aS'UGAAAGAUAUAACAGCGACUGGUGCUUAACGAUCGGGUUAUCACCUGAUGGCGCCCCCCUCUCACGAGGGCUGGCGCACUAUGAGUAGUGGACCGUUUAU'
p840
aS'GAACACUACUGGGUUACGAUGCCAUCGUUCCGCUUGAGUAAUUAGUUUCGUCUUCGCGGGGGCUAGCUGAAUGAGUGCUGGGCUCACGAUUAUAGCGUGC'
p841
aS'CAAUUCUAUCUCUGAAUUUAUGAAGACAAUCAUGACAGCGGGGUCGUGACAGGCGCUACGUUCGGGAAUGUCGCUAUACCACCGGAAACCCUUAGUAGAA'
p842
aS'GCGUAUGGUAGAUCUCAGCCCGUACCGAAACCACGGAUUACAGUAAUGCAUAAGCACGUAGGAUGCUACGAGUCUCUCGUACAACUUCAGAUCCGAGCAC'
p843
aS'UUUCACUUAAAGACUAUCCGAUGCGAUUAAGUUGACAAUCUAACUAUCAGCCAACUCAUUGUAGAGUCAGCUCAUGUGCUGGUUUGCUCUUCGAGCUCCA'
p844
aS'UGCUCGCGUCAACUCGCGCUAGGCAUGGGACCGCCUCAAUGGUUUCCCACAAAACCUGUCAUUCUACUCUGGCUGCCGGCGACGAUUAUUAUGACGUGAA'
p845
aS'CGCUUUCGGCCGUCGUUGAAGAUGUUAAAACCCCCGACAUCUCUAAGGUCUCGUACGUGCAUCGCCCGACAACCGAUGUGAUUUUUGCUAGAGCAUCGGG'
p846
aS'CCCUGAUGCCAUUACCGUAGGGAAAUUCCUCGUGGAUAGGACAGGCCGGUGAACGCAAGGUAGCACGAAGGACUUCCAGUAACGCAUGGCGAGGGCGCGA'
p847
aS'CUGUCGAGUACCGUGGCGAAGCCCUAUUUUCAGAAGUUGUUCUACGCGUAUGAGUGGGGAGAGUAUUAAAUCAAGAUAUCUAGCUUUGUGUAGUUAUUAC'
p848
aS'UCUGUUACCCAACUGAUGUGGAUGCCCAAAUGUAAAAAUUCGGUUCUAAAUCAAACCGCGUGAUCAGACCCCAUAGGGAGCCGUUAUACCUGACCGAUCU'
p849
aS'GGACACAGGCAAUCAGGGAUCCGAAAUCAAAAAAUCUGCGCAGGAAGGCUAAGCGCCAUGGGCAACAAUCUGAGGAUGAGGUGUGUUGCGAGCCUUUCCU'
p850
aS'CCAUACACGGCACUACGUGAGCGAAAUAUGGCACGGCCCGAGCGGGGUGGCAGGUAGCCUUAUGGGGGCCCCCUGAAUUCCAGCGCGACGCACCUUUUAG'
p851
aS'AUCUUAUUGCCUUUUGGUCUGAGAAAAGACGAUUUCCGUCUCGUUCUUAUUUAUCGAUUAAGCCCCCCUACCGCGUGCCUCAUUUUGGCGUGACUAGAAC'
p852
aS'GACCCUCAUCCAAGGCCAUAACUCCAAGCCGAUAUUACCCCUAAAACUUGCAUGUCCUCGCGAUUGCGGUAUGAAUGGCCGAGUGCGGGCGGCGGUCGGC'
p853
aS'GUGUGGAGCCUGGACCUGAUAAUAUGUCGCCGUCAUGUCGGUGGUUUUCUUUAUAGCCAGAGGCUGGGCUACCCAUAACAGUGGCUUUGGCUAAGUACAA'
p854
aS'CGGUUUAGCAACACCCAUGGUAAGCCGCAGCCUUAGUACACGGAGUUGGCACUAUGGUCCUAGGUCUCAUAUACCGUGUGUGGUCCGUUUCAUCACCACU'
p855
aS'UAAAUGAUAGUUUGAGUUUCCCGCGGGACGAGGUCGCAAGGGGAAAUCAACUGCGACUGGAUUAGUUCCUCCCCCAGAGCAACCCGACUUAAACGGUAGC'
p856
aS'GACUGUCCAGAAACAGCGAACACGCUACAUGCGCGAACUUCUGCGGUAUGACAGGAGGUAAGAAACAUUAAGAAAGGAAACCAUGACGUAGAUCUCAAUG'
p857
aS'CUGCAGAAAUUAUAUUGAAGUAACGGACCGAGCGAGAAGAUCAUGAAAGAACUGACCCACGGCGUGAGGAGCUAAACGGCUAGCAGUAUGCGCCUAGGAG'
p858
aS'AGCCCUUUCGGGAGCCGCAGAGGUCGGUGUAAAAUUUUCGCUGACACGAAUGUGGACCGUACAAGUAAGCUCGUGAACUUAACCCUGUUGUCCCUCUUGG'
p859
aS'CGCCGGAUAGUGAACGAUUAACUUCAAUAUUCCCCUCAUCUAUUCGCUUCUCCGCUCCCUAGUAGCGCGCACCGGGUAAUUUACAUUCGGGCCGUUGUUA'
p860
aS'UGUAGUAAAUGGAGGUUUCCCGAGAAAAACAUCUAGACCCGAACUAACAAAGUAGGACGGAGUAAUAUUUGCAGAGGCGCGGCGCCUCCUCGUCCGCCGU'
p861
aS'AACAUGCAACACUUGCAUCUCGACACCACUCCUCAUUCUAGACAUGUCACUUCUAGUAGGUCCAGAUUAUCUCUAUUCGCGAAAAGACUAUUAGAAAUCA'
p862
aS'UACCCUUAUAUCGGAGAGAUGUGCCUUGUAUGGGGCUGGUAUGAGUGCAAGGAUGUGAUAGAAAUCAGAUGGUUCCCGCGGCGAUGGAGUCGAAAAAUGG'
p863
aS'GAUGGGCUGUUCAUAAAUCGCGUAAAACACCAUUAGUUCGUCGUGCACGCGUUCCACUCAUAAUGGGCGUAAUGGGAUGAUCAUACAUAUCGUAGUAUGU'
p864
aS'CUAGCACUUUCCAGUUGUCCCGUGCGCGCCCAUGAAUCUGCCGCGAUCAUAUGCAGUCGACAACCAAUGAUGAUCCCGUGGCUCAAAUUACUCGUGGACG'
p865
aS'UCCCUACAUUGGUUCGCGGUCUGGUCCGGUGGAGUAUUCUGAUUGGUGAUUUUAUUCUAAUGAUAAUUAUGCGACUAGCUCCGUCUAAAGCCUUUGCUAG'
p866
aS'GGGAAUAUUGCGGUCCUACCACAGCUUCUCUAUGAGGGUCCUUAUCCGAUAAUAGACAACGAACAAGCUGCGUUCCGUUAAGGAAGUGCAUGAGCCAUUC'
p867
aS'GAGACCCAUGCGGUUAAUGCUGUUCACGGACUGUCAGGCCUCUUGCGCCAUCUGACAGACGACUGCCAUGAGGCAACCAAUCUACUGCCGGAACUCCAGG'
p868
aS'GCCUUGCCUGCAGAACAGAUGAAGCCGUACUUCAAAUCGCACGUACACCCCGUGUCGUAUCCCGUUGUAAUCUCCGAAUCCACCAUCCCAAUUUCCUGCA'
p869
aS'GAGGGUGUUGGCUAGGAAAUUCUAAAGUUCUGCUUCAUAGACAAGACCGACAGGUGAUCGUUGAAAAUGGGCGAAUGGUCUCGGAUAUCCUGGGUUAGCA'
p870
aS'AGCGACACCGGACCUUGACGCUUAAGUUGUAAUGAGCUGGCCGUAACUGGGUGGAAAUUCCAGCCCCCCUAUGCAACACCAAACAGGACAUGCGUGCGAU'
p871
aS'UAUUGUUAUCCCGUCGCAAUUUCACCUUUAGGAUGUGGAAAGGGUCAUGUUGGAACCACGGAACCGACUAAAGAGUCAUAGCGGACAACGUGCUACUGAU'
p872
aS'UGCGAGGGACGGCGGACACCGGGUUGAGCAAUAAACCCAACAGGUAGUUUCCGUAAGGCGGGUACUAGAUAACGCUAUGGAUUCCUGCCACCAUGAAACC'
p873
aS'UGUGCUAGAAUAACAAUAGGCCGGCAUUCGUAUGAAGCAACAGACUCUUUAUUACAAGGCUUCUUCAAGUCUGUAACAGCCGGGAUUCUGUCCUGUACCC'
p874
aS'UGGACGCCAAUAGUACGCAUCCCAAUGGCAAUAAAGUCCGUCUCUGAAGUCCGUAUUGUAGGUGCAUUUCAGCAUGUAUGCGCUUAUCUUCACCGCCGUG'
p875
aS'ACCCAAUGCAUAACAAGGCGGGCGCGUCAUCGAAGCAGCACACUGAUGGUUCCUCCUUAGGACAUAGCACGCGGUCAUCGUGGGGUGCAUUCUAGCCUCG'
p876
aS'AGCUAACUAUACCCUUUUGGGGGACGGUUAAAGGGACCUUAGGUGCAUCGGAGUUAACCACGGACGAGGUGACAGAAUCGAUAGACCACUCCUACAGAAC'
p877
aS'UUCCUCGACUAUGUAGGUAUGGUCCUGCAUCAACGCAUUAAAGCCGGGUGUCCUAACCUAACCUAACCCGUAACAGUAAGAGCUAGCCAAAAAUUAAGUA'
p878
aS'UGCCACUUAUUGUGACCGACUUGUCCCGAAUGGAAAUGAACCUCGAACUGGCAAGAGCAUGCAACGUCAAAUUGAGGCGCGUAAUCACAUAGCAGGAGGC'
p879
aS'GUCAAGGACGACAGUAUUGCUGAUACGCUUCGAUAGAACUGACGGCUCUACUUUUCAGUAUAUGUAACUUAACCAAGUGUCUCACCUGUGCACUCUAUAU'
p880
aS'GGAGUGUUGAUUGUUAUUCCAGCUGUUAUAGAAUACAACAUUUGCGAUGCCAGGCUCCGGACAUUAAAGAUGCUACGCCGCCUUGAGAUGGUGGGAGGGA'
p881
aS'UUCGAUUUUACCUCCAGAGAUAGACGGCCCCUGUACCACGCGCCAUACGGGUUUCUCCGGAAAAUAGCCUAAUCCCAGCCUUUGGCCGAACACGGGAAUC'
p882
aS'GGCAUCUCUCUAGAUCCAACUUGCCCCUCCCAGGUGAAUGUGUGACUAUUGUGAAAUGAUUGCCGCGUGAGGCAGAAGGCCGAUCCCAGAACGAUUCCAC'
p883
aS'AUAUUCUGAAGCUGGAAACCCACCCGAUAUUCCGGGGCCCCCUCAUGGCAUGGCGGACAAGCUCCUCAGGGCAGGCCGCUGCUCGGUGCCGUAAUCCUUU'
p884
aS'UCUUUGGCGUCUCAAUUCUAACUGUAUAUCCAAUUUCUUCCUUUGCACAGGUGUCCCCUGCAUGGCAAAUGGGCGCCCACUUGUCCUACUGGGGGACCUC'
p885
aS'UGGAGACUGCGGCGAUAUGCUGCCGGGUGCUCUGACACAUUUCUAUAUUGUGAAUAUCUGUCCCGGUUGAUUUUGUACGCCCGGAUCACUGCCAUUAGCU'
p886
aS'UUUCGUCGGUCGGAUUCAUAAAACUUCCACAUAGAGAUACAUUGUGAUUCUUUCUCGAAAAGGAGAGUAGCUCAGCUCAUUAGACCUGUCCGAGGUGUAA'
p887
aS'CCUAUGGAGAGUUGUUUCAAUAGCCUUAUCAGAACUGGUAACAAACCCGGAAUUCGCUCGCCGAUGAUAUAGUGAACCAUUUACAAUAUUAGCAUGGUGC'
p888
aS'AUCGCCGAAUGAACCGGUCAACAAAGAGUGGACGUCGGUGGCGGUGUCUUGCCACGGAGAGCGAAGGAAACGAGCUCUCCAGUCCUCACAAUACCUGGUC'
p889
aS'GUACACCUGGGAGACGUCCACCUGCGGGCGAUCGCAGGGAACACAGCAUGGACUUGUUCGCCCACAAGUUUAGGCCGCGCUCCCGCAGACCUUCGACACC'
p890
aS'CACCUUACGCACUGUGAAGCUCUCGAAAAAAGUUACUGUAUGCCAACUAUCAACACCUGCUCUAGCUAUACUAACUUUAGAGAAUAUUACUUUGUGGCUU'
p891
aS'GCUGUAGACGGCGAUACCUUAAACAAUAGGUAACGGCACACCCUUACGAUAUAUAUCAGUUUGUGAGCGACAUUGGCUCACACUGAGGGGUAAGAGACUC'
p892
aS'CUUAUACUUUAUCGGUGGGGGUGCGUGGGAAGAACUUAAGUUCGUAUAAGUUGUGCUAAAAGAAUUCUCGGACGUGGCCCAGUGGGAUUUGAAGAGAUAU'
p893
aS'UAGUUCCAACAGCAGUCGAGCUCGACAUUCCGGAGGGAUGCGAGGGGGUUACGGCUACUAUCAGUCCAGCGUCGACCUCUCGAAUCCGUUUUCAAUGACG'
p894
aS'UCAGUAUGGGCGGUCUAGCCUCGCAUAGUUGCAGCGUAUGCCUUACAAGUCUUAAUAGAUAACGUUUGGGAGCAUCCUUUUAACUCUAAUACAUCUAUCC'
p895
aS'AAAAUAGCAACACACAGCACUCGACUCGGCCUGCGAAGAGGUACGUGCGUGCACCAGGAACACAGGGGAACAUACUCCUAAGAAAGCUUGGUUGCGGCCC'
p896
aS'ACAACAAAAUGGUGUUAUUGCGUAGUGCAGAAAUCCACACCUGUAUACGCGGACUGGCAUACGGGUUGCGGCUCCUGAAGACCUUCGCAGAUUUACACGU'
p897
aS'AUGCUAUAUAUAGGUGGCUACUCCCAUCUCCCUCCGAACCGUCGUGUACUCUUAAUUUUAUGUUGCGGUUGAUACGCUCUAUCAUUGAGACCGUACGUUU'
p898
aS'AGGUUUGUUGCAGCUGCCAGUCAACCUCCUAUUGAUGCAAUGCAGCAUCUCCCCCCGCGUCACUUUGGUUACUCUCCCGGGUUCUAGACGCUCCAGACAG'
p899
aS'UCCCCUAAGUCUUUGUCCCGGGACUUCUCCCGGACCAGCCAGAAACUUCUUUGUGCACAUGUAGCGCGUCCAUACCUUAUCAGCUGGUACGGGUAGGGUC'
p900
aS'GAGUUUCGUCGUGGAUAAUACGACUCUAACCCCGAAGCCUAGGCCACCUCCUGAUGUUCCACCCGUCUCAGCCUGAAACUCGCCUUUAUAGUUGACCUGC'
p901
aS'ACUCUUCCCGGGAUCGGAAAGCUAACAGUGACUGUUGGGAGCAGUAGUGGGGGCCGGUCCUUUAGUCAAACUCGAAUUCAUAUCAUCGUUUCCCAAGGUG'
p902
aS'GGGAUGUCCCAGCUAUUGAUUCUCUUGGAUCGCAGAUGGGCGACUGCUGGUAUGCACAGACUGCCCUUAUCCCAGGUCGUGGAUACCUCCCAGUGACUAU'
p903
aS'UGGCUUUCGCUUGGUCGAAGGAAAGACCUCGAGCAAAAGCCUCGGAGUCCGAACAGCCUUAUUGAUCUUCAUACUAAAGAUCCUAGAAUUGGUACUCUCC'
p904
aS'CGCUGCGCACGCCGGUGGGGCGACGCCGAUUUAUAGUAUUUCGAUACGUCUUCCCCAGUGUAAUCCGCGAGUACUGUUUUCUAGUAGACCUAGUCUACCU'
p905
aS'CGCCUAGUCAUUUCCGCGCCAAAGCCGACUCAAUUACUUGGCCGUGGAUUUAAAAAAGGAUGGUCUCACAUAUACUAGGUUGGACGGCAGACAACUCGAC'
p906
aS'GCAACUUGUGCGCCCAAAGAAGGAUACUGGACCUCAAUAUAUAAGCCCACAGUGAUGUGUCACCUGAACUCUCGUAUCGACUUUCGACACCCCUUCAUUU'
p907
aS'CGAUUUUCUACGUUUCUCCGUCGCAGUCAGGCAUAGUCCCUCCAUGUUUCUCAGCACACGAAUCGAAUGCCCGCUACGUCGAACCGUCCUUCAAGUCCCG'
p908
aS'AGAAAGUGGGGACGUCGGUGCUUUUUCCUUACCCGAUUAGACUCAUACUGGGUUAGAGGCCCCGAUGGGUUAUUAGGCAGUACAGUUGACAAGUUUUUUC'
p909
aS'ACACUAGGAAUCGCGGUCCUCGACUACUUCAAGGCGCUGCAUGAGCAGUGGAGGCGAUAGUCAGGGAACUCGACACGGUCUUACUCUGUGCCCUACUGCA'
p910
aS'UCUCAAGUAGGAUGACUGCACGACUUGUGGCGUGCAAGGUCCUUGCAGGGUAUCAGGGGAAGAGCACAGGUGUUGCAAACACUUGAGCAGGUUUUAUGGA'
p911
aS'CCGUAAGUCUUACUUUCAGUGCAACUCAAUAUAAAACUGUUUGGAGCCGAGACUAAAAGGAUAAUCCGAGGGGAAGCCGCAUUACAUCUAUCCGUUUAGC'
p912
aS'AGGAUUUCCCACCGUGUGGUGACCAGCACACCUCCUCCACAUUGAACUCGCUAGCGCCGGAAGUCUUUAUGGACACGCCCUGGCACUUGCACGUUGAUUA'
p913
aS'AGAAUUGUGAGCAAACCAGAUAUCUUCCGGCAUAACUGUUUGUCGGAGGACGACGCCUCCAAGAAGUUCUCGACGCGUUGAACGAGAGUCGUUAUGGUUU'
p914
aS'GUUAUCACAGGCGUCAGCUGGCUUAAGGAGGAUAGACAGGUUGGGUCUACGGGGAUUCGAUGAACUGCCCUAGGGGGUCUACCCAGACUUAGACAGUUGC'
p915
aS'CGAGUCGUAAUAUCAUUGGCUACCUCGGUCUGGUAUUGAUGACGAGUGAGAGCAUGUAAUUAAGUCGUAUGUUGUGGAUAGCCCCCGGGUAGCUAAAGGG'
p916
aS'CCACAGCGUUACAGGCAGCGACAUCAGCAGCUCCUACGUGGCUAAUCAUUGCGCCUCCUCUCUAUUGGCGGACGACCCGGGUUUUAGACUCUGGUCCUAG'
p917
aS'GUAUUUCGUCCUAUAGCAGGGGAACGGGAAGCUCGUGUUGUAGAGGCAGCAUAGGCUGCAACGCCAAGUUGCUGGGCGAGCCAAUCAGAUAGGGCUCUGC'
p918
aS'GAUAGCGAAUGUGGGAGGAAACCUACAUACAGAUUGGUUUUGCCACGGGGAGUCAGUCAAAUCAUCGGCAGAAUAGAGGUGCCUUAAAUCUAUUAUCGUC'
p919
aS'GCUCGAGGGGUAUCGCUAUCGAAAGUUGCCUAUGCGGGUCACAGCUUGUGUGAACCCAGAAACCCAGCCUUAGACUAGUUACUAACAGUCGAAUGACCUA'
p920
aS'GCCGCCAAGUUGUCGCAGUAGUACGUCAUAAUCGUUUGGUAAGGUUAUCCAUACAACCAACUGGUAACGAAUACCUUCACCCUAUAUCACCACUGGGUGA'
p921
aS'AAGUGCUUCGUACAGUGUCACCAACCUGGGAGUAUCCGCAAACCAGAUCCGACGUUAUCCUUUCCCCUAUCUGAUCCUGGUGAUCUGCUCAUACAAGCUU'
p922
aS'CGGAAUAGGGCAACGAUCUGACGAAGAGUAGGGGUGUGGUAAGGGUAUAUAUAUAUGAUCGGUCGCGGCACUGUGAUAUCACAUGAGAGGUGCUCUUAAA'
p923
aS'CUGGUAUUGUGAUCAGUAUGGCUCGGGAUAUGACGGUUUCGGUAGUUGAGCUUCAAGGACAGUAUAGCAAACCCUUCGCCGUCCUCGAGUUCACCACGCC'
p924
aS'CAGGUUGUUCGAGCAGCCGAAAUCAACCUUGCCGGCUGAUCAGUAGUAUUCCGGGGUAUAAGGGGGGGCCAUACCUUGGCCUAAUACCGCUAGGGGGUGU'
p925
aS'AGUAUCCCGUCGCCCUCGUAGCAUUGCGAUGAACACGAACCGAUAGGACUCUAUGUACAACCUAUAAACCGUGUAGAGCUGCGAAGCUCUUCUUUUCUCG'
p926
aS'UAGACCCGCGAUCACGACUAGAGUUUUCUCUGUAACGGCGAGCUCAAGUAGGGUUGAUUCCAUCAAGCGCGGUACCCUCGCUCUACGAAAGUUGCACUAC'
p927
aS'CGUCCAGCCGCCCAUUCAAGGUUUCGUAUCGGCUCAUUUAUCCAGCGAUGUAUGUAUUGCUGCGAGUACGUCCCGAUUUCCUGUCCAACUUGCAAGCGUC'
p928
aS'ACAAGCCAAAUGGGUCGCCAAUGUGUUACUUCGCCGCCGCCAGCUAGACUAGCUAUCUCGUAAGAUUACCCCGGGGCCCAACGCUAGCCGGCGUGGGUAC'
p929
aS'AAGGGCUCACCCACGCCGUGAAGUGGCUGUCAGGUCAUGCCCUUUACUUUGGUGUUAUCAUACUUGCAAAGUUUGGCGGUUUUGCAAGUAUAGAGUCACU'
p930
aS'CAUUACAUUCACGUACUUACCACAUACAGCCGAAUCCGAGUGUAUCCGGGCUCUAAUACGAUUAACGUGUCGACUAAUUACAGCUCCGGUACAGGGGAAA'
p931
aS'AAAUCUUAGCGAAGGACAUGCGCCCAACAAUCGCUUAUAGUGGGGUUCAGGAAGGCGCCUGAUAGAUUGUGUGGCUUUAUCAACCUGCUCCGAGUUUUCU'
p932
aS'GUAAGACAUAAGAUGUUAGGUUAUUCGGACAAGUUCCAGCAUACUGCUAUUGCCUUACUGCUGAGGCCUCUUCCCGACGAAUUAACCCGAGAGCGUCGCC'
p933
aS'CUGACUCCAAGAACACGAUUAUGCGGUUAAGAACGAUUCUAAAUUCCGUUAAGUAUCCUUUGCUCACAGACCAAAUAGGGCUAGCAGAGGAAUGUUCGGC'
p934
aS'GCUGCGUGUAGUUCAAUCCUGCAAUCCUUCCUCUUUUCUACCCUUAAUACGUACUGAUGCAACUGAUUAUCGAUAGAGCUGCAGUGAUGCUUCCGCGAAU'
p935
aS'AUAUAACCACUUCAAUCGGUUCGGCUGGGAUGCUGAGUCCAUGCCGAUCACUCGCUGGAGCUCCCGCGAAUUGCUCCCAACGCGCGUUUUUUAAAGGUAC'
p936
aS'UCUCACCUCCCGCCAUGUGUCCGAGUUGAGCGUUCUAGGAGUAAUGCUCAAAUGUACGUUCAGACUUAACGUCAGGUUGUCAUGACGUGAUAGUAUUGGG'
p937
aS'CAGGCUUGAGGUAGGUUGUCACGUUAGCCAUUUUGACUGUCGAGGGAUUAUAGCCUCUAUUUCUCAGGAAAGUGGUAUAGUUCUUUAGUGAGGCUUUAGU'
p938
aS'GUCCCUGAAGCUAUCAGAAUGUGCGAAGACGCGAUUCCCACUAGGCUGCUGUGAUUGGCUUAAUACUAGCGGGAGAGCUAGUUGCGAAUCGAUUUCACUA'
p939
aS'GUCGUGGAGCAGGCAAGUAUGCACCCGGCUAUAAACCGCCAAAACCCAUAUCCACCUCGCGUAUCGGAUAAUAGUUCCCGGUUCGGAUUCGCAAGGUUUC'
p940
aS'AAAGCUAAUGCUCUCCUCGAAGCAGUUUAUGCACCACUUGCGGCGUUGUGUAACUACUGCUCACGCUCCGGUGCAGUUUCCGGGGCAGGGAGAACUCUUU'
p941
aS'CGAAUAAAACGACUUCAGAAGAGCAUCCCCCAGUUUACUGCCGGCAUACAGACGCCUCAGAAAACAUUAACUGCCUGUAGAGUGCAAAUCAAGUGGAAAA'
p942
aS'UAGAUACGGAACCUACUCUGUACGAUCUAUAGAGGAGAAGGUCCCUGGCUUUGCAUAGCUCCACUCACCUGGCUUCCAGGACGCUAAGCCCGAAACAGUU'
p943
aS'AACAAUCUCACUUCGUUUCUCUUCACGGUGUGACCCUAGUUCGUACGAUCCCCACAUUUGUUUAUAAAUGUAUGGCCUGUAUCUCCUAUUCUCCAAGCAG'
p944
aS'ACAUAACUUGUUACGAUUCUGCCUAAGGAAGGCCUCCCUGAUAACGUAACAUGGCUAGUACAAGUCGGUACGACUCGUGAGGAAAUGGACGAAGCAUCCC'
p945
aS'GAACCCACAAUAGCCAGCCCUAACGUUAGUUGUACGUGCAUCGCUAUCAAUAGGCGACCAUACAGCCCGUAUUUACUGUCUUCGAAGUACUGUGACUGUC'
p946
aS'AAGGAUGGGAGUUGUUGGCGUUCCUCUCCAACGGAUGCGGGUGGUUUGACCCAUAGCGCCUCGACGUGUAUAGUAUGAAGUGUGAAGAUGUAAUUGAACC'
p947
aS'UAUUGAUCAUUGCACUGAAGUUGGAGUCGUGGAAAGAUACGAAGGGAUUUAUUACCUUGUAAAAUAACGUAUCGACGGAUGUUGUUCACGUUCCCAUAUU'
p948
aS'UGCCUAAAGCUAUCAUCCGUGUGCACGCGAAUCGCGACCUCCACACCGAACAGGCAAUACUAGAACCGGAUGAAUUACUUGCUCAUCAAGUAAAGUCUAG'
p949
aS'ACACUGGCAGGGUGACGUUUUUGGCCCUUUGGCGCGACUCGUUCCCUGAGCACUCGACGUACCACCCUACUUUAAUGUCGCGACGUUCCAGCGCGACCGG'
p950
aS'CACCGAGCCCUGCAGUAAUACUUGUCAUGUGAAGAAAGAAGUUUGCAACCUGAGCAACCCAUGAGAGCCGAAUCAUGACUCCAAUACGCCGCGCGCCCGC'
p951
aS'GAUUCCGACAGAUGGUUAUCCGACCAGGAUAUCCUGCAACGAGUACUCCCGCGAAAAGUCAAGCAUAUGCUUAAUGUAGAAGAUUGGGAGUAGAGCCUCU'
p952
aS'GCGAGUAACUCCGUCUUUAUGACAAGGGGCCAUGACCGGGAAGAAAAAUUGGCGUAGCAGUUCCGCGCGAGUGACCGUAGGAGGGGACAUAGCGCCCGAA'
p953
aS'CCAUCAGCUUAUGAGUUCCGGGCCAAGACUUCAAUAAUUAGAUAAGGAUGUCAAUAUCGCCUGCACACUGCGCCAGGAAAACGCAGGACUCUUUAAGCUC'
p954
aS'CUUCUGGGUCGCUAGAGCGUAUGGGUCCGGAACCCGACCGAUCCAAAUAUUAGACUGUAAGCUCCCCAAAAUCCUUUAAUUGAGAGGCACGUCCAGCGGC'
p955
aS'AACAGAGACUUUAAGUGUAUUGGUCCUACACGGUUUGCCCGGGGGGCCCUGAGGCGCGUGUACUAUGCACGAGCCGGAUUUGUAGUGAAACGUUAGGGAG'
p956
aS'GGGGGACGCGUCCUUCAUCAUUGCGAUGUUAGACUUUUGGAAGACCCUUGUGAAUAUCAGGGGCAAUGUGUGAGUCCGAUUUCUCUAGCUAGUUAAUGUA'
p957
aS'GUAUUAAGCGCAUAGAGUCCUGAACUUAAUUCGGGGAACGGAACCAUUCCCGAUUGUGCUUUAGUGGCCUAAAAUACACCUUUUGAGCCGAUCUCUGUUC'
p958
aS'UCAUCCUCAAGUAGGAUAAGAUGAGAUCGUAACGUCGACAUCAUGCUCCGUGAUAUCCUCAGGAAUAGCACAGCGAAUAGAGCGUUCACGUAGAUUCAGA'
p959
aS'CCAGGAUAGAUUAUUACACCAUCUUGAGAAUCUCCAGCCGCACUGGUAGUACGACCCGGGAGCCGGGAAACAUGCCCAUGCUCUCCCCUACCGAGCAUGU'
p960
aS'UCCGCAGUCGCGAGGGGUCAGCGGCGGCGGAGCUGCGAAAACGCUUCGAGGGUAUAUAGGCCUCCGCUCCGAAAAAGCUAGCAGCACCCUUUGGUAGCAG'
p961
aS'UCUCGGACAAAUACGCUACAUUUCGCGCCCUCUACUAAACGUCAACUGAGUCUGGUAAUCCUGGUAUAUUUACUCGCGUGCGAGUUGUCUAGCGCUCGCA'
p962
aS'CACUACAACGAAACUCAGCACCCUCUCGCACAUUGUUGAGCAGCGAUCCAAGCCCCUUAACUGCCGAGUCGAAAUCCAAGUAUCCUCGCUACUAUAUACA'
p963
aS'CAAUGACGUUCGCUCGAUACGCCUGCACGCUCCCAAAGUGACUCCUAGCAGCUCGAUACCCCCUACCGGCUAUACAAAGGAAGCUAUCGUACUUGAUAUC'
p964
aS'GGUUGCCGCGGUUUUUCAUUGGGUUGCAGAGGCUGACCGCGAACUAGAGAUGGUCGAGCUUGGUGCCGAGCAGCGGUGAUAGCAAUCCCCCUGUCAAAGC'
p965
aS'ACCCGAAGACAUCACGGAACCCCUCGUGACACCACACGAUCAAACGUAGAUAUGUAAGUCCAUCGUUCCUGGCCCCCGUGGUUUCGAUCGUUUAAAUUCU'
p966
aS'CUUUGCUCAGUGUGAAUGAAUUCGGGACAAGGUUAAGACCAACAUCGGCCAAAGGGUACCGACAAGUUCCGCGAAAAUAGCAGUUUUAACGAUAUUUUCG'
p967
aS'CCUUCCGUUGCACUCUGCCUGUAAUAGCUGCGAGAAGUUCAUAGCCUAGUACGGUUCCCGAGAAAUGACGGUGGCGGUCUACCGCUUUAAAAGAAGGCUA'
p968
aS'CGCACCCGGAACUGACUAAUAGUUGGGCCCUGUGGGACGCGGGGUUGAUCCCUUACGGCGUGAAACAAGUUGCCAAGUCUUUCUCUCUAUUAUUUCCUAA'
p969
aS'CCACUAUGACGGACGGUCACUAUACCAAUUGGAUAUUGUUCUUCUCACGACGAGAAGAUGACAGUCAUUGCGUCUUCGGUGAACUCGACAGUUGAGGGUA'
p970
aS'AGUCCGUUGCGUACAAGCCAUCACCGCCCAGCCUCAAGUUUGCCGACCGAGACGAAUUUGCUCCGGAUACGACGCAUGACCACUCGAAACUGACAGACAA'
p971
aS'AUUCACUACUAGGUGUCUCAAGCCCGCUGGCGAUCCCUACAGUGAUUAUUUUGACAUAGAAUGGAAUGAGCCGGGGCGACGAGUAACACUUGAUUCAUAG'
p972
aS'CGGGGUCAAACUUACGAAAAGUGUCCGAAGUCGGUUAUACCAACACUUAUGGACCGUUAGGAUCUUUCGACAGCAGCUAGCCGCGGGCUGUAGGCCGGCG'
p973
aS'CCCCCCGCGCUACCCGGCACGACUCGCGGAUCAAUCCGUGAGAGACGCGUUGAGAACUGGAGCACCGGCAGGUAACUUUCCCAGGGCUGUUGAUUGCGGG'
p974
aS'UUUCACGCCAUCUACCCGUUCCAGCGGUUAGCAGUAAAAGUAGACUGUUAUACAACCGGCACUCAAGGAAUUGGCGGGUAGACUGUCCCGACCUGCUUAG'
p975
aS'GAAUUACGUCCCACUACUCCAAGAUCGGCAUAAGACACGGUCGUAACUUUCUGCCUUCCGUAUGUACCUCGACUUAUUUGAUUACAAUCCAAAUGACAUA'
p976
aS'UAGGAGCCCAUCGCCCGGCAGAGAAGGCUCAACUGGUCUGGUCUCGUUAAUGGCAGGAACCUUGAGUCCGCGCUACUUUUGGACGUUCAACCCGAGUUAC'
p977
aS'UGUAUAACGGAGGAGAGUUGUUCGUUCCCCACGGACGUCGAUUUUCUAGGGGACUCUUAUGAUGGAGUCUCGAUGCAGAUCGUUCCUACUCGAAGAACUA'
p978
aS'UCGGUUUUCGUACGAGCCCACCUGCAAGAAGAACACAGGCGGAGGAUGAGCAGCCAUACCGCGCGCACAAGGCUGGCAUAGUUGAGCCGAGCGACAACCG'
p979
aS'UCACAGUGAACACAUCAUGCAGGCACUGGACUAACAGGAUGACCUCUCGAUUCUAAUGUCUUGCUUACGAGGGUGGUUAUCAUAUUAUUCUAAGUAGAGG'
p980
aS'UAAAGAACUCUGCCUCUGCUUCAUGUUGGACUUAUGAAAGCUUCCCACUUGGGAGAAUACGGUACGGGAAAAAGGACGCCGCAACUUUCCCGCUGCACGU'
p981
aS'GUACAACCACCGCGGACAGCGAUCCGAACACCGGGAUAGUUUUAUAACAGUCUCCCGUACGGUAGUUUUCUGCGGUUUCAUGCCUCCACAUAGCGACGUC'
p982
aS'AAUUCUAUGGUGAGCGAUUGCGCUUGACUUAUGGUGGUAUCGCGCAGAAAUGGAAGGUUUUGAUUAGCAUAUCGGUAUUUAAAACUUGCUACAAAAUUCC'
p983
aS'UCCCGAGACAGCACGAUUCAGUCAGGUCCAAGCUCGAUAAAAUGCGGCUACUAUUAUUCCGUGCAUUCGGCACUUGAUUAUCAAUCGUAUCAUAAAGUGC'
p984
aS'CAGCAAUGGGCAAGCCCGCACACAGCUUACACGAGUACGACGUGCUAGCGUACGUGGGCACACCCAAUUAUGCAGACACAUAGCUAACCUCGACAUGACA'
p985
aS'CGUCGAUAGCAUCCCGUAUUUUAACGUCAUCACGGGCAAGAUUGUUGAUCGCCACGAUUAGACACUGAAUUUGAGAAGCUAGUACGUUACUCUUCAUAAA'
p986
aS'GCUUGGCCACGGGAAUUUGGCCUCUGCAAUACAAAAAGGUGCAUAGGGUUGGCUCGACACCUGUUAACCACUUGUGCAUUGACUUAGUCGUCUGUGACCC'
p987
aS'CUAUUAUAACCUUGGCGAUAGAUCACUAAUGACCGCGCCGUUCACACUUCACCAUAAAAUUCUCUUCAGAAAGAAUUAACUCUAUAGCCUACACUACGUA'
p988
aS'CCACAUUAUGAGAGAUCGUGGGUCACGCACACGGGCGACAGUCACGACAACAUCAUUUAUAGUCCACGCAGUGUGGUCGACUCAGAUUCAGCAUUCUCGU'
p989
aS'CCGAGCAAGUACACUUUUUUCGUCUCUGGCAGUAGCCCUAAUUUUGAUAUAUAGUACAUGUAGCUAGGACGAUUAGUGUUAGGAUGCUAGUCAAGACUAC'
p990
aS'GGUACUCGCCGCACGUUGCGAGACGGUAAUCGCGGUCGGGGGACUCCCGCCUAUCGUAUGGUAGCAUGCAUAACCCAUCCUGUACGAUUAGACCUUAGCU'
p991
aS'CGAGCAGCGCUAUGUGGAGAGUACUUUGACCUGCUUUCGCUCACCCGAAAAGACUUAGCCCUCCGCCAGCGAGCGCCUUAGGUAGUAGACAGCCUGAAAU'
p992
aS'CAGUAUCAGUGAUCUUUCAACAAUUGAAAGUAUUGUUCCAACCGCUGCGAAAGGCGAGGGAUCCUCAGUUCCGGUAACUACCUUCUUUGAGGCAUUUCCG'
p993
aS'AAGGAUCGGUCGGUAUGUAUUGAUAAAGCGUUUCACACGCCAAUCCUCCCAACCUGACCCUCCCUAGGCGCCGUAACCGGAGCAAUUUGGGCCCUAAUUA'
p994
aS'AGUUUGUAUAGCCUCGAUAGUUGCCAAGACGGCAUCACGUAAACCUGUUCCUAUUUGGUCUCGAAAACGGACCCUAAUCAUCAACGUACACGUCCCGGAA'
p995
aS'GCUUAUCCAUUGACCUCGCGAUCGCAGUGUCAUCCAUAGCCCUAACGAAUAUAAGUGUAGAUGGAGGACCUGAGUUCACCCGCUGUCAGGGGUGAAGACG'
p996
aS'GCUGCUCGCAUGCCUUUGAAGAGGCUUACAGUGCGCUUUCGGACGCGGUCUUACCUAAGGCCUCACGCCAUAAGACUUGCACAGAUACAACGCACUGUAG'
p997
aS'AAACCGCUUGGAUGGUCUAUAAAAUAUCAUAGUCCAGGUUCAGAGCGAUUUUCUUGUUGUGUCGCAGGGGCGAUCUGGUACGUAGGCGUUGAACAUGAAU'
p998
aS'GUGCGGACAGGACAGCAGGGGGAAAAUGAUAAGUACCCCGGCUGUAGAUUAGUAUAUCUGUCGGCUCUAAUAAAGUGAUCAACGGUAAGCUGUCGGAUUA'
p999
aS'UGUGUCGUAGCUAUUGCUUCAAGUAGUAUCUUAAAUAUCUACGUUCGAAUAUGGGGAAUAAGAUUUCUCGUGGCAGGUCUGAAAAGCAAACAGGCUAGCG'
p1000
a.