(lp0
S'AUACUAGUCGGUAGCAAAGUGAGACUCGAAUGAGCGACCGUACCUAACAAUCAUUGAUUUAAUCGGGUGCAGCUUGAGUCACAGCCAGCCGGGGGUUCGU'
p1
aS'AAGCACCAAAACUAAAAUCGAACUUCUGCACGCUAUUCAGCGCUCGAGAACAUCUCACAAUCGUGGCUGGUUGUAGGGUUUGUGCGAUGACCUCCAGGCC'
p2
aS'GUAAUUUCACUCAGCUUAAGAGGUGAUCGGCCUAAGUAGGGGUCCGCUAGUCAGAGGUGUGCCACGGCAACGGCACUUUUCCGAAACCACCCUGGAGCCU'
p3
aS'UAGAUGCACCAUACAGCACCAGCCUUUUGGAAACCCCGCACAUAGAUACACACUAGGCCUCGUAAACGACCUCCGAAUGUUUGAGUAAGUCGUAUGCCGA'
p4
aS'CCUGUCCCUAACGAGUUAAACGUGGUGAUUUAUACCCCGGCCCAAGAAUGGCCGCCUCCUAAUAAGUACAACAGACCAAGGGGGUGCCUUAUCCCCUCUC'
p5
aS'AUCUUGUGGAACAACAAAUCAAAGAAGAGAAUGGGUGUAAACCUCAAGUAUACAUUUCUCGCCCGUUUGCUGAGUAAUGUCUAGGUUACCACAUCAUGGC'
p6
aS'GCGGACCUUAGCAAGUACAUCGCCGAGUAGAACCUUAGGGGCAUGACUCUUCGGUUACUGGUACCACUAAUGCGUACUAUACCUCUCCAUGAACAAAACG'
p7
aS'ACGCGACCACGACUCGUCGCAGUACCGCGCACACCCCAUAUACCAUCGGGAUAGUUUAUGUCUUCUGAACUCUAAGUUGCACACUUCACAAACAGCGGUC'
p8
aS'UCGUUGCACCGGGCGUGUCUAAAAUGACUCGGAGCACGGUGUAUCGCACUUCUUCGCCACGCGCUGAUUAACAGUUCUACCGCUUCUUAAGCUAAAUUCA'
p9
aS'AGCUUGGAGCACUCCCAGCGACGAAUUACGCCCGGCACUUGGCACCUGGUGGAAAAACUAGGGUGAGAAAGCAUUUAGACCAGAUAUGAAGAUGAAUGUA'
p10
aS'AGCUGAGGCAGCCUGCGUCCGCCAUUCGUAGAUGUGCAGUUAUCAAGCUUAUUCGCACGGGGGAUGAAGUAUGUGCCGAUCUGUAGAUUAAUUGGGACUG'
p11
aS'UAGCUUCGGCAGGACCUCGUGUGGUGCACAUCCCCGUGGUCCAGGAUUGGGGGAAAGUUCUGCGCCCCAGGUAGACUCCAGGAGGAUUCAUGAUACCAGA'
p12
aS'UGGCGGUUAUGAAUGACGGGGGAAUAUGACACAAUACUGGCAACCUUAACCGAAAGAGGCCUCGAGAGGGCGACCAGUCGCGUUGGGUUCCGACAUGCAA'
p13
aS'GGGUAACUAGAACAGACCGGGACACUGUCUGGGAAAAUGAUCACAUAUAGGUCUACUAUCCGUUUGAUUAGACGUGCUGCAACAGUUCGCCACCGACUAC'
p14
aS'GAAUACUUAUCUUAAUAUAUCCAGAUUCUUGCCACCACGCGAGCCUAGACUCAUGGUAGGUAGAUCUCAAGUGUCGAAGGAUUACUGAGUUCCCAAUCGG'
p15
aS'ACGCAAUAAAGAGUUUUCCUCUAAUUCCGAGGACACGGAUACAUACCCUGACGGGCGGAAUGUACUGUAGCGAUCGAAACAUAGCUCGUCAUCUGCUAGU'
p16
aS'GUUUCUCGAGCAAAACUAGUAUCGUCGUGCGCUUCCAGUCAGGGUAGCCAUGGAACCCUGACGUACUCGAAUACUACAGCAAACAUAACGUAACAAGACU'
p17
aS'GUAGACUAAGAGCUGCCGCCAUAGGUUCUACUUUCAAGUCCCGUGGCGAAUAGCCGUCUAGAGCAGUGAGUUGAACUACGACAGGAAUCGGUCCGUUUCG'
p18
aS'GCGGGAACCCAGUUCGGGGGGGUUAAGCGUAGACCCCGCUUAGAAAAAUCGCCAAAUCAGCGUUUUGGUAAUCUGAGCCCAACGCUCGAUCUUAGCGUUG'
p19
aS'UGUGUUUAAGCAUGUCACCACGGUCACACGGACACCAGGAGGGCUAAUGGGCGAACUAACCGGAGCCCUUAGUGACCAUGACGUCGGAUCGGUUAUACAA'
p20
aS'CGAAUGCGUCGAAAACCAUCCCUUUCAGGAGCAAUAAGCCAUCUUAGAGAAAUCACUAGGGCGGCGGCUGGUUUAACGAGCCAGGCAUGGCCCUAAUCUA'
p21
aS'GAACCUGGCCCACUUCGAAGAUAGACGCUCUAUCCGGAUAGCCUAUAAUAAAACAUAUCUAGCCUACCGUUUGACUGCAGCGUGAAGGGAUGCUACUCAU'
p22
aS'GCUCUGGUGAAAGCAUACUUCCAAAACUGAAGCAGCUAGCUCAGAGAAGGUGGCGUAAAGCGGGAAGCCAACCUGUGAUGUCUGGCCCGUCCCCUUGUUU'
p23
aS'CGUAAGCUGCUGUCAGUGGGAUCCGGGCUAGCACCUGUUCUGUGCUGUAAUCGGUGGUGUCUCUGGGAUAGCACCAGAAGUGCAGUUUGGUAACCCCUAC'
p24
aS'UCAGCAUUGGACUAUCUCGCCAGAUUGGCUUUCGUGUCAACAAUUAACAUGUGUCAGAAUUCUUGUAGCCACCACGCAGUUAGGAAAGUUUCGGUACCCC'
p25
aS'AGUUCUUUAGACUUACUUUAGCAAUAGCCCCCAUCAAGGCCCUUCAGUAUAUUUCUGGUAGGGUUCGACAACGAUUUAGCAGAAAUACCUCCCAAAAACU'
p26
aS'CGGUCAUAGUAUUAACGUGGGGAGUGGCGCUAUGUAGCUUGUGUUGAAAUAGUAGGCAACCUUGGAUAGGGAGUGUUGGAGGGGAUGUUCUGGAAGAUAA'
p27
aS'AGGAGUCGCCGUUGAGGCUGAGCCACUUGAUCGAAUCGGACUAUUCUAGCAGCUUCUAGCCGUAAGCUCAAGAUUACCAAGGCCCGAAGGGCGACUCAAA'
p28
aS'AACCGGGAGUGGUAUCUCGGGAUAAUCGACUUCACCAGAAGGACCAAUUAGAGGAGGACAGAAGACAACCAUUAGUGACCCGUUAUGGAAGGUGCUGUCA'
p29
aS'AGAAAAUGAGAUUAUGAGCUUCGUAGCGCUCACUAGGUACCGCUGUAUUCUUCGAUACUGUCUGUGCUCAACAUUGCAUUCAUCGCUAUCUUUACUUGUA'
p30
aS'AAACCUCCACUCCUAACUCCGUUCCCACAAGCACCAAUGGCAGAUUUAACUCCCAUGUCCCGAUCCCUAAGUCACACUCUAUUCAUUGCUAGGGACGCUG'
p31
aS'UCGGUCAGCUAGUUGAUGUGGUCACCGACUAUGCGUUAGAAGUACGACCCUCACAUAGUCCAGGAUCAGAACUCAGUGGGCCCGCUCGUUAAGCCCGUAC'
p32
aS'AGGUUCGCAUCAGGAAAUUGGAUAGAAGUGUGAUGAUUGGUCGCUACCCUGCCCUAACGUGAACCCUUAAGAGACAUUCGAUCACUUCGCAGCUCAGUCG'
p33
aS'GAAUGUGACAUUACAAUACAACAGGACCGUGAAUACCCGUUACACAGAGGCUAUUACGACGGAUGACAAGUAACCUAACGCUGAGGUGAGACUGAGUACA'
p34
aS'UCAGGCCGACCGAUGAAAAGAGGCUUAUGCUCAUAAUCUAAUAGAGGGUCAGUCCCCAAUAGCUGCUACUUCCGGAGCGGUUGUGGUGCUCGACAUCGGC'
p35
aS'GGGGCCCCUCCAACCCACCAAUGCUUGUAGGGCUUGUCCUAAAUCAGCCCAAAUAACCAAACAGGUGGCUGUAGUCCCUCGUUCCGCCAUAGCGCUACUA'
p36
aS'UUCGUCUGAUGAGCCUGGGAGUUGAUCGGGUGCUCAGUGGAGGGGAUGCUCGAUUUUUCCGGCUAUGGACCUAGCGAAGUCCAGGUUCCGUGCUCCAUCU'
p37
aS'CACUUUGCUUAAAGUUGUCGGGGUCAAGAAGACAGUCUGGCUUCCGUCUUGCUACUCCCCUAACCUUUGAAAGCUAUGCUACUCAGUCCGGCAACUCCCC'
p38
aS'GAUUACCAAGGCCAAGCUUCGCAACAUCGGGGAUUAUACGAUCCAGAUAGUGAAACGCAACGCUUAUAACUAUUCGGGAACGACUGUUUGAGCGUGCUUA'
p39
aS'CAAGGUUGAGGGAUGACUACGGUUAAUUUCGGCGGCAGGAUAACAAGCGUGGGAUCGUCGGCCAUCUUCUGGCGCCUCGUCUCUAGAGCCAAUCCCUGUU'
p40
aS'CGCUUAUUGUACCGGGCCAGCGCCGGCAGCGGGCGCACAAAACCUAUGAAUCGGUAAACGCGCAUAUUGCCCGUCUACCCACGGUGAUCCCGGGAUCCGU'
p41
aS'GAAAUCGAGAGCUCACAAAAGACAGACAUAGGGCUGUGAGACUCUUAAGACUGCCCCUGGCCACCGCGUGAACAUAUCUCAAAGGCCCGUCUAGAUCUUC'
p42
aS'GCAGCUUGUUGUUUUUGCGCGCUGGAGCGUGGGCUUUAAACAAAAGGGUCCUAUUAACAAGUCGGAGUGGUGUGCACCCAGGAACGAUAACUUAGUUGGC'
p43
aS'UACUGGCUACAACUCCAAUGUCUGGAUAUCCAUAACAGCUGACUGGUAUUUGUAGUUCACUCGACUAGUGUUAACUAGAACUCGGCCUGUCAAAGUGCGU'
p44
aS'GCGACACUGAAUCAUUCGAAUUCGGUAUAUUGACCAUGCGAGUAACGUUACUCCGUUGAAUGCACCGCCCGAUUACCAGUACGCCGUUAAACCCUUAGAA'
p45
aS'GUUCAUCUUGUUCGGAGUUAUGUUAGGAUUAACCCCUAUAGGGCCUGCCAUCGCUCACGCUUCGAGUGUCACCCGACUCGCCACGAGAGGACAGUCUACG'
p46
aS'GCUUUGGAGCGUUGGGGAAAGAAGGGAGUGAUGCCCUGUUACAGCUCUGCAAGCUAAAUCCUCUAGUACUCUAGACCGUUUUCGUUUCCGGUGUGGAGUA'
p47
aS'UCCGAUUUCGAGAAGUGCAUUCGGCCAUUGGGACUGAGCUCGGGUCCCUCGGCAUGAAAUUAGACCCUCGCCCGGUAGGCCCCAGGCAUUGUGUAGUUGU'
p48
aS'GCCCCAGGCUGGGAGCUUGCCUAGAGUAUACCAGGCGCAUGGUGAGCUUUAGCCGGUAUCUUCUAGCACUUUUGGCCCUAAAUGCCUACGCACAGCCGAU'
p49
aS'ACUCAAUCCAGCUCGUGUGAGAAAUCCAAGCUAUUCCGAUCGUAUUUACUUCUUUGUGCAGUAGCACUGACUAACUUGCUAUUUGCGGGUGACGGUGCAG'
p50
aS'CUAAGUCCCAGAGUAACAAUUUGAAUCCAAAAAGUAUCAAGUUAGCCUUGAUAUGCUGUAGUUUUUCGCAUGGUCAUCUUCAAGGUGACUUUUGCGUAAG'
p51
aS'ACUGAUGAGGGCUCUAAGACCCUCUCGAUAAAGGAUCCGAGUCAAGGACAGCGUGUCUCGUUUGAGUAGAGAAAGGAGAGGCCGGUUCUUGACACACGAA'
p52
aS'UACCCAAACACCUGUGGUGGACGCUAUUACCGCGUCCAGCAGCUGUGACCACACCGGGCACAUUUCACUGAAACUCACUACCCCUAAGUGCUUUAUAUGC'
p53
aS'CAUAGUCCAUGUGUCGUCUGACCGAGCGACACGUAUCACGGCAUCGUCUGGAAGGGGAGCCGGCAGAAGCAGGGGGAUUACCCCGAUCAUCAUCGUUGUU'
p54
aS'GUUCUUUGCCAGGCGUUUAGAUUUGACCGUGUUGACUUAAGCUUCAUCCAACGUUGGUCUAUGUUGUUAAUGCAAGGAGGGGAAACACCCUCCGGGUCGA'
p55
aS'AACUUGCGUACGUAUGCAUUCUUGCCUAACCUUUAAUGUUUUUGCUUGCGUGUGUCACCUGAAAUUGUCUCUCACCAUUAUAAUGCCAUGAAGUGCGUCG'
p56
aS'GCACACGAGGGCCUGGGGGGACCCGUUAGUUACUUCACUCGUAGGCGUGGCCUAACGUCUAUUAGAAAUGCUUUACCAGCAUCGAUCGCGUUUUCUUCCC'
p57
aS'GGCAUUGAAUCGCCAUUUGAGUGAAUUCUGAUGUCUGAUAUCGUGCUAGUCUCGCUUGGUAACACGUACUGAUUUUUCACUGGGUUCGUGUCUUAAAAUC'
p58
aS'ACGUACCGCUAGGUGAUGCAAAAAAGUACUCCUCCGCGCUGAGAUGAUCAAAAUGCUGCGGCGGCCCUACAUUGCAGGAGAUAAGAGUAAACAUAGAUUG'
p59
aS'GCCGGAUUGGCUUGAGAGAUCACGGUUUAAGGCUGAACGGAUCGACUCCCUACGGACUAACAGUCCAUGUUUGCCCAUUGGGAGGCGCAAUCCAGUGCUU'
p60
aS'UCAUGCCACCAAGGAUCAUAAGCUAGACACUCUGUUUACUUGGCUACCAUACAAAGAAGCUCAUUUCGAACAAACUGUUAGCGUGUCAUUCUGAAGGGUG'
p61
aS'GCCACAUUCUCUCUGAACAGCACUGCAACAAGAACUCCUUCACAAUACUCCUAAAUGAUGCGAGUAUGAAAAAAACCUCAGCUUUACCUAGAGUUCUCCA'
p62
aS'GGACAUAUGUAUUUCUUCGGAUAAAAAAACCCUUCAGCCCUUGUGUGGCAUGGAUUCAAUUAGUCAUCGUUUAACGGAAGAUUGAGGGUUCCUUCACUCC'
p63
aS'AGAGGCCAACCCCCUCCCAACCAAUUCUUCCAGUGACGAGGCUCCCCCGCGGGGGUAUCAGGGCUUUACUCCUCGUAUCUCGUCCUUAAUUAACCACUAG'
p64
aS'GCGUGAUGAUGCCGAGAUAUCGGUGCGAAUGUCGGUGUAGGUUGGCAGCAGCCCAGCCCGCACUGAAAAUCUAGCUAAUGUCCCGGUGUCGAAGUCUUCC'
p65
aS'GUGGGGACAUUUUGUCAUACACUGGUGUGACUUACAACAUACUGUGGGCAGCUGCUUACAGACUUGAGCUGGGCAGGACGAGGCGAUCCCAGAAGAUGUC'
p66
aS'GUGUUGUUUAACUAUUGUCUCACAUCUGUGGGUAGAAGGGCCUCCCCUAAAUGGUUCCCGACACGUCUGCGGCGGCUGGUUACACUAGGGCUCCCCUAAA'
p67
aS'CGUUCACAUCAGUGUAUCUACAGAUUCUCCGAGGAGUGCAUAGCAGUACCCGGUGUGUCCCUGAAGACGGGCGCUACGUCGUGGCCUGAGAGGGGGUUUC'
p68
aS'UUAGCAUCCUUUCAUUUUACGGCGGACCUGCCUGUCUGCCGCCGAUACCUCCCUGUGGAUGAGAGGGGGGGAAUCGGACCAUUCAGGCUUGAAUUCAGUU'
p69
aS'CAGCAAUACACCUUAUAAAGCGUGCUCAUGGCUUAUUGAUAAUCGACACGCUCCGGCGUUUGCCAACUAGGGAGAUUGUCGUGGUCGGUCGCUCGGGGUA'
p70
aS'CCCGUAGGAACGCUCCAAUGGUAUAGGACGGAGAGCAGCCGCCACUGGGAGGGUCCAGCCAUAAUCGAUACGUCUAGAACUAGCACGCCACAACAAGCCC'
p71
aS'GUUCAGAACAGGGGUCUGUGCCUGACCUGCCUACGUAGGUCGCUCGCUCGAUUCACUGGUAGUUACGUGGCUCCCCUGUCCAUACAACGUUUCUUUGACG'
p72
aS'CUGUCAGGACUAUGAGCACUUCCCUCCUGCUAUUAAUUAUGCACAACGGAACUGAAAAUCUUUGUGACGAGGCAACAGAAUAUCAUAAAUUGCUUCGACC'
p73
aS'GCGGUGCUGGUUUCUAAGUCUUGCAAACCGGGAACUCUAAAACUCACUCAUAUGAGUAAGGUCUCGUAGAUACUGACUUAUCCGAACAAAGCGUUGUCCC'
p74
aS'CGUCUUCUAACGCUAAGAGGGUGGGUGGGCUUGUAUGAACUGUUUGGUAGGGUCGUUCUUAUCACAUGAAAUCCUAUAGUAAUCUGAACAUCUUGGUAUA'
p75
aS'UAUGGAGUGAGUUGAUGAGCGUUACAGGUGUGGCGUUCAUUCGUAAUUUAUAGUUGAAUCGAGUACCUCGGACAAUCCACUCAUUAAGCCUUCUGCCGAG'
p76
aS'CCUAUGCCGAACCUAAAGGCUACGAAAAAGUAAUGCGCCGACUAUCUAGGUCAGGAGGGUUUAAGCGUGACGUCACACUGGGCCAGAAGGAAGGGUCUAC'
p77
aS'AACUACAUAAUAAGUUGCCUUUGGUGCGAAUAAUGAAGGCCUAACUCUCUUAGUUUGAAAUCCUAAGUGUACAUAUGUACAUGGGAUGUUCCUGGACUAA'
p78
aS'GGCUAAUCUCAUCCCCCCAAGGUGUCGUAUAACGCCUAGGUACGAAGACCCUUGAAAACUGCAUGGGGGCGCUUAUCCUUGUUUUGACCGCUCGGGGAAU'
p79
aS'UGGCUUCGGUAGUAACAGCCCUCAGCUUUAGAAGACCGUUCGACGCCCCUGGUACGUUUUUCAGCGGACUUCGUUACGUCUUGAACGUUGUAUAUCACUU'
p80
aS'CAAGCCGGAAUUACCAAUAGUAACUCGUUAAAUGCCAUGACAGCCUGGGAGUCUGUGUGAUGCAUCUCCUCCCAAGAUCGUGGACACCGAUCCUAACUAA'
p81
aS'UCCAUACCUUUGUAGGUCACCGCGCGUAUGGCUGGGUGCGUCUUCCGACAAUAGGGGUGCCCAAUCCGGCGCCGGAUGCUUGCGUUUGAGACGGUCACGG'
p82
aS'AGACCGAUUCUACGGUUGAAGGAGACACACGACCCAGUCACCUCGUGGGACCUUCUAGCCUAGCGUAUCGUACACGAUAGCCAGGUUAUACAAGCUUUUA'
p83
aS'AGAUCUCUACAAGCUCACAAUCGACACAAGUAUUGCAACCGUAGCUUGGUGACCCUCAUCACUUCUAUCGUCACGAUUCGACCAGCAUUAGCGGACAAGC'
p84
aS'UGAUUGUCGCCAGGAGUUCGAGACCAGCCGACGGCUUUAGUUCGACUGGAAUCUUCGGCGGGGGACUAAUGUUAUAUCAGGUUUUGCGCAAGCGGGCCAG'
p85
aS'AGGGCACUGAGGACCGGCAGCCCCUUGACCGUGAUUAGGCUAUUGUGCAGUUAAUAUCGAAUGCUAACAUGCCCUGUGUGUCAAUGGAUAUAUGAGCAGU'
p86
aS'GAUUCUCAACAAUUUAAGUAUAUUACUACGGAGAGUGGCGCACUGCCGUGUCGUGUUCGACUCAUAUGUUUCUACGGUUUCGCCGGACCAAUGCGACCUA'
p87
aS'GUGGUCGUAGCCUUUCAGGCUGAAGGACUGUAGUGGGCGGCGAUGCACAUCAACACCUGCUCUCUCCGUGCGGGGUGCGGACAGAAUCUGGCCGAGCUGA'
p88
aS'CUAACCGUUCACCUAAGGUCACGCCGGCACACGAGGUAAGAGGGCGCGUUGGAUCACGUAAAGGCCGCAGAAGUACAACUUCUUCGGUCAUCGGCGUACC'
p89
aS'GCGUCAAUAGCGGCAUUGAGGCGUCCGGAGCAACUCAUUAUUAACUUUGGUUGCUUAAAUGAAGGGGAUGACGAAUGUCUUUUAGAUCUCCAGUUUCUAC'
p90
aS'UUCUGACCAACCUCAAGGAACCAGUCGCUCCUUGGCGUAGUGAAAGUAAAUGGAUCUACUUUACCCAUCAAGGUUAUUAAGACUGCAAGUGGAACUAUGG'
p91
aS'UAUAAUUAUCCAAUUACUGGGCUAUGCUGGCGUCGUCCUGUGUCAGGUGACAACCUUCUCGUUACUACGAUCCCAGACGCAUUUGGGUGGCGUACUUUAU'
p92
aS'UGGCUCUCAGUAGUCAAUGCACUAUACAACCAAUGGAACGUUCUACUAGAAUCCCGAGAUAAUACUGAAGGGGUUCCCGCGAGGAACCGCGUUCCGCUCA'
p93
aS'GGGAUUGGAUCCAGCCGAUGAGACGGUAGAGCAAGGAGUACCUACAAUGGCGGGUCAUCCUUCGUACCUUCAUGUGACGAGUGGAAAGUAGCUUGCAUCU'
p94
aS'CAGGUGAAGAGCUCCUUCCAUUGGACUAUGUCACUUACCAUCGGAUAGACGCGCUCUACUACACAGAGCACCGAUUUGCCGUUUAAUCAUAAGUUUCUUU'
p95
aS'GCAGUUCCAUAGACGGUGCUAAUGAAGCAGUUAACUCAGGGUGCAGUCAGUAGUCACCUCGGUCACUCUCGCCAUGAGUUACCUCACUGCCAAGCAGGCU'
p96
aS'UAUUGAUCACCUGCUGUGCUACCAGGGUCCUCGGUGGCGGUCAUAGGUCGCCUAGGUAGUGUGGAUAGAGUAUAAUUCGCAGAUAGCGAACCCGCAGGAG'
p97
aS'UACAGGCUCGUCGAAUGAACGUCUAUGACUUCUCGCUUCUGACCCAAUUAUGCAGGAGAGGUAACGCGGCGUAGCGUGGAUCUUACAGCUUACACUUUGC'
p98
aS'AAUCGGGUUAUGCGAGGCCAUAUACGACCUAUUGUUUGGACGCGAAACAAUCUAGGAGAGUAGAUGCAACAAGCAAUAGACUUGAGGAACUCCCAUAGUC'
p99
aS'UAACCCUGUGGCGAGUAGAGACCUUGACGUGGCCCUAGCACUUUGCUGACUACUUGCACCAUAACAAUGGGCCUAAGUUUGGGGGGCUUCCCGUUUGUUU'
p100
aS'ACGUCUCGGCUAGCCGACCACCGAAAGAGUUCUGGAAACCUCAGUAACAGGUCCACAGGGGCGACAAGUGACUGCAAGUUCCCAGCCUGCAUACCUUACA'
p101
aS'AACCGAAAAACUCAAUAGCGUGGGACCGUACACGGGCUCCAUCCUCUUAUAUUGUGGCGCCUAAAUAGUGGACGGAAGGGCUCGACCUCUUUAGAACGCG'
p102
aS'UGUGUACGGAGUGGCUAAAAACUUGUGUCUGUAUCGCCUAGAAGUAAGCCCGGUGGUUAACGAUAAAUAUGCUAUCGUAUUCUGCUAUGUUUAGUCCAUU'
p103
aS'UCUUCGGACGUCGAAUACAGGAUGCAAACCCAAGAUCGCGGCUUUAUCCCCAUAAGAAACCUAGACGGAUCGCUACGCUGGGCCAUCUCAACGCUUCAAA'
p104
aS'ACGAAUACAAUCAACGCUGGGUUGGCCAGUAGAUUACUACGCGCCCCCAACAAAUAGAAAUGUAACUAGACGCUAGAGCUCCUCAUUAACCCUAGUUGGG'
p105
aS'UCAACGCGAGCAUUGCCGGGGAUUGCAGAAACUCCUAUAAGUGCAUCGGGGCCCAUGCGCCCACGGGUUUCCACCCAGCCAAUGUAGAAUGCUUACUCCG'
p106
aS'AGCAGGUUGCUUUGGCAUUAGUAAUCAUUAUAACAGUCUUUGGUCGUCAUCCACUGCGACGUAGCCUACUACAGAAGGGGGCACACUACUACGCUGGAGA'
p107
aS'AGUUCGCCCUAAGUCCCUUGCUCCAGCUAAUGCAGAUUUACUUACCACGGACAGAUUACUUAGUUAAGACCUCGUUGAUGGCGCAAAGAUUGAAGUACUG'
p108
aS'UAAGCAUCAGGCUACCAUCGCUAGCCUCUCCGCUUGUGCUGUUAUAUUCUAAUUGACCUAUGUCUGAGAGGAUCGCUAAGGGCGUGCGUGAGCGUCAUGA'
p109
aS'GUAACGCGCGUCGGCGUUUACAAGAUUGUAUCUAACUCGCACGAGACCUUAGCUGAUCGGCAAGUAUAACGUAUACUCCGACCUUUCAGACCUCUUUAGG'
p110
aS'GUCCUUGGUAGGUGCCGGCUCACCUUACCAUGAGAUGAGUGAUAUGAUUCGGCAACCGUCGGUUAGCCUCGGAGAAUUGUUAAGUUCGCCUCCCGAGCUU'
p111
aS'CGUCUGGCGCCGAGUGAGGGCCCCGAUCAUUAUAAUAAAGUCCGAUCCUCGAGUAUUGGGAACCCGCCUCCAGUGCCUUCGGUUGCGGGUCCUGACAGGC'
p112
aS'CACCCUGGAAAACCCUUAUAGGACGAAAGGGGACCCAACCACACAUGGCAAACAAUUGUCUGAGAGUUUAGACCCGUGCUCGUUACCGAGUGCAAGAACC'
p113
aS'UAAGCCCUCACGAGCCUCCCCUAUCGUAGAUCAAAGAUCGUCAUCCCCAAUGAAUCGAACAUUGUUAGCAUACACGAUAUCCGCAUUAAUCCUUCAAUGG'
p114
aS'GUGAUUUUCUCCCAAUCAGCGGCAAUAACCUCCGCUGAGCGCUCUGAGCUCGUGGAGCUCAGGAAGGUUGUUUCUAGUUAACAACCUCAUAGAACCCGCC'
p115
aS'UCGCCACACCUGGACUGGGCUGUUUAAGUGUUGAGCAGCCUGCACGACUGCGCUCGAUUGCUCAGUGUAAUGCCUCAUAACUACGACUACCGUAUUGUUC'
p116
aS'CUUACUCUAUUCAAUUUCCGAUUCGAUAUUUGGGAGCCUGGUCCAUGACCGUGCCUUAAUUCAGCGCCUAAAAGCCGGUUAGCAAUCCGUCAAACCUGAC'
p117
aS'GAAAAAACACGACUGAAGCCACUGCUCCCUCUCAACACUCCCUCAGUAAUGAGAGCGACCUGGCUUACCAAAGCACGACAGCGCACAAGACAGACUCACU'
p118
aS'UUCGCAGGCCGUCCCCGGUGCCUGCCCAGCACUUCUGCCUGACAGCUACUUAUAUGGGGUAGGGUGCGAGUCCUAUCCUUAAUAUAACAGUAUAAGCGUC'
p119
aS'CUUGAUGCAAAAGCAUGUCGAUGACCUUUCAACCGCAACGUCGAUGAUUGCAGGAGGAUCGAGUAAUGAGGAGGCGUGUGGAGUCUUUGGGAUGGAUCCC'
p120
aS'ACUCAGUCUUAACACCAAACCAUCACUCUCCGUCAUUGGCAUCGUAGAGCUCGCCAGUCUGCCCAACGAGGCAGUCCGCCCAAUAAUUCUGCUUUUGCCU'
p121
aS'CAAUAACGCACUGCUGAGUAGUAGUAAGCUACUGGUAUAAACUGUACCUAAGUUAGCCUCCACGAGGAGUGGCUGCCUGAAUCGGCGGCGGUUACGCCAA'
p122
aS'AAUCUUAUUGCGGGGUGCGGUUUAGCUCCGAGUUGAUGAGUACGCCGCCUGACCCGGGACUCCUCGCGACUCAGCCGUCCUUCUGCCAAACUCGUACUGA'
p123
aS'ACGCCACUAACGAUGCGUCGGUUGUGGAAGCAGAAAUCUUAGACUACAGAUGGUCGAAGAUAUCUGUGACCCCUAUACAUCCAUACGCCUUGAGCGUAAA'
p124
aS'AACUGAAAAGGAACUUCGUUAUGGAAACACCUACUUCAAUGAGAGACUAGACUGAUUUUGCAGACUAUGCCCUAAAAAGCAUUCGAGGGGAUUUACUUAU'
p125
aS'AGAUUCCAAGCUCACUCCAAUUUAUAUUUGUCACCUGAUCGCCUGAUUCGCUAUUCCAUCUCUAACAUCCGUCGCCGGGUUCACCGUCUUUGAUGAAUUA'
p126
aS'UCCGUGACUGGCCACCCUCCCAAUACGCGGUAAGCAUCCUUAAAAAGGUUUGCCAGAUACAGAGGCUAACGCUCGACUAUCCACGGACAGCCUCCCACUU'
p127
aS'AGUGAAGCACGCUUCCUACAAUCAUGGAGGUUAUGGCGAAAGACACCGUCGGGUACUACUGCAGGAGUGUCGUUACACGUUCGCCAAGGUAAGUGGUGGU'
p128
aS'UUGGCAGGCUCUGUUGACCGGGCUCAGCGGGGGUCCGUAUUGGGUACGACGAUCUUUUAAACAACGGCAGCGGGUAUUUGUGGAAUCGGAUAGUCCCGGU'
p129
aS'UUGAAAACUCGCCCCAAACAUAGACAGUGUCGUAUGAGUGCACCGGAACGUCGUUGAAUGUCCAUAGCGAAAUGUUAUUAUCUCGACAGUUUAAAGGCCC'
p130
aS'CGACUCGGGAAUAAUGGGGAGUAAUCUAGAAUUUGCCAUAUCGACAUCCGACUAACUGUGACGUGCCGGACUAAAUUGGGCGCUAGACAUCGACAAACUU'
p131
aS'UAAAAUCAAAGUAGCCCCACUCUACUACUGGGUCUUUUCAGCUCGGAUGCCACGGAAAGCAGACUGAAGUUAUGGGCAGACAACUUGCCGGGCUUCGGGC'
p132
aS'UAUUUGGCAACGGGCUGGCAUAAUUGUUAAUCCAAUCACUGGCCAUAACGUCCAUUUCAGAACGCGUAAGAGAGCUCGGGUCGGACGGCUCUCGACCGGG'
p133
aS'AACGGUCGUAAUAAACCGGUACUUACGCUAAAUUAUGAACAUAGGAAAGUACGUACAGACACGAUAAAAACUUCUGGCCACUCAAACGUCUAAAGCGUUU'
p134
aS'CUUGGAGCGUCCAUUACCACUGGGCUUCGAACACACUAAAACGGGACGAAAGUACCAUACCUCUCUUCAAGGUGCGCCCAGCACGUAGGAUCCGGCGUUG'
p135
aS'AUAGAUUUUGACUCAACCACGACACGAGUUUCGCCUCCUCUUUUAGCAUGCCCCCCCAAAUUAACAGCGAGCGACAGCCAAAGUCAGUAGUUGGUGUUUC'
p136
aS'AGAUGAGACGCAUAGAAGGUAAUAGCAUGAACUCCUUCUGACGGAACGGCGUAGAUAGCUGCGUUAAGAACACUUACCUUGUCUCCGCAAUUGAUAAAAG'
p137
aS'GAUCCUAGAGGAGGAAUCGGAUCGUAACGUCAGGACACAAUAGUAAUUGGCAUGGAAGUUUGAGCGCAUGCCGGACUAUAGCGACACUAAACGCUUACCA'
p138
aS'UGGCGGGCCUAGUGGCUGUAACGCGGUUAAUACGUAGUGUGACUGGGAGUUACACGGCACAUAGCGGCUAGUAAUCUACUCAAUGCACGUCAGAGGCUCU'
p139
aS'GGUGGACUGUUCAUUCUAAUGCGCGAAUGUUCUUCGGCUGAGGAGCCUUAAUGAGUAGGUGGACUCCAGAUUUAAGGGAGGCCAGUAAGAUUGGUAGUUU'
p140
aS'GAAUGGUAGUCAGGGUCUUGCCUGUGCCUAACCAGGAUACCGUGGUCAAACUAUGACUUGUGCCGCUGCCGUUAGGGGGAAUAAAAGGAAUUAAAGCUGC'
p141
aS'CUGAGAAUAGUCCUCGUGAGUCAAACUCGAAUCCCAUUUUGGCAUAGAGUUGACGUAUCCUCAUAUUCGUCGAAGACUUUUCAAGCCCCACAGGUGAAAA'
p142
aS'GUACCAACUUCGAACCACAAUGGAUGUAGGCCCAACUAGGCUAAAGUAACCGAUUUGCAUCCUUGACUAAGUCAGAGUUCGUCUUUACGUCCGUUGGAGA'
p143
aS'UAAGUCGCGGGAAUCCGAGUCGCUGGUGACGUCGUAGCGAUGGGGGCUCUGGCGAUGUGAAAAGACCUUUCUGAAUUAGUACUGCACGGAAUCGUGCAGU'
p144
aS'CGGUCUGAAGUCACAUGUGGAACAGCUGAGGUGACCCUAAAAUCGCAGAUCAUAGUGAUUGCUUCCAUACCGCCAACGUGGUUCACAAAUAAGCCUUUCC'
p145
aS'AACUUUGGCAGGCCUUGGAUUAGUUGGCUCAAAGAUAAUACAGCUAGAUCGCCCGGAUUAGCACUGGUGAAUCCUUCCAAGUCGAAGGUAAGCCGGGCCU'
p146
aS'AAUUGCAUUGGUAAUUGGGCGCUACCCCACGCGAGCAGCGCCGGCAAGAUCAGCACCGGAAGCGUGCCCUUAGGUAACUUGCAGCACUAUGAACAAUCGG'
p147
aS'GAUUUAAUACACAUUAUGCAAGUAAGAAGAUGGCUGUAUUUAUGAGAUCAUCGGCUCGCUCCAGCCCACGAAAGACGUUGCUGGACCCCAGGUUUUCACA'
p148
aS'CCGACGAAAUUCCUUACUAUGUCGCAGUCUUCAAUCGUGAGAGGCGUGAUGCUCGGAAACUAUUAAUCCUGACUUACAUCCAGAUGGAUCUCUACUGAGA'
p149
aS'AACUUACCCCCUAGCCCGCUUUCCACAUAACCCUCGGAUAAGGUCGCGAGCUGGUCUAUAUGCGGACUUUACGUAAUUGGACUGAGUAUAUGACCUACUC'
p150
aS'CAUCUACUUAGCGUGAGAAACAGCGUUGUCCCUCUAUAUUGCGACUUCCGGUUCGUGCGUCAACAAGUAACCCUUUUUCAUCAGGUUUCGACAGCGUUUA'
p151
aS'UAUUAUGCGCAAUAUAUGUCUUACUUAAUCGAGUUAAGGCCAUGAUGAGACGACGCCCGUGAGAACGCCUAGGGUCCCUUCCCCACCGUAUCCCAGGGUG'
p152
aS'UAUGAGCCAUCUAGAAGCAAAUAACCCGGUUUGUUGAGGUAGUCUUCCUAAGACAUCGUCUAAUGCAUCGAAGGGUUCUACCAAGGCUGCCUCAGUGUGU'
p153
aS'GCUACGAAUGGCUUAUAAGCCAGAUGGCGCCUUGAUCGCCCAUGCCCUCAAGAUGACCCGAAGGGGCUCAGUAUAAGUACGUAGCUCGAGCCACAACCCC'
p154
aS'UACAGCUGGCACCGAGUGUCGUGCUAGUUAAACGCGGCUAGUCUGAAUCUGCAUUAAGCUCCGAAAUGGGACUACGGGGGCUUGGGAGUCGCAGUUCCGA'
p155
aS'UAUUUACUGAACGAAAGUCUAACUCCUAUACAGUGUUUCGACUCCUAGGCCACUACAGGGGGCCUUCGGCUUACCCGAUGUGAACUUUAGCGAAGAUGAC'
p156
aS'GGAGUUAGGAACCAUUUACAUCAGCACAUUCUAACAAGUACGUCAGAGGUACCGCGCUAAGGCCCCAAUCGGUUAAUCUGCUCUAGUCAGGCGACUCUAA'
p157
aS'CUUAGUGAAGCCGAUUUUUGCGGUUGCAUUCGGAGUUCUUCUUAGGGUGGUUGAAAGUGAAGAGUGUAGUCGUAAAGCCACUUAGCACUUAAAGUUGUAU'
p158
aS'GACAGUUGGAUCAGAGCAAGUCAUUUGACUUUGGUCUGACGCUGGACCACGAAAGAUGUACUUGUGCGUUCCGGCUAUCACGCUGCCCCCAAUAAGUACU'
p159
aS'CAGUGACAUAGACAGUCAGCCGCUUCACGGUUCAUAACGAGAGAAAGUAUAUCUUCACAGCGGUGCAGAUAUGUGCAGAGCAUGGCGCUCACUACCCCUG'
p160
aS'CGAGCCGGUGCGAAGUUAACGUGUGAACGAGAGUUCGGACCAUAGUGAAGUCGGGGGUAGGCCCCAUCCAGUGACGAGUCAGAUAUUUGAAUUGCAUGCU'
p161
aS'UUCUUAUAUUAGCUUUGCACAAGUGAAGAAGAAGUGACGGAGAUGACUGACCCCCACACGGGGGUCAGGUAUUGAGUGCGGUCCCGACGCUUGAGGCGGA'
p162
aS'ACUCUGUGAGAGGAGGUAACUAAGGUCCUAGCCCUAGCUGGGUCAUGCGGAAUUAGCUUACGAAAUUGGUAGAUUCGUUAUGUUUGCGGCGGUCAACUAC'
p163
aS'AGAGAUCGCACAAGUUCAGGCUUGCGUGGACCCUUAAGUAUAUGGCUCAGCAGUCUACGCAGCAGUCGAAACCGUUGCACCACUCUUAGAUGCCCUAAGU'
p164
aS'UUGCAUGGCUACAUGGGACUGGUUGCUAUCUGGCCUACACUCAGACGCGGUGACGUCCAUCGUACUCGGCAGUAGAUGUCUUGAAGGUCCCUAAUACAUG'
p165
aS'UCUAUCUGGAGACGUUUGGCCCCGGGCUCUGAUCCUGAGCAAGAGAAUCCUUGCACUUCCGUCUGGGAAAUUUGUGAAGCUAACGUGUGCGCGGAGGGGG'
p166
aS'AGCGUACCCUUAGGGCUGUUUACGGGAUUGCCCCCCCAAUUGGUGAGGCCAUUGCGAGAAGAAUGGAAUGGCAGUGAGAGUUCACACUAUGACAUUUCUU'
p167
aS'GCAUCUCGGUCCCAACACUCCAUUCGAUUAUGAUCGCGUUUAGACGCCUUCAAUGUGCACCUAGGGGGUCAUAGCAAGGAACCAAUCUAAUUGGGAACUG'
p168
aS'GGGAUACAUAUUUGCCGAUCUCAGAUAGAGUCACUACUCAACCCCUAUACACUUCGGUACCUAGACAGACUAUGUCAAGAUUAAGUCAUUAACUUGCGCG'
p169
aS'ACUUAGCAUAAUUGGGGGACAUCACUACUCGCAAGCUCCUUAGGCCAUGUCGUCUCGGUCUCCGCUCGAGCGCGGUUUUUCCCUUCCGACGCUCGUGCGA'
p170
aS'AGGCCUUGUUCCAGAGGGACCUCAAAUCGUGACGGUCAGCGCCUGGUCGAGUUAGCGUACCCGCUGUUCCAUCAACUGGCGUGAUUUUAUAAGUAGACAG'
p171
aS'GGUCUAACAGUAUUAGUCUGCUUCUAGCCAGGUGCCCGGUUAGCACUAGUUGCGACCGCCGCAUAGUGAUCUCCCUGAGCAUGAUGUCUUACUUCUCUGC'
p172
aS'CCUUUGGCAUACUAACCAUAGCGAUGGGCAGAUCAAGCUUGGAAUCGGUCAUGGCGGCGUAUUCAGACCCCAUUUAUCGUACCUCUUACCCGAUACGCUC'
p173
aS'ACUCUUUGCCUGGUCACGCGAACUUUGUUUUCCAUCUGAACAGGAAAACGUUUAGCUGAAAUGUAAGCCUGUGUUAAACAUGGGACUUGGUUACUAUCGA'
p174
aS'UAAUGGGCUUUUUAUCACCGAGUGCUGUCGGUACGGCAAGUCGGGGCAACCCGGUCCCUCCCUUUAGGGCAGAAAGGUAUGCGUGACACCGCCGGCCAGG'
p175
aS'UCGUUGUGACCAUCGCGGAAGUGUAUAAGUUUGCCCAAGCUUUUUAAUAAAUUGUCCAAGUUCUAUGCUCUAAUCACGACAUGGUGUAGCCUGCGCAGCU'
p176
aS'AUAGUCCUGUAGAUAAGCCUGUGAAGAGACGGGCAUUAAAGGCCUGACCAGUUUGACGGCUGGAUCAGGCAUGUGGCAUUUUUUUGUGGUGAUCCUCCCA'
p177
aS'AAAACCAGCAAUUGCUCUUUGAUUAUGUUCAACGCAGUUUUGGAUCGAGAAGAGGAAGGUAGCGCAGUGAACGACUGUCGUUUUCCUCGAGACAAGGGUC'
p178
aS'UAUAACUACACCAAGCCACCUCCCCGCUUUGAAACAAGGGGAUGACUCAGUCGGCCGAUGAGAGCCAGUCCCUAAAGGGGCCUCGCUGGGGGAGUGCACA'
p179
aS'AAGUACCGGACGUUCGGGCUGAAGGCCGCAACCUUUUAUCCUUCCUCCUGGUGCUACACGCACGAGCCUGUGCGUAUUCGGUCGGUCCGCUACUGUUAAA'
p180
aS'UUGUUGCGAAAUACUCGUUUUAGACCCCCGUCCGAGUGGGUGUUACCGAACAGGCGUGUCAAAUUGUAGCCAUGUCUGAGCGUCAUAGUAAGCCGAGGCC'
p181
aS'ACAAACUAACACGAAUACGCACUUCUAACGAAGUGCACGCCCGCCGGCCGUCGGCAAUGGAGGUGGCUGUACCUUGGCUGGAGGCCAGGUAGGAAGGUGC'
p182
aS'CUUCAGAAACACCGAUCACAUUUAUUUCCAAGAUGGACGAACUUACAGAGUACCAGACAGGUGAUUUAAUUGAACUGGAACUACAGACGAGCAGGGCGGA'
p183
aS'UUGCUACCAGGUAUUGUCUGAACAUUUACUGUAAUGAAGCAAUCUGAUACAUCUUUGGAAUUCUCCCUUCAAUUAGCAUGCAUCAAGCAGUAACUAUUGG'
p184
aS'ACUGCUACUUGGAGGGACGACGCCGCUCUCUGACUGCGGAGGCGGGUGAGUAUAUAGGUGGUGAGUUCGUCUGCAAAUGCUAGGACAAUUCUACACGCUC'
p185
aS'UAUUCGUGUUAGUCAGAUUUUCAUACGGAAACUAGGAAACUGUCAAGGCGCUAUAUCCCUGUUACCAACGAGCUAUAAUAGGACGAAGGCCGUGCGUCCG'
p186
aS'GGGGGGGUUACAACGUGUUGCGUCUACCUUUUCCUAAGUUACCCACGGGCCUCUACCGCUGAGCACAUGAUUCGCCUUAAAGAAGGGUUGCGAUGGUCCU'
p187
aS'AGCAUCCUCAAGGUUACUCCUGUGUAGCCUGACAGUAAUCACUACCCCCAGGUCCACAGCUGCCGUUUGUAGGUGUCAGUAACCCGCCAUCGGCUAUUCG'
p188
aS'AACGAUUCCGAGGCGAAGGAGAUAAAAAUUUUGUGCAUAACCGUUAUAGUCGUUUCUAUAAACCAUUUCUUUCACCGAAGCAAUCACGAUCGGCCAGGGG'
p189
aS'GCUAAAAGUCCUAUCAAUCCCUCACGCGGAGGGAAGAACCCCGUGUCAUGCACUGUACGUUGCACAACAAGGGCUCCGAUUGGUUAGAGGUAAGCGCCGG'
p190
aS'UAUGCAAUUCAUUGUGGCAUGGAUUAAAAAGCUUGGCUAAUCGCUACGAUGUACGAAAUCGAAAGCCGGGCGUGGUUUAGCUUGAACCAGCUCUCCCGAA'
p191
aS'UCCCUGCAACGGUGGGUUCGUGAUCGUUGUCUCGUUGUCGUCAAAAAUUAUAAUUAACGUCGAAGGCGGACGAGAGCGACUUGAAUCGCUGGAAUGUUAA'
p192
aS'UCGUGGUUAACGCAGGAGUAGCGGGUUCUGAUAUCUGGGAUCCCGUGGGACUGACUCCGAAUGCUACAGGUAAAUACGGUACCACCGAUCCCCUCAGGCA'
p193
aS'GACAGUACAGUGCUAAGAACGCUUACGGCCAACCGUUAUGCGAUAAUGGGGGUGUUGAGUUGAGUCGUAUAAAACAAUCGGUAUAUAGACAGCAAGGUCA'
p194
aS'AUUAAAGAAAGACUUCGACACGCACGUACUCCGAACGAUUGGUUGCUACUCCGCAGCGCAGACGCCGCCCUACUUCUAUAACGUAAUGCUCCCUAGAUGC'
p195
aS'CCGGCAGCUUCCCGUAAACUGCCUAGGUAUAUCGAGAAACAGACUGGUACCGUCUGUGUUAUAAUAAUGCUGGACUAACCUACAGUCGUGAUCUUAUGAG'
p196
aS'AUCGUGUAGAGGGCAAUCUAUCCAGGAAUAAAUGAGCUGAGCGGUUCCGGGCACACUGUCGAUUGUGAAUUCCGUGCAACCUUGUGCUUCUCCGUAGAUG'
p197
aS'CCGUAUAAGCUUGGGAUCGUCGAUCAACCUACUUCUAGUCGCCUAAGCGGCUAAGGUGGAACUCUUUAAAGCGACGAUCGAUCUGCCAGAUCGGUCUCCA'
p198
aS'AUUGCUAAUGUAAGUGUAGAACCAUGAUUGUGGUGAUGUAAAUGGUCGAGUACUUCAGGAUGGCGGCGGCAGCAAGGUAUUCAGCACUUGGAGUGGGUAU'
p199
aS'CGAAUCGGGUGAUAAGACGUCGACUUCAAGAAGAUGUGGGUAGUCACGCCCAUCUCACUUGAGCAUGUUGCGGCAAUCUGUCCCCAUGACUGAAUAGACG'
p200
aS'UCGGGAUUCAGCCUGCCAUAAGGGGCGUAGAAUCAGAAUAAUUGCUCAGGCGACUAGGCAUCAAUCUCAGCUAACAGCUAACCCCUAAUUAUGUGCAUGA'
p201
aS'ACUCGGCAAUGCCGUAGAAACAGCGAGCGGCCGCCCCGUAGCGAGCGCUACGGCUCCCAGACUUAUUGGCUCGCACCCGCCAGCCCUGGAGUGAGGGCCA'
p202
aS'GGUCGGAAUUCCGUGGCAAAAUGGUUCUCAUGAGGUUUCAGUCAAGCGCAAAUGUAGGUCGAUCCGGAUAUUCAAGGCUUGGCCGAAGACAAGCUCUAUC'
p203
aS'UCACCGUAAGUGAGGAGUUAGGGCAUGGUCACACGGUACGUCCUUACGUAUUACUUACUUUACCCCUCGCGCGCCGAUUUACCGUAGCGACGUGCGGUGG'
p204
aS'CCUGCAAUAUUAUACGUACACUAAAACGAAACUACUAGUAACCCCAGGGGCGCGUUCUAGAUUUGUGCUCGGAAAAUCGUCUGCGCGUUGCCAUCUAGUU'
p205
aS'CAUCCGACAGCAGAGUCCAUAUAAUGAUCACUGUGGUGUUGUUCUAUUUCUAUAGAUGGGACAACCUAACUGCUCCUAUCUGCCGGUCCCCCCGUCCAAG'
p206
aS'AACUCGCCAGACAGUGGGCAUGGAAUUUCCCGACUAAUAUAGCGAUGUUCCUUUGGUCGCCAGCGUACCGCCAGCGGUCUGUACAGGUCAUGGGUGGAGC'
p207
aS'UUGUCAUGUAGGGAUAUACCCCCGUUGGCUAUAAGCGCAGGUUAGUAAGCAUUUGUCUAUGUGCUUCUCCGGCAUACACUCAGAUAGUUAUCAACCGCCU'
p208
aS'CUAAAGCAGCUUUCAGAACUCCGGCGCAGUAAACCUGAAGCCAUACUAUACAGCCAAUCAUUGUGAUCAGCGAGGCAUUCAGGGCUCGCCUGAGCCCAUA'
p209
aS'CCACACCUAAAUACCUCCCUAUUCAGCGCUACUUCUUUAGUUAUUUGUCGGACGCGCAGCUCCGUUAUACUUCCUGGCAGUCAAUUCCUGUUUUUCCUGC'
p210
aS'UCGUAAACACGAUUUUGCCCCGCUGUAUAGAUUAAGGCUACAUUACGAAUUAGUGCCGAUCACUAUUCGGCAAGGAUCCAUCAUAGUUAGAUAUCCACAU'
p211
aS'GCCUUGUUUGUCCGGGAGGCUAAGACCAUUACGUGGGUCGUCUCGGGGAGCCCGCCUAUGGAGCUUGAGUGUACGUGCAACUAUUCUAUCUUCGAUGCUG'
p212
aS'CGCCCGGUAGAUCACAGCUCUUCGUGGUUACGUGAUCACUCCAUAAAACACAGGUCCACAAAGGUCAGGCUCGUAUACGCACCUCCUUCUUGUGUAAGAC'
p213
aS'GAAAGAGUCUCCUGGUCCCCUUUAAAUAAAGCAUGGAUUCUGUAAUACGGCCAGAAGGGAACGUGCAACCGAAGGAAGAGGUGCACUGUCGUACCAAUUA'
p214
aS'GAAGUGCUUCGGUUUCUCUCAAGGGUCCGGCAUCAUUGAGACCUCGACAGCUUGCCCACAGCAACCAGAGCGCGUUUGUAAUUUACAGCAACGGUCUAGA'
p215
aS'GUUGAACAUCUUUCCACUGAUAACGUUAAUGCCGCACUCACAUAGCUGCUUUAACGUAUAGAAUUGCAUCCCAUAGUUUUGAACAACCUAAAGACGUGAG'
p216
aS'UUUGCGCCCAGAUUAAGACCUGACUUGGACGAUGGUGAAACAUGGACAAUUGUCUCAUACAUUUUAUGCUACAUAGUCUCUAUUGAUUAGGAUUGCAGUU'
p217
aS'ACUCAUUACAUGUCGAGGUAUGAACGGGCACUAUACUGCCCCGUUAUACUAGCACCACGUCCACAACCAACCUGGGUGUGAAACCUGGAACACGUAGCCG'
p218
aS'ACCGAUAACUGUGGCGUUGCCUACGAUUUGUGGCACGCAGUCUCACUGCUAUCCACACUAGAUGAACCACGCGGCUUACCUCAGCCUUUUAGGUACUACA'
p219
aS'UUCUAGCGGUUAUUGCCUAGGUUGAGACGUGGUCUAGGUACCGAUAGUGGCCGACUGUAAUCGGAAUCUAUAAGCACCAUGCCACGGAGCCAUCUUACAG'
p220
aS'UGCCUGCGCGAACCGAUCCCAUUAAGUUUAAAGUUCACCACUGUGCCCCCAUACAAUACGAUUAUCGUUGAGGCAUGCAUUGUUGGUAAGACGUUACGUC'
p221
aS'GUGAUGACUAUCGAGUCCUACUCAUUGACUCUAACCGACAAUAUUGAAUCAUCCAGCCUCCCUCUGGACUGAAAAAAGGCGUCAAUUAUCGCGCCUCGAG'
p222
aS'GGAGGCACUGUAUAUGAUGGACAGGCGACGAGUUCUAUUAACCGUUUACUUUCGCGGCAUACUAAGCAUUAUACCCCCUACCAGUAGCGGUUCUUAGUUA'
p223
aS'GCGAAAAAGCCUGUAUCAAAUCUUUGCCCUCUGGUCGGCUGAUUCUGAGGACUUACACUUGGCGACCGGCCGUAUACACAACCUGCAAGCUGAGCCCAUC'
p224
aS'UCUUGAGGAACUCUGCAGCAGAGUCACCGUCAUGAGUUAGUUCUACUAUGUACAGCUUACUUUAUUAUACGACAGACAUGUGCGGUUUAUUUGCUCCCAU'
p225
aS'UACAUCAUUUUGGUCGUCGAGCGACCACGAUUGGGUGUCGAACACACUUGUCAUUUCCGCUCGCAAGGAGGCUUGCUUGCCAUGACAUCAUUGGAAAGGC'
p226
aS'CGCAUGAUCUGUCACAGCAAUAAAAACUCGUGGGGACCGCCAGCCCUCGAUGAGAUCCUCGAGUAAGCAAUAGAGUACCCGAUCCUCGGGAGAGGUAGCC'
p227
aS'GAUUCCUUGUAAAGGGAAUCUACGGCACCUCUCUCUCUCCGAAGUGUAGCGAGAAUGCGGGUACUUAUAUUUGGGCAUCACGUAGGUGCGGGAAUUGCCU'
p228
aS'ACCCCCCUGAUACAAGUGAGACUUGUUAACGGCCACGAAUUGCGGGUGUCUUCCACGACUACACUGCAAAAGUACUCAUUUGGGAGCUAAGCGUAUGAGC'
p229
aS'GCGUAUUAUUGUAGAUGCCUGCGACAAGUAAGCGGCUUCAAUAAAAGGAAUACAAGCGGUGAACCAUGGCAUGUCUCUUAUUCCCGUGUCGCGAGUUACC'
p230
aS'AAUCGAUUAAGGUGUCGGGGAAUUUUGGAAUCGUAGCUUCAAUCACAUGUCCCUCACCGGCCGAUCAUUCGGGGGAAUACCCCGGGUCAAAGCGCGACGC'
p231
aS'AUUUCCUCUGGCUACAGAGCGGGCCGGUUAGUAAGAGCUGCCCGGACGACCUGGCACACCUUUCGGUCUGCUCAGGUGCCAGGCCUCGUUCCGCAGGUAC'
p232
aS'UACUGUCGCGGAAAAGGACCGGUUUCCUUGCCAAAGGAGAUCAUUUUCCUGUAGUCCUCCGAUGGUGACGUUCUGCAGUAAGCUACGUGGAGCUAAAGCC'
p233
aS'AACGGUGUGUGCCGGACUACCGAAAUGGAUUGAUAAAAGAGAGGAGUAGUGGGUUUUUCUUUAAUUGUCUGGCGAUGCGGCUCCGAGGUUUUAAAUGAAA'
p234
aS'AGUUGCCGGCACACGAUGGGAAGUAGAGCCUCUACGUUUUACACAAACUACAGGACAAAAGGCUUUAGCCUCGAAGUGGAAAUUGAGAUUCCCAAACCUU'
p235
aS'CGAUAGUACGGCCGGUCGCGGUGAUGAUGUCUACGCGAUGGGACCCAAUAAACGGGUCAAGGGACUGGACUGCACUCGCGUUAUACUCUUGGCGACAUAG'
p236
aS'CUAGAGAGGGUACGGUAUCCCCCACGACGACAAGGUUUCCGAGCGGGGACCUGGAUCUCGUCCGGCAUUGGUUAGAGGGGGACUAGCUGCUAGUGCCUAA'
p237
aS'CGGAAUCCCUUAUAACCGGCAGACUACCCGCAGUAGUACGGCGGUAUGGUACUUACAGUUUACUCCACCACAGAUAAGUUCCAGACUGUGAACUAAUCAG'
p238
aS'CGGGAGCUCUCGGGUCCCACGUCAAUAUCUUCGUAGGAGUCCCCAUGGCCCCGAGAUGGUUAAAGGAAAACGCUCAAAAGAUACGACCGGUUUAAUAACU'
p239
aS'GUCUGAGUAGUCUCCAGACCGCAAAAUAGCAAAAUGUCACGCCCACCUCCCCACCUUAGGGUUUGUGCCGCUACGACUAGUCUACGUCCCUAUUAUUAGC'
p240
aS'AGACCCUUUCGGAAGCCCGUUAAAAUGCAUUGUUCGAGGCGAUCAGGGUUUGCACUUCAGAGAGCGCCAACUCGGUCACAGUUCGCGCCUUGGGCCUGAA'
p241
aS'CAGCACGAUCCAGAAAACAUCCGUGUAGAGCAGGGAUACUGGGGACAUAUUGAGCCGUCGUACCCAGCUAAGCCGUCACUUCAAGUCCAUCCUUCGCUAG'
p242
aS'AAGCGGGCCUUAGCCGCGUGACAGGAUGAAUUGAUUCAAGUCGCCUAGGGCCGGGAAAACUACUUCCUUAGGCCACCCAGUGGUGUAGGGAACACGUAUG'
p243
aS'ACGGAAUGUGUCCCUCAGAUGUUACGGAAUAUGCUGAAGAUAUCGUACGCUGCUAUCGGCGAUCCACCCUUUUAUAAACAAGUAGUACAUCUUUUCCCAU'
p244
aS'CACCUUGUUUUCAUACCAAACUGGAGAGGUAGUCGGUUUUGCAGGUGACACCUGAAAAACAACAGCACCCUGGUUAUCGUUGUUCUCAUCGUUUCGUCGG'
p245
aS'CCAGAAGAUAGGUUUAACACUUAGAAGACGUAGACAGGAUUAUCAGGUUACUGAAUCCUGUUGCGGGCAGCGAGGCAACCGGGGACAGUGUUAGUAGUAA'
p246
aS'UCUCCCUAUCUGCGAGAGCGCCUUCCCCACCGUGUACCGUGAGGUCCCAAGCGUAUGCGAAUUACUCAGCGCUAAGACUCGAUAAGGAUCUUAGUGCGCC'
p247
aS'UGGUUCGUGGCUGAGAAGUUGGCAAAAAACGACCAUGAUCGUCGCCGAGUUCUAUUCCCAGCCCACGUAGAUCAGUGAUGUAUCAUACUGUCGGUAGUUC'
p248
aS'CUUGCCAGGAGAUUGGCAGUUUAUGAAGCUUUACACAUUCCGGCUAACGCGCCAGAGGGUUCACCUUGUUUAAGUCGCCACUCUUGACCGUAUCCGCCGG'
p249
aS'UACCGAUAUUUAUUCACGUCUUCAUUAAUCUUCGCACAACUGUAUGGAACUAAGUAAGUAACUUGAAAAGGCUGUCUGACAUCCCGCCCCGUGGAUCGCA'
p250
aS'UUGCUUACGUCUUGAGCCUCAGGUUGGAUCCAAGCGCUAACUCCUAUGCCAGCUUUUCAAUUGGACUGAACAAGAUCCCGGCGUCACAAAGUCUGCUGAG'
p251
aS'UGUCUGCCGUUUGCCAUUCGCUUGGAGCAGGGUACCGCAUCGCACAGCGGGUCGCCGACCGAGUCCUCCAGCACAGGCUUUUCCAUCCGACUGGGAGAUG'
p252
aS'UUGUCAUCAGUUGUAGGGAUAGUGAGACGCAUUAGUAUCCGACGCAUUAAGCCAUCCAGAAGAAAGUUAAGUCCUUACACCUCCCGCGGUUAAUGGCCCU'
p253
aS'UUGGGUUUGACUGAAGUUACCUAAUCGUGUUUAUCGAAGGACGUAACAGUCUCUCUUCGGUGAGCUACUUUAAGAUCACCAACAGUACCCUACCGUUUCC'
p254
aS'GUGAGCGAGUAUAACGUUUAAUAGACCUUUUUCUCAACCAUCACCCAGUUCUGGUGGCGUGUCCAAACCAAGUGCAAGACACCCCACAUCCGAAUCCUGC'
p255
aS'AGCCGCUGACUUGGCCAUAUUUGCAAAUCGACUAAUUCAAUCAAGGUAGCAUGUCCUGUAUGCUUUUGCUGUACAGCACGAGAACAUGAGACGUAACUCU'
p256
aS'GCUACCACCAUCUUGUCAACAAAUGGCGUUUAGGCUUCGAUAUAAGAGUCUGGCCGGUCGCUGGAUUUUGAGCUGGAUAUCACAUCCGGGGGUAUGGGGC'
p257
aS'UAAAUACCCUCCCCUCAGGGGCUUUUCCGUCGGCAGUCCGGCCAUGAUACGUUCACUGGAAAUCACGGCAGCUCCUUACAACGCAAGCCUCCUCCUAGGA'
p258
aS'GAGCGCCGGUGUCAGAUGCCGGAAUAUAACCCGGUAAACCUUAAUAAAGGGUGAUAAAGCUUUAGAGACUGGAAUUGAUGUUGUAGGACAGAAUGACGUG'
p259
aS'AGAGUGUCCCCAUGGUAGCAGCUUGCGACUUCGCACGAACGCGACUAACACUAGUCGUAGAUCAAUACAAUUAUACUCAUAAGUGCUAUGAUCUAAACUA'
p260
aS'CCUCUGAAUUGGGCUCAGCCGUUAAAAACCGGGAUCGCUUCAGCCGUCUACGGCUCUAAUUGGCAGGGCGCCUCAGGGUAUGAAUGAUAUAAAGAUGAUC'
p261
aS'GUCAAGCGCAAUGCUAUCGCUCAUUCGCAGGGUUACGCGGCUGGUCGCAGGUCGUCGCCAGUAUGCCUCUUAGUAAAUCGUUGGGUGCGAACAGGGAUUC'
p262
aS'GAAUAGGUUUCAGGUAGCACUACUCAGAGGUGAGACAGCUGCGCCCAACUUUUAACACGCACGGACGGAGUAUUCAGGAAUUUACGAGAACGUAGCAGAG'
p263
aS'CCCUGAGGGGGCAGAGAUCAGCUAAUGCAUGGGCUUGCUAUAAUCCGUAGCGUAGACCAACAUCGCCCGUAUGGCCCAUGAAAGCAGCUAACUCUCUACC'
p264
aS'GUAACCACAGAGACAUCGCGGUGUAGGAGUCACGUACCUCGUCUCCUAUGCAAAGAAUAUUGACUGACACGCCUUUCCACGUUCACGGUUUAUGCUGCAA'
p265
aS'AAGGCAGCGGUCUCGUCCCCGCACGUUGAAGACAAGUGAGCACUUCAUGAGUCCUCCAUCAAUGGCUCGAAGCAAAGAAUCGGCACAGACAGUCGUAAAC'
p266
aS'AAAGUAGCUUGUGUACAUCUUUUAUCGACUUGAGAUAGUUAAUCUCGCCAUCCACUUACGCGACUGUUGAUAAAAAUGCUGUUACCGAAGAAUGGCUGAA'
p267
aS'UUAGAGAAGCAGUGUGUCUUCGCAGAUUCUGCUACUAGGAAUGUGCGCGCUACGCCUCCCUGUAGUCAAUCACUAUUGAACGGUCGUCAGGUACAGCCGU'
p268
aS'CCCAGAACGCGUCCGGUGGGCGCGUAGCCGACGAGCCCAACGCAGACGGGCUUAUUUACAUAGCGACGCCACUUCGAGUUACCAACUCGCGGAAGGGCGU'
p269
aS'UGUGUGACCCGAGUGACAGAUACCUCAACACACUGAAGAAUCGAGUUAAUAGCACGGCAGUAGGACGGCGUAGUACCUGUAAAUGUCGAGGAUCCCAUCU'
p270
aS'GUUAAACUUACAAGGGACAGUCCCCAGAUGUACCGCCCCUGUGUCAUAGCACUUCAAGGUGAUGAAUGCCGCCGCUUGGAAUCAGACCAUAGAGCCUAAC'
p271
aS'AAGUUGCGAAACUAAGCGAAGUGUCUACUGCAGCAUUUGACUGCCGGGGUGCCAGAUUGUAAAGAUGCACGUCCAAAAUUUAAUUUUCCUUCGCGGUAAC'
p272
aS'GUGAUAUUACGAAUGGAUGGACCCGCCGAACCGGAGUUCGAUUGUAAGGAGGCUCUUACGGAAGGGACACAGACCUCGACCCAGUAUGAUGUUACCAUGC'
p273
aS'GCUCAAGGGUACACGACUGCGCCUCGCUUCGUAUCGAGGGGAAACUGGGGCGGGGGCUCUAAUACCUAAUGAUAGGUAGGUGAUAGGUUUAAACACGCAC'
p274
aS'GCACUCGGCGCAGGUUGAAACAGUCGAUAACAACGCAUGCUGAAUAUCUACGGGAAUGUCCUGAUGUAUUGGCUUACUAAACGCCGCAUGGUAUCGUGCG'
p275
aS'CCCCUUUUCACCGGGGUCAACCUGGAGUGAUUAUCGUAUAGUCGAGAAGAGCCCCAAAAGCACGCUGGGGGUUCUAGAACAGCACCUUCGGGUGAGAUUG'
p276
aS'GGGACUGGCCUUAAUGCAUGUGAAUGCACGCAACAUAUAGACAGGUUUAGGACUGCUCGGUAUAUAUGCAACACGGCUCGCUAAAGUUAUCUCGUUAGUU'
p277
aS'GAGCACAACUAACCACGUCUACCCGGGCCACCUGAUGGCUAGCGCAGUGCGGUACAUCGACGCUUAGUUGGGCUCCCAAGCCAAUAAGUCAUCCUUCUCU'
p278
aS'UUUGUCAGUGUAAGAAGGCAUGUUUGGUGCCUCCGCUUCUGAAACGGUCCGUAUAAAUGCCAAAUGCAACGCUAGGGACAUAGAGUAUGUACAGCUAUGU'
p279
aS'GCAUCUGAAGAGACUCGUUUAAUUCGGGGACUGUUUCUGUUUAUAUUCCUUCUUUGCCCGUGGGAAACGAGGGUACACAAGGUUAGCUUAAUACCGACCG'
p280
aS'GCCUUCCGAGAAGUAGUCAAGGCCAGGAUUGGAAGCAUACGAACCGAAACAUUGUACUCCGCUGCAAUCUAGUGGUCGUAAGUAUAGCUUGCCGCUCAUG'
p281
aS'UUUGCUCUAUCGAAUUCUCCAAGGUGUGAGCCAGCAAACACCCAUUGGGGCUCCUAAUGGUGGGGAAAGCCUUACAUCGCGGAGUAUCGACGCAUCGCAA'
p282
aS'UGGGUAGUCGAUGGAACCGCAGUGGAGCAUGCCCCCCGUCAUGCGAUCCUGGAAGCGGCGAUGGAACUGGGCAAUCCCUGUGGAUCACCCAGUGGCAUUA'
p283
aS'GGCGUUGAGUCUACUAUCCACAGCCAGCACGGUUGAGCCCCUGCCUCAGAUCGAUUUAGCAGAGCCGCGAGUCUUAGUCAUAAAUCCCUACACUGUCAAA'
p284
aS'ACUGAUCUCGCCUUGUUCAGGGCAUGUUCUUGGAUGAACCAAGACUAGUAGUUGCUGAUUCAUUGAUCCGAUGCUCUGAAGAGUCUGAGUCUUAAACUUA'
p285
aS'CUUGACGUCCCUUCCCUGCCUAUCGCUCAAAUUUCGUUGUCCUAGACGCGGCGAUCGAACGAGUCGGUAAGCGCCGAUAGCGGCAAGCGGUGCCUGGUUC'
p286
aS'UUAAUAUGCGGCCAUGGAUAGAGAUUGUAAUUAAUUGAUUGAGCAACAUUGAGUCCUUAUAAUCUUUCCGCAUACAGUCCCUUUCGGACACAUUCUUGUA'
p287
aS'UCGUCUCUCAAGAUCGGUUUCGGCUCGAGGAGCUUAGUCAUGGCCCGAUCCAAACACACAGGAGCCUCUGCCCAUCUUCGCCCGCAAAUUAGUAUUCGCU'
p288
aS'GUUGCCCCCUUCGAAAUAGAUGAUCUUAUGUUAUGUAAAUUUCCCGCGGAAUAUUCAACAGUAUGGAUUAGACCUAGCCCAACCUUCAGCAAUACCACUU'
p289
aS'ACCGUCAAAUCUUCGUGAGUUGUAGUACAAUGCACGGAGGGGUAUUACUACGUUACACACAGUAAUCUUAUAGUUCUGAAUACGAAAAACCCUUCUCCGA'
p290
aS'ACCUUUCGAAGUACCAGUAUCUCGGCUCCGACUCAGUGUCUCGUACCGUCGAUCGUCGGCACAGCUUUCUUAAGUACAGUACCUGGCUGUGACACCGCGU'
p291
aS'UUCACUUAAUUGACAACUGACGCCAUCAGUCACGGGUGAUUGUCAGCGACACGGUUAGGAGCAGGGCGCUUUGGGGGCGUCGAUGAUCUGUGAUACCCCA'
p292
aS'CCAAAAUUUAGGUGCCCUACUACACGACAGUGACCGCACGAUUAUCCAUGAACCACGAAACCUCAAGUGAAACCCCAUAACUAGUACAUUGAACCAUCAG'
p293
aS'AUGUUUGCUGCGCCGGCGCCUGAUCGAAAUAAAAGGACCGUGACUCGGUUCGGCGUUAGUAAGCUCGAAAUCUUAUAUCAUAACGCUGGUUCAGAGCGUG'
p294
aS'CAAUUUUCCGAGCAGGUGAUUAAGAUGCGGCAACAACUCCUAAUAGUUUACAAUAUUUGCUUUAAGCCUAACAUUCUAGUGUACGCUAGGGUAUUGGACC'
p295
aS'CUUAGCUAUUUUGUCGCUCCGACUGGGUAUCAAUGAGUGUCUAGUGGGGAUCGAUCCUGUCGAGAGACAUGUCUGGCAUGGAAAGUCCCACGGUUAUAUU'
p296
aS'CCUACCGCCAGCGUGACGGUAUGUGAACCCCCAGAGCAGUUACAGGGGAUGUGGCACUACCAUUAGCGAUGCAACAUUCGAUGGCCCUGUAAAUCCAAUU'
p297
aS'UUACUAGUUACAUACUAAGCCGCCUGAACGGAGGUCGCGGCACACCCGCACAGCAUUCUAUGCGAGUUACCUUUUACGAGCAGGUCUGGGUUCCUAUCGG'
p298
aS'AUAAGUUUAUUAAAUAGGGGGGCGAGUGCUGGACUACCAUGCUGAAUAUUGAGGUGCUGACCGAGCAUCGACUUUUCCGGUAUCUGUUCUUGUACUUGUG'
p299
aS'CUGUUGAACAUAGGGUUUUAGAAUCAGGAUGUCGGUUCGAGUAUCCUAUGGUGGUCGGACGAAACGCAGCUAAGACGGUCCAGAAACGGUCAUCAAGCUU'
p300
aS'AGACUACAGACCCCCUUACGACGGGGUCAAUCCGGUUGAUAGUAUAAAACUCAACUUACACGCCGUGACAUUCAAAACUGACGCUAGGCCGAUUAGUAGA'
p301
aS'AUUUUUUACAGUAAAUCCGGCGCACGUUCCUGGGCCGCCUAUUGGUAGUUUUUUUUUUAGGGCACACUGGAUCAGAAUUGAACCGUUCACUGCCGCGGAU'
p302
aS'CCGCACACCAAUUUUCUUACCGACCUCUUGCGGGUGUCGUCUCCGAUAACGGCAUCUGGAUUACUCGCGUACCUAGACGGCAGGCGGCGAAGCGGUGCCA'
p303
aS'ACUAGAUUCAUUUAGCUUUGAACUGUUGUUGGCGAAUAGUGCAGUGAGCCCAACAAGUGUCCAUGGCUACGUCCUGCGAUUAUACGGGACCGCCUAGCUU'
p304
aS'CUCAUGUUUGCCCCAACCGACAAACAUGGGGCGUGCACGCUAGCACAGCGUCUUCGGAUUCUUAUAUACCACCCGGUACAUUGUGGACACUCUCGCAGUA'
p305
aS'GAAUCCCAUAAAUGACCCGGUAGAUAGCGAGGGUAUAUCGUUCGCGCAUACCUCUAUUCAGUACAUUGUUUCACUUUAUAAUUCGUGGCUUCUGGACACG'
p306
aS'UGAGGGCUACCGCACUAUGUAACUGGGCCUUCGAUGUGCGUUUGCGCGAAUGGUGUCGGAAGUAGUAUCAGAUCUGCGCCUGCUAUCGUUCAAGGAUACA'
p307
aS'AGAAGCCCUCGGCCACCGCCACCCUUGCUAGUAUAUAGGUCAAUCUCGAGGAUAACGUAUGCAUGCCUAGCCAACCAGCGCAAGCUUUAUGAGUACUAGU'
p308
aS'AGUUUCUGCCGUAAGGUCGGAUGCUCGCGAAGAGAUUAGUCUGUAACGCGCAGCGGGGCUUGAGCUACCCCUUCAAACCACAUCGUCCAAAAUGUCAGCU'
p309
aS'ACACAGGAGAGGCUCGACCUUCUCUAUGUGAGGUAAACACGGGGUUCCGAACGGUGAGUGCUGUGAAAGCCGGUGCCCAAAACUCGGGCGGAGGUCUGAC'
p310
aS'UUGGAUUGCACCUCCAGGGUGUACAAGGUCCUGUUCUUUAAUACGCCGUCAGGGUCCCCAUAGCGCUGCACCUAGCGAUAAAGCGUUCCUCGCUUACGCC'
p311
aS'AAGGUCGCCGAAUUCCGAACAUCUCAAAUUUAGACCCAGUACGUCAAUGCCUUUGUCGGAUAUUCCGGAUGUUACGAUGCGUCGGGGAUGACUGAAGUGC'
p312
aS'UGCUAACGAAAGAGUCUGAGCAGAGGCUGGACACAGGUGGCGAGAUGGGCUUCAUACUGGUCCCUGACGUUCAUCUAAGUUUGUGUAGCUAAAGAUUAAA'
p313
aS'GUACGAAAAGCCCCAUCUUGGCUAUACUCCGAAACAACCAGACGGCCAUUAUCCCAACCAAGGUGGCGAGCUAAAGGCCCCGAACAGGUCGGAGCGAAGC'
p314
aS'UGCACGCGUCUUCCUCUCCGACUGAAGGUAUCUUUCCUGAGCCUCACGUCUCUGAGGGAAGCGUGACUGUGCAUAGUGUCCACGUGAGAGACAUUGACAU'
p315
aS'CGUUGAUGCACGGGGUCGUAGGUCCCUUACCUUGCAAACAACAUUGAAGACUAGGCCUAACGAUAAUCGCAGCAACGACUAUGCAGUUACCUCAACUCUU'
p316
aS'GUUCUUCAGCACUUUUCCUCCGGUCAGGAUACAGGCGGAUACGGGAUUUCUGUCUCAGCCGUGUAUUGUUACGUGGUCCUCUCUCGUGAGAACAACGUGG'
p317
aS'CUCAUGAGCCUAGUGGAGACCCCGUAAUCUCACGGGCGUAUGAGAUGGCGGAGUGGGUCGUCUAAAUUAGAGACAAUCUAAGCGUCUACGGUUCCUGGUG'
p318
aS'AGCGCUAAGAUCGGAAAGGUGAUAUACUGGAGUUAUAUCGUGCAGGGACUCGGGACGGUUUAGCGCGGGGUUUGUGAAUGUUGCCUGAUCAAACGCGACA'
p319
aS'GUGCUUUAGCCUUGGCCAAUCGGCCAGAUUUGUGUUAGACACGCCCCAAAUAGGAAUGCCCCAUUUUCCAUAGGUAUCUAGUUCAUUUUUAUGCAGUAUG'
p320
aS'GCGUAAAAGCAGCGUCCGCCGGAAUGCAAGACCAACAUGGUCCCCCCACGACCAUGUAGGGUUGGGCCAGGAGCUGGAGCUUAAAACUUCCUACUGGUAU'
p321
aS'UCAGAGGCUGGACUUCUCAUGUCGUAACACAGCCACCUUACCGGGGAGAAAAUGAAUCAUUUGUAUAUAUGCAUAUGCCAGUUAAUAGCACGCGCGGUAU'
p322
aS'CUGGUUGGCAACGUAUCCGUUAACCAUGUAGAUGAGCUACUGACGGCCCAGAUAGUACGGGGUAAAUCAUAACCCCCCGGCAGAGUAGACAUCUCUCGAC'
p323
aS'CCGUCUUCUGACCUUCCUGACCGUUCGAUUUCUUUUUUAUCGCGCCCCCCACAUCGGACAGCUCGCGUACCCCUUGCCUCGGUAACAAUGCAUAUUGCGG'
p324
aS'CGAUCCUUAGCAUCCAGCGGACAUCUAGACGUCGGGAAUCACUUUGCGUGACGCAUCGCCCGUGCACUUGCGUACCCCGAGGGGUUAGGCGGCCGCACGA'
p325
aS'AAUGUAUGGACUUUACUAACCGGCUACCCACACUACAAUCCCGUUGACGGACGGACGAACCUAGAAUCGCUCCACUCGAUACUCUCUCUUGAGGCAGUUA'
p326
aS'UAAUAAACGGCAGUUGUGUGAGUUGACUCAUCAACGUCUUUUGGCCAGCGCCCAUUCAUAAAGGACUGUUUGCUGUAGGUCAACCAGUGGUCAACUUAGU'
p327
aS'UAAGCUCAAUUGCGGAUGCCGGAGAUACAAGUAAAUCACGCUCCCAAAUACGGUACAGUCCGCCACGCUCGCCGGACUUUGUAGCCUAUCCCUGUAUGGG'
p328
aS'GGCAUGAGCGAUUCUCUGAGGCAAAUUAAUUGAUUGGGUGCCAGUCAUGUGUCGGUUGUCUUGUCUCUACUCCAAAUCUAGUAGCUAAGAGGCCCAUACG'
p329
aS'CCUAUAACGUAAUUUAUACUUAAGGUGGGAGCACCACUCAUUAUAAGUCGAAAGUAAGCACUACCUACUCGUGACCAUGCGCAACACUGUGCGGUUCGGA'
p330
aS'UCGCCUAAUCUGCAAGGUGCAGCUCCAAAGCAUGCAUCUUUGCACACUCUUGAGCAACCGCGUGCAAGGACAACCAUCCACUCUUCCAGCUACAUUCUUC'
p331
aS'UGGUUAGAGGGCGCCCGUAACAGUGUAAGGAUGGCCAGAUCGACCUGACUCACACAUGAACGCCACCGAGGACCACAAGACCGGGUAGAAAAAGAACUCC'
p332
aS'UCAGCUGUGCCGGUAGUUGUUCAUUGGGUCCCGAGCGUUUCUCGAGACACAUGAUUCUCCUUGAUUGACAAAGCUAUACGUCUCAUUCAAUAGGUGAGAU'
p333
aS'GUCCCGAGAGAAGCAGCAAAACUGAUGUGUCUUUUAAUUCGACUACCGAUUUGAUGCGAUGCCCGCGUUAUAUCGUCGCUUCGUCGCGUCUUAGCACCGU'
p334
aS'UUUUCGCCGUUCGCAAGGGGUCUUACAGGCAUAAGUAGCCGAGGACGCACUGCGUUCAAUGACGCUUCAAGGGCAAUAACCUGAGUAGCCAGAACGUAGG'
p335
aS'CUAUUGAAGAUCAGGAGUAGGAACAGAGCGACAGUUCAAUCAAAACACCAACGUGAGGACCUCAGGGUGCCGAGAUAAUACAAAGCUAUCUGCCAAGGGG'
p336
aS'GGUGCGUCCGAGUGGUGAUCUUUCAGCGGAACUCUGACGCUACGGCAAAAAUCGCCUCGGAUAGUAACACACGCGUAUUUAAAUAAACAUGGUACCUUGG'
p337
aS'GACUUAUCAUUAUGCCCGCGCUAACUAGCUUACUCCCGUUGGUAAUCACACUAGUGUAUUACGUAUACUCCCCUCCUCGUAGUGGCGCCGAGGCAGCUAA'
p338
aS'GCGGCCCGGUCCCUUAAAGCGCGCUUAAGCAGCUCCGGCAACUUAGACCGCGGCAGCGAACUGGUAAUCCCGGAGUCCUACGUUCAGGGGCUGGGGGUGC'
p339
aS'GCCCAGCUAGUCACGUCAAUUACCAGUAGGUCUGUGCAGGCGUAUAGGUCUUUGUGAAAUGCUCCCAUCCGCUAAACAUAGGUUUAAAGUAUCUCUGAGA'
p340
aS'AUCAUCCCAGCUGAAGUCCACGCCGAUGGCGGUCUCCGGGAAGACAGUAUCAUACUGCGAUGGGUUCGUGUGUUCAGGACCCUUCGCAGCAAACAGUCUU'
p341
aS'CUUCAGAAUAAUCCAAAAAGAAGGACAUAGUAUGUGACCAUGGACAUUAGAGUACGGGGUAUUUUUGGAUAUAUAGGCCACAAGUGAAAAUAUACAAACA'
p342
aS'GCUGCUGAGCUUAGCAUGCGACUUUUGGGCAUCUCAAAAAUCACGGACGCCGGAGAGAUACAUAGUACAAAUACCUAUGAAGCACCGGGAGUGGUUGGAC'
p343
aS'UAGCGCGUACUUAUGCCUCAUCCGAGUCCGGUUAAGAGUAACGUGUAGUUAGCAGCCAGUACUGUCUUGAGAUCCUCAAGCACUGGGAAGCUCCGCUGUU'
p344
aS'UGAUGCGGCAGCGCUCGAUGCAGAAUACUUGUGCUCUCCAACGCCGCAGCUACAUCACGAAUGACCCUUCUUGCCGCGUUUGCCAUUUUAUCCUGUACAC'
p345
aS'UAAGACUAGCAUUAGGCUUCCUCGUUCACUGUUAUGGGAUGGGAUAACGCAGGCUGCGGCGAGUAGAACUUGGCGUCACAGUCUUUUCACCCCUAAGCUG'
p346
aS'CUGCAGACCUCCGCGGCAGUGCUCGGUCGGACUCCCUACCGGUUACUAUUAAUCCGGACUGACACUUGCAGCUGUAAAUUCGAGCCCUGGACCGGAAAAU'
p347
aS'CGCAGUAACCAGGACUAUCUUUAAAUAGUUAAGCUACCCGGAGGUUGUAUGGAAUUGCCGCAGCCGACAGAGGCCUAGCGUACCUGAUGACCCAUGUGAU'
p348
aS'UGCUACCCAUCCUAAGCGGAUAUAAGCUACGUAUUAGAGCCGGACGGGCCUAUGAAACAGGCGCGGCAGUUGUUCUCCUAUUCGUACUGCACUCUGGUAG'
p349
aS'UAAAUUGGCUCCUCGGUGCCAAUUUUCGUAAGGAGGGAAGGUCUAUGCGCGAAUACGAUGGUCAUGAUGAGCUCGGUGGGUCUCAGAGCUUGUUAAUACA'
p350
aS'AGACUUUAAGCUCAUGGUUCCUCCAGUCUUAGCCGACUGUGGUCGACGUCGGAAUCGCCAACCAAUGCAAUGGCAUUUAGACAAGGGCUGGUGAUUCUGG'
p351
aS'AUGGGCGGACAGGUGUUUAUACUAGCUACACAUGCCCAAAGGUGCAGCCUUGAAUAGCCGUUGGUGACAACAGUGACCUCAGGAGGCAGCGGUUUUCCGA'
p352
aS'UACAAUGUAUAGGUCCAGCACUAGCGGGACUGCAACACUUACAUGCCCUGAGACAUCAGCCAGCUUUACUGUGAACGCACUAUGACUCAUGUUAGCCAGC'
p353
aS'GAGCUGGGGCGUAGCCGGGUCUCUCUCUUUAUCAAACCUAAUUACAAUAGCAUCUAGCGGCGUCGGAAGUUAAGACCCAGUAGCACGAUAUUCGGUCCAC'
p354
aS'UACUUGAAGGGCUCGCCGUUACACUGCCCUCCCCGGAGCUAAACGAGUGUGGUGUUAAUACUAUUGUUACUAUAACUUGAACAAGAAGUAAGUUAACUUA'
p355
aS'AUGGACUGCAGACAAAUUAGAGGCCGAACGGAAGCGCACCUGCGAGCUAUACCGAGGGGGUAUCGGAGGAUCCUUUAUCUCUAUAACCUGGUUCGCAGAU'
p356
aS'CCAAAAUAGCCAAUCUACGUAUGUCAAUCCGACAGCUGGACCCCGGACACUUCUUCAGGUCUCAAACAAAAGCCGACCUUGGAAGGGUUGAACAACUUUU'
p357
aS'GGUGGUCUCCCUUUGCGUCCAUCCGCACGAGUACCAUGAUCUAGCGUGUGUCCAUUCGGUGUUACGAAACGAACAUGGUGCCAGUGAGGACAAGCCCUCG'
p358
aS'CACAGUAGGUUUUCCUCCCUAUAGUGAGCAUCGAGAGUAGACUCGGGACGUGAGAAACUUGAACAUGUUCUUUACGCGGUCCUGGGAAUUCGUCUCCGUG'
p359
aS'UACCCAACCAACUGCCUUCUGGCUAAUAAACGCCUCAUUUCGCUUGCACUACGCGUGAUUAUAUCCAGGAGGAGCUCCCAAUAGUUACGUCCCAGCCGUU'
p360
aS'AUCGCAUCGCACAGACUGUAACACUAGACCAGACCGUGACACAGAUUAUUGAUGCAUUACAUGACGCUGCUGGUCGCCUGUCUCUAGCCGUUUCACUCUC'
p361
aS'UACGCACAGAUAAAUCAGUGCGGUAAAUCUAUUAACAGCUCAGCUCCAGUCGUGUCCCGUGCUCAUCACCUGCGAGGACCAUUGCCGCUCUGUUGCGGCA'
p362
aS'CAAGACUCCCUAUGUCUAGUCACAUCAUCCAAACGCCGGAGCAUCCUGAGGAAUGGUGAAACAACACGACUGAGGAAGAUAUAAAGUUAACUACAUGGGA'
p363
aS'ACGCUAUUUGUAGGGCUGUGGACCUGACAUUUAAUCUAGUUGCGUGCCAGUAAACUCGCGAUCGUUGAGUCGGCAUUGAGAGAUUGCUCGCAUAAACUAG'
p364
aS'CCGAUGAUCGAUUCUCGGUCUAGAUCGCGGUACGCCUGUAGCUGCCACACUCGCCUCGGUUCUCGUGAAAAUUUAGAGACUGAAGUUAAAUCUCACUUUU'
p365
aS'GGGACUCUCAUCUUUCCGAGCCGGUCAAUUAGGCAGGUUUCGCGGUUCCAUUUCAUCCUGUCCCACUGAAUCCGUGUCUAAUUCUUAUGGUCAUAGUUGU'
p366
aS'GCACCUCUUGAGCAGGCUUGGUACGACGGUAGCUCAAUAUCAAUUGUCUUUCACCCUUCCCAGUGGCAUAAAGGGAAAGGUAUGUUCGACAUCAAGCGGA'
p367
aS'UGAUCGCGGAGAGCCCGAACCUGUCCGGUGUUUUGUUCCAGAACAUGUACUUUGUUGGAAUAUUUGAUCUGGUGCAAUACCCCGAUUAUCUCGAGGAUCG'
p368
aS'AAACAUUCAUGCAAAAUCCGUGGGAGCCGUUAUUACAGAGAUGACGGUCCGUCGGUAAGAUGGUGGAACAUGCGUACAGCAUGGAUGACCGGUCACGGCA'
p369
aS'AUCCGUGCUGAGAUUCUAACAGCCCGUUCGAUCAUCGAGUCGACUUUGAGGUGCUCGUAUAUUAAGGAUAGUAUUGGAGCCAGUUAAGAUCGUCUAGCCA'
p370
aS'AGAGUCAGUAUUGGUUAGCCCUAGCGGACAUGCAUGUACUCUUCAUACGAUUCAUUUAAUUAUCCCUACUCGGGGGUCGAAGUUAAUAUGCAUGAUCGCC'
p371
aS'UUAGCGAACGAAGCAUCGUGCCCAGCGUUGGUGCGUGAUGUGGAACUUUAGGGUAGGAUAUAGAGGAUGUUCGGGAUGACGUGAAACUAAGUACGGGUGG'
p372
aS'CCAGGUGGGCCACCGUUCUGGUUUUACUUGGUGUCGGGAGAGAGUCAUGUGGCGUAUAUAAUGUGGUUCCUACCAUGAAAACGAUAACCAAUGGUGAAGA'
p373
aS'UGUGUCCUUUAUCGGCUUCACAUUGCAGUUACUACGUCAGGCCGUGAGGUCCAACUUGAUGCAGAGUUUACCACGGAUCCAACGGGGCAAAAUGUGUUAA'
p374
aS'AACGAGAUACGAUCAUUAAUUAUCGUUUGAGCGCUUUAUGCUUAAGAAGUAAAGAGGCUCCGUUGAAUUGUAUUGUCUUAACUGCAUUCAAGGGGGGCCA'
p375
aS'UGGAUUUCUAACACUCCUGUGGGCGUCAACUACAGUACUUUAAACCUUGUCGGGUACAGGACUAUUAACCACACAUGAUUUAAAAAAGCCCAUGGAGGCG'
p376
aS'GCGACCUUCGGCGUAUAUGUGUGCAACCUUCGUCCCUCGCAGCCGGUGCUAUAUCCAGCUACGGGGGGUUGACAAUCGAGAUCUUUGUAGGCCAUGUCUC'
p377
aS'CAUACCACAACUCCAGGUGGUCUUGAACCGCGCCUGACCAUUCCGCUGCUGAAAGCCGUAUCAUGGCACAGCGUGUCGAAUUAACGAAAAUCCACGGAGA'
p378
aS'GAGCUCUCGAGUUUGUCACACAUGUUCGGUAUCCAAACACUAUAAUUGCGAUGCCCGUCUGCCCAGGAAAUGGAAUUUCACUAACGCGACGGAUCAAUGU'
p379
aS'GGUAUGGGUGAACUCAGCGCUUAAAUACAUUCGAGUCGUCGGGUAGGCUUUCAAAUAGGCUUCAGGGUAUUGUGCAUCACAACAAUCGGUCGUAGAACUU'
p380
aS'UGUGCUGGGUGUUCUAUGUCUGUGGGUCUGAAUUUCCCCAGGUACGCGACGCCUUCCAAAUUUAUGGCGUUAAUCCAAGUUUGAAUCAUCACUUGGCGAU'
p381
aS'ACAGAGCUGCUCCGAAAAUGAGUAGAGAGCAUGGCCACGCAUGGUGGCUGACAAGUGUUCCAACAAUCGGAGUAUAUGUCACUUGGGUAGCCACGUUACG'
p382
aS'GACUUUCGCAUAAGCUGUGAACCCCGAGCCGAUGACAUUUAUUAUAUCGUAGUCCCGCAAUCCGAGGACUCGAAGGUAAAAAGCGUGUGUUUGAUCAACU'
p383
aS'GACUCUUUACUGCUAGCUUCUCGGAAUCGGACAUGUCCUUCGUUCUAACUAAUAAGCCACCGCGCUCGCCGUUUGCUCACACUCAAAGUUAGCAAUGUCA'
p384
aS'GAUAUAAACUGCGCCCCACUAAGUCACAACUUGAUGCAUUGAGAGCCUAUGCUUUGGGGAACCUACCGCUCCAAUGCUACUUAUAGGCUCACGAUGUCAG'
p385
aS'GGAUUUGUAGACAUAUGAGGUCGCGUGGUUACACCCAGGAACGAUAACAAACAGCCGCGAGGGGACUUUCGCUAGAUAUUAACGCGCGAACCGCUGCCAG'
p386
aS'CACCAGUACAAAAUGAUGUAUAUUCUCGCGGUUCAAAUUUUAGGUAUACUCGGGGUAGUAGACCUAGUCUUAUAGGGUCACGAAUAGAAUAGAACUCUGG'
p387
aS'UUGUUUAUAAAAUAAAGGCUUAGCAGCACCCCACGAGCUUCUUCCAAAGCCUAGAUAGGCUCUUGCCGGCAAGCCCAAGUACCGCCUUCAGGUUCUAUGG'
p388
aS'CAGAACAUUUCUCAAGCACGCGGAUCGAUUGUCCGGCACAUAACAAGUGUACGCAAGUAGACUGGCUUGCUGCUGGUGGUCUUAUCUUAAGCGAUGUCCA'
p389
aS'CGGCACAUGAAGCUCGGAGUUUACGGCAUUUGAUGGCGUGGCGAGGCCAUUGACCUCGUAGUGCAUCCGGUGCGGUCUAUGGUACUACAAUAGUUCAUUU'
p390
aS'CAAUUUAGGAGACGAGGGGGAGGUUCUCGGUGGCGGGUAAACAUAGGUUCUUUAAUAUAUGUGUGCCAAGAGGCGAAAUGUUCGGUUGUUCGCGGAACGA'
p391
aS'ACAUAAGACCAUGUACUACAAAGCGGGCACGCAUUGCUUUACCGUGCUGGGGGCCAAGAAGGCACGCUUUUGCCGCUGCAAAGGGCUUAGGCGUAGGCGU'
p392
aS'UCAUCUCGGAGCCCCGACUCAGCGAGUAGCCUUCGGCGGCAAGCCACAUUUAUUCGUCAUUAAUCAUUGAAAAUUAUUAUGGUAAUGGACAAAUAGUACG'
p393
aS'CCACAAACUAAUGUCGUGUGUCCUAUGGGCGGUACACCAACAAACUCGUGGUCAGUAACACUGAAACCGGUCUCAGUCACGAGCACCCAGCGUAAUGGCU'
p394
aS'CUCUAACGUCUGACACGAUAGUCUAUGGGCCGUAAAUAGACGGCGGUGGUGAAGACAGGGACUCACAGCCGUACCCCGGCGACCAUGGCACCAAACCGGA'
p395
aS'UGGCGGGAUCUCGUAGAAUAGUCUCUGUGAAUUCACAGGCUAUCUUCAUAUAAGUCGCCGACUCGCUUCCUCGUCCGAGACCGUUGAAGAAAUCAGUUUC'
p396
aS'UAGCACGGGGCCUCUCGUUGUCAAUUAGAUUACGAUCGUUGUUGUUCCUGGCAGAGUCUUACGGGGGAAGCCUGGUGCCGCCGCCUUGCGCCUCAUCCGU'
p397
aS'AGAUAAAAUACACCAGAUAUUAAGGGAACUGUUUCGACCCGGUUUUCAUACGAUAUCUUGGGAAAUAGGUAAGUGGCAGAGUCGAACAGUGAUGUACUUU'
p398
aS'UGCGUGCUUUGCGAUCUAUGGUCGGGUCGAUCUAGCAGCGGGAGCCGGACCGCCUGGAGAGGUAUGCGCCGUCCGGGUGGCCCCCGCGAAGCAGGGAGCC'
p399
aS'AUUUUACAACAGGAAAGUUACGGAUAAAGCUCGAUUGCCUCAUGGCACUAACCGUAACCGCUAGUGGCUAAGUACCGCUCGUAGGUGAUAAUGUCGUCAA'
p400
aS'GACCCGCCUGCUGCAUCCAUGCGGGGGUCCGUUUUCCAAGGGCGCACAAGGGGUCCCGAGGGCUAUGGGAUUUAAGAGCCGCCAAUCAAAUUAUUGCUUG'
p401
aS'UUAUGACCCCUUGACAUCUGCUAGCCAGACAUAACCACAGGCUCUGAGGGAGUGCACCCUCGUGAGAGCCAGUUGAGCAACCCGAUGAGGCGACUCUUAA'
p402
aS'CAUCUGCGGAUAACAGCAGCACAUCACCGAGGAAUAACAUUACUUUUUUAGCGUUUCCAAUAAGAAUGAAGCGAUUAUUUCAUGGUAUAGCCGCUACGAA'
p403
aS'CGACAGUGCCAAGAUCACGUUCAUUCAUCUCAGGUAAGUUUGGAGCGCUUCCGUAUCGGUGGAUGCCAUUUGACAUCGAAUCACCCCGACGAUUGCUCCA'
p404
aS'ACAACAGAAGGUCCAAUUUUAGGCCAGAUGCAUGGUAGGGAUCAAAGAGACAACAGUAUCCUGUCAAUGGCGUAGAUCACGAAUAUGUUACAGAUACAGA'
p405
aS'ACAUAAAUGUUAGGAACUGAAACGCCCGCGGGGAACGAGAGGUAACAUGCAUCAAUUGUGUGCCUGUCGAAUUUUGAUAAUGUGAAUAAAAAAACAACUA'
p406
aS'AACAAGGAACAUCAUCACCGGGGCGGCCUUCAUAUCACGCGAACAUCCAUUCUGGUAUCCGGAGGAUGUGUAUGGCCUCUAAGGUCGUAAUGGGCGGUGU'
p407
aS'UUUCGGGACGUCGUGCACGUUACCCUUAGACUCGGUUAUACACUAUCAACACGUUCGACGCUUGCGCUUUAGCAGCUUAUAUCCUCUCCGCCAAACCGGG'
p408
aS'AUGUCCUGCUCCGUUGGUGCACAGAAAGACGCGCGCGCCCAAAAUCAACGAAAAACGACUGGUAAGCACAACGUUGGCCAAUGGCAGUGCUAAUUCCACG'
p409
aS'GGUAGGUUCACACACGCGUUUGGAAUCGGCCCACCUUAUCCGCGGAGCGAAGACCCAACACUCACGUGAUCAUCGCUCGUUCCAGUAUGUUGAAGAUGGC'
p410
aS'AAGACUGUCAAUUGUUGCGUGGAGACAAAGUCGGCUUUUUCUCCUGAAAUCUAUUUAGCAGGCAUAGUGGACAUAUGUGGUUAACCGGGUGAAAUGCGUU'
p411
aS'ACAGAGGUUGCGUAACUUAAGUAGCACCCAUGAUGGCGGUUGCUAGGAAUAUGGUGAAGCGAUAACCAUUGAUUUACAAACGUAACAUAAGCAAGGGCAA'
p412
aS'CGGUGAGACGCAUACGGGUUGGCCAUCGUAUAUUGCGGCGAUGUAUUUAUAUGUCACGACUAGCUUAUCAUCACUGAAUCUGGUGUUCGACUUAUGGCCA'
p413
aS'GAAAACUUCCAACGCGCACUGCGCUCGUCCUUUGACCGGACUUAGUAAACCGCAGCUUCGACGGUAAGAUCGAGGACGGGUUAGGGUUAAGCACCUCAGA'
p414
aS'UCCACCCCUUGAGAGUUAAUCAAAGGUCAGGCUGAUACAGGGCUUGCAAUUCUCGACGGCCCAAUGGGACAGCAGUACGUUGAGAUGUUCGCCCAUUACG'
p415
aS'GCAGAGUCUGUUAUCUUCGGUUGACACACCGUUAGGCUAGUCUGGCCUCACCUUGAUGCGAGAGCUCACAUCGCGAGAGAUAAGAAUCUGAACCGCACCU'
p416
aS'CACGCGCAUGCGUAAUAUAGAUGAAGCGUUUCCAAGGUAAGUCUCAGAGUUCUCACGUUAAAUCCCAACCCUAAAACGUCAAUCGGCUAGCAUAGAACCU'
p417
aS'GCAGGGCGCAACAGUCAUGUGAAAGGCUGAGACUAGGCCUUUACGCAUCGGAGAGAGUAAUCACUGCUUCGAUCCACGUCAGGUUAAGAGUGGUUGGCCC'
p418
aS'AGGCACAACUCUUUGGUGUCAUCUGACCGCACGCGCCGGUGACAUGCCCGCAAACACAGGUAAAGACGAAAUCGCCUCGUAAUUCCGGUGGUUGUCAUAA'
p419
aS'CCUGUAAUCCUAUAUAACGGUGCGAUUCCUUUCUUCUUAUCCCGUCCGGAAUUUUGGCACAACGGCGGGUCUCUGUAGCGACUUAACGAAGACAGCCCUG'
p420
aS'CGUACAAAAACCUUUGCGAUCUACACUGGGUGCAAUUGACCCCAGUAAUCCUCAAGUAACAGUGAGGCGCCGCGCUGCAGGUCAUAUAGUACUCCUUCCG'
p421
aS'UGUAGUCCCCUAUCGGAUAAAGUACGCAUCGACAAUAUUACUGAUCUGAUGAUCCAGGUUAUACUUCCGACGUUCUAGUGUGCAUCGAGCCGACCUCCGU'
p422
aS'CAAUACCUCUAGCACGAGCUCCAACAAUAGGCGUCUGACUACGGCUUAAAUGAAUACUGAGCCGCACACACUUGUGAUCGUUGACAAAAGAAAGUCACUA'
p423
aS'ACUACCAAACGCAGCCCUGUGUCACGAACUAAUAUGGAUACGUGAUGUCAGUUCGUUAAUAACCCGUCAAGCUUGCUGAACCCUCUCCCCUUGUGGAAGA'
p424
aS'CAUGACUAAGAGUAUAAGCAAAAAACCUAUGUUCGCGUAGGGCUUUAUUGUACCUAGAGUCAUGAGUAGGCUCUCCGCAGUGGAGACUUUACGAAUCAAA'
p425
aS'GCUUAAGUCUACGUAAGGGACCCAACGGGUUUUCAACCGCGCACUAUUACGAGUAAGAACUAGGCAUCACCCGCAGGGCACCUAGGGGUCAGCUACAUUU'
p426
aS'CGAGGACGCUAAAUUUAUACCCGAAAUACAAAAUUCUUAUGAAUCGUGGCUCCAGCUGAGUGAAGCGAGGGACUAAUGCAUAUGGACUCUUUGCAUAGCG'
p427
aS'UUUAUAACCACUCGAGAACGACAGACACACGCUGCAGAAGCGGUUUGCGACCUUACUUAACCAAAACUCCGAAGAUCUGGCACGUCAACGUCAAUGCGGG'
p428
aS'CUAAUCUAGUACACGUGGCUUGGCUAAAGAUCCACAAUGGGAUAUUUUACAGAUCGCAAGACACGACUUCCUACCUUUAUUACAACUCUUUCCGAUACAU'
p429
aS'GACGUAGGGAGCACGCGACGGAGUGUAUAGACUCUUUUUCUGUUGCUAAGACGGCAUAGUUUUUCUCACAAUUGCUGCGUCUGAUAAGUCAUGCGUUACU'
p430
aS'UCCUGACAAAAUGUAACCCUCGACAGUGGUGAGUGGCUUCGCUCCUCGCAUCUGACCUAAGUGAUGAGUGUCAGCACUUGUCAAUUAAUCGAACUGCGGA'
p431
aS'CAGAUAAUGCGAGGUAGUUUCACAUUGUUGUCUACUUCAGGUGGGAACAAGACACGACGGGCAUCAGAUCGAGCGCACCAGAAUACCUCGCGUUAGGGGA'
p432
aS'AGAGAAAGGGAAGGGAGGUGUAGUCACGAGUCCCGCGAAUUUCUUUCCUCCGCACAUGCAAAGGUCGUUUUAUAGCGAAGGUGACUUCUUGAAGCUAGAU'
p433
aS'GCAAUUUAAACGGAGUAAUAUGACGGACGAGCUGGCACUCAGCUGCUGGAUCUAGUUGCUCGGCGGAGUGCACCUGAAUUAAGAGAGAACCUGUCUAGGA'
p434
aS'CCUUGUGUGCUCCUUCCAGCAAAGAUGUCCUUUACAUCGACUAUAGUAGGGCUCACGAACGCGUGAGAUCGGGAAACUACAGCACUGCUAGCAUCUUUGA'
p435
aS'GUGUGCCUUAAAAAGUCUUAAAGUUGUAAGAAGUAAUAAUAACACGCCUAAAUGUUACUAGCUUCAACAGGCGAACGGCUGGUCCAGCAUAGGUUCUGGA'
p436
aS'CGAAACAAAAAGUACACCAAAAUUCGAAUGGAGGGAAUCUCACUCCCCCGGCCCGAGGAUGCGCCAUCGCUACCUAACAGCGGAGGCUUCGCCCUCACAU'
p437
aS'CACCCUCUGCUCACAGCCUUGCAUAGGAAGUUCUAUGGUCGCCCAUGCUCUGUGAGGCCCUCGCUGUUUCUAGCGGCGGAAGCGCCAAAUCUUCGCGAUA'
p438
aS'AAAACGGAAGCCCACCCCACUGCCGGCAGUAAAACGGACUCAUCGGACUGUCCUUCAUUAAGCUGCUUGCUAGUGGCUACUCUAAAAUUAGGGACCGCCC'
p439
aS'AAUUGACAAACCGUUGCUGGCAAACUCGUAGGCCGAUUCAUAGCAGCGCGAUGUGAGAGACUGACAUGAAGCUGGCUAACACGUUCUCCAGAGGUAUACC'
p440
aS'GUGUAACGUGGGCAACACCGUAUCUCCAUGAAGACUGCCUUCCUAUGGUCCAGGCCCCGUAAGAUGCUUUGGGCCCGUGGGGGGGCUGGACUCCGUUUUU'
p441
aS'AACAGUGGAUUCAUCUAUUUCUUUAGCGGGAGCGAUAUUCGGACUGGAGGGGCUAACCCAUAAUUAGAGCCCCCCACUGCCGUUUUCAUGCCGAGUAACA'
p442
aS'UCCUGGCCGGUAGUACAAGGUUAGGUCAUACCCUGGCUAACAGGCAACGACUUGUCUCUCUUAGACCCGCCUUAGUACGGCAUUCUUGGUCAUUUUGCGC'
p443
aS'CAGGAUAGAUUAGGACAUUUACCUCAUCAGGGCAAGUCGCACGGGGACCGAUCCGACUAGAAAAAGUUCUUAUAAUUGGUACCCUGUUAUCAGACGAGAG'
p444
aS'CUGGUUCUAGGAGACAAUAUGAAUACCCACAUCACUCGAGAACGAAUAUGAGGUGGUGCGUCUUACGAAUCACUGAGGUAGGAGUACAACUGGCUAGUAU'
p445
aS'CCGGAAGUACUUACCCUCCAAGACUGGGCAUCAAUAUAUGCCCGUAGUCUCCCUUUUCGCUAGGGUUGAGUCUCCCGCGGCUCCGUAGCGGCGGCCUUAA'
p446
aS'UGACCCGACCAGUGGCCCGCUACAUGUAGAUGUGAAGGGCAUAGCCAUACUUACCUACGACACGAGCUGUUUACGAGCUUGCCGGCCCAUUGACAUUUCG'
p447
aS'AAAGGAGAAAACGUACUCGGGGUGUCCACUUAACCCUUAUCUGCUUGGGACGCUUGGGAACUAUUUUCUAGCGUAAGACCUCGCGACCAUGACCCGUAAA'
p448
aS'GCGAAGGUACUGCUCAUUAGGGCUGACUGUUGUUACCGGUUCGACCGGGUAUCUGUCCUACUGCGGGUGGUCGAGAUGGGGCGAGAGCUCGUGGUAACAC'
p449
aS'GGCGUAUCUUUAGCCACCAAGGAGUCGAACCGCAGGGGCGGGCUUUAUAUAGCGUCGCUUCGAUGUAGCCCGUUGUUAUAAAGGAGGGCCAUCUACUGCC'
p450
aS'CGACUGGCCGCACCCGCUUCGAGUCAGGUCGUGGGUUAUAGAAGGGCGGACAUCGUUAAUAUAUGCCUGUGGAGCCAUUCAUGACCUAGAACUGAUUCCC'
p451
aS'GUUUACAUGACUUGGAUACAAUCAUCAGUGCUGUGUCAUCGGUACUAGCUAGUCCCCCGAAUGCGCCAACCCCUGAGGUCAGAUCCAUUCUCUAUGACAU'
p452
aS'CGUGGGAGACAAGGGAAACUAUGAGAUGUAUUCGUGGCCCUAAGAGAGUAACAAAGUAAGCCAUCUUCUCCUCUUUGUUUAACGAGAGGAGACUCCAAAU'
p453
aS'CGUUUGUUGACACCGUUACAGGAGCCUACAUGCUAUUACACACACCGACCUCCUUAAUCGUCGUGGCCGAUAGCCUCGGGGUUGCCAAGCUACUUGAACG'
p454
aS'GAAACGGCCCAAAGUAUUCCCUAAUUUUUCGAAAUCUGUAUCUAAGUUCUGACAAGCGACAGACAGGCACACGGUCGAGCGAAUCACAUUUAAUACCGAA'
p455
aS'CGGCGCAGAACGCCUUUAAAGAACAGCAGGACUCACGUAAUUAAGCCGCUGUUAAUAUCCGUCUAUUGGGUACACAGAGGUUUCUCAUGGUCGCUUGGUA'
p456
aS'GCUUAGGAUUCAGAAAGAGAAAAAAUGUGAUGCUAUGGGCCGGUGCAUCGCCUCUCCUGAGUCAUGAUGAUCUCCUCUGCCGCAACGCACCCAGGGCUAU'
p457
aS'UGUCUGAUAUUCGCCUAGCUAUCGAUACGUCUCGCUGCAUUGCGCGCCGGGUGUAGUUUGGCCUCUCACGACGUUACGCUUUUUUUGUAGCUCACCAGAU'
p458
aS'CGCCAUAUUACUAUUGUAACCGCAGCGUGAGCAUUGUUGCGGUCGCCAGACCAUUCCGCUAGAUAGGGUCCACUGGGGGAUUUGCACUGUCGUGUUCUCA'
p459
aS'UCACACGCCCCGCUUCAGCGCGGUCCGCUAUCUAAAGUUCUGAAUUCGUAAGAGGUUGAUUAAACAUGUGCGCUCCCUCCAAAGUUAUGAUUACGAUCGG'
p460
aS'ACACAAGCAAAAUAGGCCCCGGGACAACGCUUAGGGAAGGCUUCAGACCUAACCAAUUGAGUACUUUGGCCCCGUAACCCUACGCUCAAGCAGUUGAUGA'
p461
aS'GAAGAGGCCUCCAUUGUCCUCGGUACCUCGAGAGUACCGUUCCGCGUGUAAUAAUGCUUAAACCAUUUAGGUGACGGAUUCGCAACAUAUCGUACGUCAG'
p462
aS'ACUUAUCCUAAGAAGUCGGUGUACAGUUCAGAUUGAUAGAGCGGGGCGGAGAUAAGGGGGAGUUUCGAUUAAAACGAGCCCAUUGCGUGACUACCAUCAA'
p463
aS'AGUUGCCCCGGGCGUAAAGAGAAGGUUAUUCUGCGCAGAAAGUAACUCGAACCUCGUUACUUGAACAUACUUAUUCUCGUCGGCAUCAAGUCACUCUUUC'
p464
aS'GGAGGAGAAACAGGAAGACCGGUAGGGCUAGCUAAGGCCUCUCUACACAGAGAUGGUGCAGCUUGGGGAGUGUGCCGAGUUGGUAGGGUCUCCUUUACGC'
p465
aS'GAUGCAAAUUGUUACCCGGAGUAAGUGCCUUAUAAAGCAAUACCUUCAAACGGUUCCACAGCUGCAAGGCAGGGGUUCAUUGUAACCAGGUUCUACUUCC'
p466
aS'GGGGUAAAGCUUUGUUUGGUCCCUUGGAUCUUGUAUCCGGGUGAUCACGCAGAGUUUAGAGGGCAGGGACAGCCGAACGGAGCGUGCUGAGAAUGAAAAG'
p467
aS'UGACUGUGAGGGUACAAUGAUAUCAGCCGAACAUAUGGUGGGUGACCGGUCUAUGUAUUCAACCGAAUGCCGAUGCCAAGCUGGUAGGAGUCAGGUAUCG'
p468
aS'UUGCCGUUUCGAGUACGCCGCUCCCUCUCUGAAACUGGUUUCGAGCCCACAAGCGUUGAUGUCGUAUCAAAACGGACUUAUCCGAGGGGUAGGAAACGUU'
p469
aS'GAUGAUCUGGGUGCCAAUUGAACCCGGUACGAUCCGAAGAAUCUAGUAACACACUACGAGGCUAGCACCUGAGUACGACUGGCCCUCAACGCCAAUAACA'
p470
aS'GAUAGAGGCAUUACAUCAAAAGUCCGGGCUCCUCAGGGGGUAACGUAAUGGAGAUUCCACUCAAAAUACCAUUAAUCAGACGACUGAAGUUGUUCCGAAG'
p471
aS'AAGCUCAGAGCUACCUAAGGGUUCUUUACUAAAUCAGAACGGCCACUAUCUCAAGGUUUCCCUUAUGCGCGCAAUAUCCACCUGAAAGUCACCGCGUAUU'
p472
aS'UGCAUAAUAUUGAUCGUCUGCCAGUUAAUUGUAAUGCUAGCGUCUCCGCCUUGACGUACCCGUUGACAGUGCGGGUCAAUUAGAGCCUCGGGCCAUUUAA'
p473
aS'CUCGAGGAUUUAUGUCGAUACUCAUACCGCUUGUGGGCUUGCUGCCGCCUGCGUCGGGCCUUCUCCGAUGUCAGCUCUGGUAUUUCGAGAUUUCUCGACU'
p474
aS'GAUCGUGGCGUUCGGGCAUCUUCCACCCAAUGCAUUCCUUACCUCGGGCCCCUAAAGAUGAGUCGCGACCUCCGGCAUUUCGGUAUGAGACAAGACUAUG'
p475
aS'UUGCUCCGACCGCGAUUCGGGGUGUCGAUACACUUUAGGCUUGUAGAAAGGUUGUUUAUCUGACCUGGCUAGCUCGAGUGCAGUAGGUUGCGGCAUGCGU'
p476
aS'AUACCUUUAGUCUUAUUUCCCGAAGGACAAACUUGCGAAUCCGCGCCCUCCCUUAUUGUCGACCUAUGGGUGGGCUUAGAAACUUCUCCGCUUGGCGUCC'
p477
aS'CGUCGCCUAAGCUAGCCCUAGUAAGCUUUCUCGGUCUUAACUUCUUUUUUUAGCGUUUUUUUGAUAGCGGUUCGUGCGGACACCCAGACCGCAUCCACGA'
p478
aS'GGUCAGUUUGAAUAUUGCUCGACUGAGAUCGCAUCCGCCCCCUUCGAGACGAAAUCGAGUUAAUAUAGCUCUUCUCCAUCGAAAUUUUGCAAUUACCGUC'
p479
aS'ACAUCUGCUUGCGAGCACGGGGUCAAGACAGCGAGGGAAGACCGUUCGUCUUACGCCAAUUCCGGCCCUGCGACAAUGUUUGAUUACUGCUCGCAUUCUU'
p480
aS'GAUGAGCACUAAAUUCAGGGUUUACAUCUUUGCGCGGAUGAUUUGUAACCGCAACCGGAUACUGAGUGACUGAACUCAAUGGCUGCGGUAAUUCCUGUAG'
p481
aS'CAACUAGAAAAAUGGCUAUCACGGGUCGUAGGUUUUGGGGGCCUGCCAGUACAGCUGAGGUCACUGACCGGGAUCCGGCUUCAGUACAACAUCAACCCGC'
p482
aS'GAAGUUAGGACGCCCCGGAAUGCAUUCCAAUGAGUAAGCAUGCAGGCGGAUAACAAGCGUAGGAGAGCAUUUAAUGACACUAGUGGAUUGACCGAGACUU'
p483
aS'AAGCGCGCGGGUCUGGUCAGGCUCCCACGCGCGAUGAUCAGCCGUUGUACGUCCAAAUGACAUUGUCACAUGAGUAGGAUCGACCGACAAGGAGAUGCGC'
p484
aS'AGGAAGAUCAUCUACGUUAACCUGUGCCAGGUAUGUGCGGGCGAACUCUAUCUGAAAUCUACUGUAAUUUCUCUGAGGAUUCUAUCGCGUAAUAUGCCAU'
p485
aS'UCGAUCGGAUUGGCCGGACACGAUUGUGCCUUAAUGCCAUAGGUACUGACCCUCCAUCCAUUUACGGUCGUCCGGCGGGUUGCAAAAGACUGAUUUCUUC'
p486
aS'GCAAAGUUCACUAGAAACUAUUGAUCAGGAGUUAACCGAUUACGGGCAUAACCUAGAUCGUUCGGGAGGGGGAACCGCGGUCAACUGUUCACUUUCUAUU'
p487
aS'GCCUUACUCCGCCGAGGAAUUAAAGCAACAGGUCGAUAAAGUUGAAGUUCCUGUAACCAGCGAACGUCGCCGUAGACAUCCCUGGGGAACAUAUUGGAAA'
p488
aS'UAGGGUUCGUUGCUAUUAUCAUCUAAUGAGUUACAAAACUGGUGUGAUUAGCUGGGGUUAGAAAAUGUAAAUCGAGCCAAAGCAUAGGACCUCCUGCCUA'
p489
aS'CCGCCAGUUGUCCUUCUGCCAAGGCUCCUUAGUAGCGGCGACGUGCACCAUUUGAGUUCGCCACAGCAGCCCUAGCAAGUUGGGGACAGACGAGCCCUGA'
p490
aS'AGCUUACGCUGCUCGGCUAGCGCGCUAACUGGUUGGUAAAGCUCCUAUACCCCCUCGUUGAAGCAGCCCCUGGAAUGACCCCGUUGCAGCAAUUUUUGCG'
p491
aS'GAUCGUCUUAGAUGCUAGUUUGUCUACCUCCGGGCUAGUGGGGCGUUUGUAUCCAACUCUACAACAUUACAUACAUGGAGACGCUGUAUGUACUUGUAAA'
p492
aS'AACACAAUAUGAUGCCAUGUGAGAGUUUGUCAUAAAAUCUGAAUCAUCAGUCAUUACCUGCGUUGGAAGUUUCUCUCUUAGCCAAAACUGCCGUCCUUGG'
p493
aS'UUAAUCACUAUGCCACUUUACUUCAGUACACUGAGCCGCUCUAACCCAAUCGUCUUCACAAUAGCUGCGCUGCCGAAUGCUACCUAUCCCCUCGUCUCGA'
p494
aS'AGCACUGGAGACCACUAAAGUUUAAUUGUGGUCGUUUCCCACGACUGCGAAUUUCUCGAGGAAGCGGCGCUCUGCGUCCGCUUAGUGGGGGACAGCCCAU'
p495
aS'UAUCUAAUAUCAGCCCAAGGGGUCCUGAGCGAACGUUUCCGGUUUAACAUUUUCAAAUCACUGCCUUAUUCGACGCUACGCCCCCGUCCCCUAAGCCGGA'
p496
aS'GGCCCAUUCAAAUGACGUCGUGAGCGGAACAACUUUCUAAAAAGGCUACGAGGCUGGAAAGUUCUACAUAGGAAGGCCAUACCGUCUGUCAAAAGAUCCU'
p497
aS'ACUGGGCAGUUGAUGUUAUAAUUGACUCGCCAGAGUUUAUGUUCCUAUUUGAGUACAACGCGGAAAAGACAGAGGCGUUCCUCUGACAGGAGUGACCACC'
p498
aS'GGAUUACCUCAAAGAUCAGCGAAGCGGAUGGAGUACGUGGAUGCGCGGUAAGCAUUGGGGUGUAUAACAGGUCAAAGCUCCACGGACUAAAAGCAUUAGG'
p499
aS'UCGGACCACGCCUGCAGAAAAGAGCUCGGCCGUACCCCAGAAAAACCACCCGAUUAAAGGAGCAACGGCUAAGAUUACACCUGUCGUUUACCUGCGAUCG'
p500
aS'UCUCUAACCACUCACUUGACGCGCACACAAGCCUUUGAAAGAAUCGGGUGUGCACCAACUAUCGUCUUAAAGGACGGGAACUUGACGAAUGAUCUGGCUC'
p501
aS'UUCUGAUCAGAUAAUACAUCCGCGACGACAGCACAUACCUCCCCUAGAACUCAGCUGUGAUGCUCGUUGUUGGCAGUGUUCAUCCUGCCCGAGAAUCCAA'
p502
aS'CGGGUGCGAUACUUAUUAAUCGCAGUCCAUAACCAUCUAUUUGAGCCGAGACUGUUUAAUAUGGACAGGCCCGGUGUAUAACGUUAAACCGCUAAGCCGA'
p503
aS'CGUUAGGCCUGGAAGCGUUCUUGUGUAUCCCCUUGAAUCGUCCUUCUGUAGCCAGAUCGCCAUACCUCAUCAAAAGGGGGGUGGUGGGGACGAGGUACCA'
p504
aS'AGCAUAGCCACCGGGACAAUACGUCAGCCUGUCAAUAUAGGACCUAGUAAGUCUGAAAUCAAGAGGGCUUUUAUUUUACUUUUUCAGAAAGGCUGUGUUU'
p505
aS'CCGCCUCAUGCGUACGAAACACACGGAGUUUACUAACAUGAAGCAGUGCGCCAGCUAUAUCAUGCUAGUUCCGAGCGAGCGGAACCCACAAUGUCAGGAU'
p506
aS'UUACAGGCUUACCGCCACAAUGAUUCCCGGCGUGGGAUAUACGCUCAGCUACAUAGCGGUGCCGAAUUGUCUAACUCUUUGCAAAUCCGCCAUAACGUCA'
p507
aS'AGCUGCUGUAACAUGUCAUUACGUGUUAUCUUUCGAACUUCCUUUGAUACGUUUGGUUUAGCCUACUUAGAACAAAUUUUCCACAUUUCUGAUCAUACUU'
p508
aS'GAGGCCAAGUGGCAAGUGCUUAGUUAUGCUUGUGUCAAGGUCCAUAACACGUACGUCAAGCUCGGCAGGUUUUAAUCCAACCGGUUCGAGGUCAGAUUAU'
p509
aS'GAGUCACGUAGUAACGAGACCAGCUAUUAUACUAUAUGGUUUAUUUCGCGGAGUUUACCAAGGACUAAAAAAGUAUGGAUUUACGUCAGGUUAACCAAAC'
p510
aS'GGGACCAAUACACACACUAUCAUGCGCAAACGCGGUAGCGCUGAGCAAGAGCAUAGUAUUUCAAUACAAGUUGGAGUCACGAUACGCAGGUUCGCCCAGC'
p511
aS'UGUGCCGAGACGUCGCUGAAUAACGUAUUUCGUGCCGUGCGGUCGAUAGUAAUAAGUUGGAGUGCGUGGUCGACGGGCCGACGUGUCAGGCGCGGAAUAC'
p512
aS'GGGACUCUCUGAAUCAGGCUGGUCUGACUCUAGCUUUCUCACGGUCCCCAGAAACUUAAGAUAAACGGCGUGUCAUUGUCCUAUUUGUUGGAGCUUGUCG'
p513
aS'GUAGGCCGCGAUAGGCAUCCAGCCAGGAAUGCGCUAGAGACCCCCGCCGACGCACAAAGUGUAGCGCGUUACUGCCACUUUAUACGGCGAACAUUUGGGU'
p514
aS'ACAAAGGCCCCAGAUAUCUCACAUGCCUCUAUUAGACUUGUCAGGAACGUAUAUCAUAACCGGUGUGACCAGUAGAGGUUACCGGUCGUGAUUUUUGGCG'
p515
aS'CCGGUCACAAACCGCCCAUUUUAGUGAUCGGACUUAUGUCACUAUAAGAAGGUCCCUUGGAAAAAUUGCUAACUCAAAUUACCAUGCCAUCGGUGCCCUC'
p516
aS'ACGCGUAUAUCGAAGAAACUGCGUGCUGUAGGCCCAGGCCGGUUAUUCGCUCAAGUUAGGUACCCCAGGGAGACUCCUCUCCCAAAUAUAAAACUCCAUC'
p517
aS'CGCGGCUUUAACCAUGGCACCUUUCCUGAGCAGCUUAUCCUCUCUUGCGAACAGGCUCAUCGCAGCCGAGCCCAGGUCCCACCCGAGUGAAUGUCUGGUU'
p518
aS'UCCAACUUAGGAAGUUACGAACCCCACGUCUUAGGCCUCUGGGCGAGAACCGCGCCUUCGGUGCCCGAUGCGGAAGAGAUAUCUCAUGAGCAAUAUUAUA'
p519
aS'CUCUCUUAGAGAGAGACCUGGCAAGCCUUAAUGCUACUGCCCUGCUGUGCCUAGCCGCGCGAUUUGAAGAUGCUACGGCGAGAGAUUUCUCUCCAUGAAG'
p520
aS'GAGGAGUAUCAAUAGAUAUCGACAGACACAAUGCUGCCGGACGCCACUCUGAUUUUAUUCAGUUUCUCCACAAUGCCCCAACUGGAAAACUUAUCGACGA'
p521
aS'AGAGGGAGCGUGGGAACUCAGCACAUAGGCCUUAACAUAUAUAAAGUGAGUAAUAACUAGUAUGUCGUUAGUGGACAAUGCGGGACAAGAGCAGGCUACC'
p522
aS'AGUAACCGCACAGUUGGUACUUUAGCUCCCCUUAACGUUCAAUCUUGUGGACAGGCCUGUCGGAAUGUUGGUAACUCUACAGCGGCCACAGCGGUAGCGA'
p523
aS'ACAAACGACAGGGCGCGGGGCCGGUCCCUCAAAGCUUGCAUAUCGGCGCCGGGGGAUUGUUGCGCCACAUUUAACUGUGACCAUGAUGCCGAGGCGGCAG'
p524
aS'UUAUGCUGACGCAUCAUAGGGAGAUUAAUCCAGUUUUUCUCGCUAACAAAGAUCCCGCCUACAGCCUGGCUGGUUGCCUAAGGUCCGUGAGAGCAUCCGU'
p525
aS'GUCUUACCAACGUGUGAAGGUUUUGUAUAACCGCCUAGUCACAUGUCACUACGCUUCUCGCAGCUAGUCAGCGAGGCGUCGGAAAGUCCCCCAGGGAUUG'
p526
aS'UUAGCUUUCUACAAGAUCACUUCGCCGUUAGGAUAUAAGUUGCUCUCUGGCUGUCAUACCAUACGGUGCUAUCUUCGGGACCGCGGACCAACCUCACUGU'
p527
aS'AAUGGUAAGGGGUAUUCAUGGGCAAGAUCCUGCGUUUGAGUUACGGCUGCGUUUCGUUUUUUAGUGGCAUGUGGCUUCCCACAUAGACAUGGGCAUCGCG'
p528
aS'CUAGGGACCGCUGCUAACAAUAGGGGGCGUUUCACUAGAAUUAACGCCUAAACUUUGCUCCAAGAGCCUAGGCAUUAAAUAUUUGGCGAACCCCAAAGUG'
p529
aS'UCAUUACCUCGCAUACAAGCCCCUGCAUCGCGAAGGGUAGCGAUAGUCGGCUGGCUUUCUGAGGUGGGUGUCCACUACUGCGGCUAUGCCGAGUUCGGUC'
p530
aS'UGAAUUACACUUUCGGCAACCGUGGCGAGCUGUCACAGUGUCCUUUCGCGUUGUGUAACGAGUUAGGAUUAAGAAUGCGGAUAAAAUGCCUCGUCCCGCU'
p531
aS'CCUAGGAGAUCCUGAGCUUCAAAACUACAGGGGUGAUAAUAUAGUGUGCCCAAGCGUAUUUGUAAUCAGCCGGAGAAGCGCACGUGUUAAAUUACUCGUU'
p532
aS'CCGUAUUAAAGUAUCGCAGACGUUUGAGUGAUGGCUUGCCCCUGGUUUCCAGGACACUCUUGUGGUGCUUCCUGGAUUGAGGCUCGGUCAAAACCAGAGU'
p533
aS'CUCCCUAAGCCUGCCUUGUACCUAAGCCCCAGUGUCCAGGCGAGUUAGAUUACUAGGAAUGCGGCCCAAGAAUACCUUCCAACAAGUACGUAUCGAAUUC'
p534
aS'CAUGCUGAUCCUGGGUGGCCAAAUAGAUACGUAGGUAUUCAAGGUGGGGCCUCGUAAUCCAAAAAACCAGUGGGGACUCUUCGGGAUCACGACCUGCCGA'
p535
aS'AGCGAGGCCGAUGUGGUUGUAGCAAAAUGAGAUUUCCUUGCCCGCUUGCGGAUGGCAAUCAGGCUGAGCGCAGUCUGAGUUGCGUACCCAUAGCUCAUUA'
p536
aS'CAGCCUGGUCUUGUUCCAUAGAGCACGCGGUGCGCAGUUGGGUUGCCGUAGGCUCAUCACCCAUAAAGAGCUCUACAGAUGACAUAUGGUUGUGCACCAG'
p537
aS'GAGGGGGGUAUUCGCUACUAGAUUAGCACAAGUUUCCCAUUCCGUUAUGAUCAAUUAAAUGAUAAGUAUUCGAUUUCACCGAUACGCUGCUUAAAUAUCU'
p538
aS'GCAUUUUUGAAUGUGAUAGUCAGUCUUGGGUUGAAGUACAACUUUAUAGGCAGUUGUUUAGUAGUCGAUCCCCCUACAUGCCCAUCUUUCAAGCCUGGUG'
p539
aS'CCAGGAAAUCCAUGUCUCGGGGCGGAAGGGAAACAAGCAAAGUUUAAUAUAACAUUAUGUGCUUACGGAUAUACGGGGUAAGUGUACCUAACUUUAUUUG'
p540
aS'CCCGUCACUUGCGACAUGACAUUAUUAUGUUCGUUGGACUCUGUCCCCAAAGCGCGUUGGCGUAGGAGAUGUUAACCGCUCCCGGCCUCAAUAAGGGCGU'
p541
aS'CCCAGACCAGCUUCGCUCCCUACUAACCACUUCCAAAACGUCGCGAUAGUCGGACUAAACGAUAUCGUACCUGGACAUAAUUGCGCUAAAGAGAUAUAUG'
p542
aS'CCACCUUCAAUGGUAUGUACACGUAAUAAUUUAUCAAGGCAGCCCAGCACCUUUAAUCCCCCUUAUAAGCCCCUCGGACUGAGCUGAAAUAGCCUUUCUU'
p543
aS'GACGCUUAAGGCGCGGCAGGCGCUCGGGAGCCGAGGACCGCGGAUGCGAGCGUGGUCAUGGAUAACGUACAAGACGAUGUGCUGUAAGUUGUGUGUCGUG'
p544
aS'AUGUAUGGCGCCAUCCUCCAACCUAUUUCCGGCAGCCUGGAUUCGGAGCUACUCGUUCAAAGGCUGGGCUGAAUACGGCCUAGUUGCGGCUGGUAGGUUC'
p545
aS'AACAUCUGAAUCGGCUUAAGGGAAUGGCGAUCCUCGCCGAAUCUUCCCGGCUGCCUGUCUUGAAAUAGGACAGAUCGUCCAUGAUAAAGAGGGAGGCUAU'
p546
aS'UCAAAUGCUGCUUACCUCUACAAAUCUCGCCCCGAAUGUGGUACUGUCAGGUAUCUGGAACCGAAGCCGCUGUCGGCGAUUUCCUUAGAGUAAGUCGGCG'
p547
aS'AUGAUAUCGGUCUGCUAACUAAUCCUGGAAGUGCGUAAGUUGGAUGCUCCACUCCUCCACCGUUGCACCGUUGGAACCCUUGGUUGUCCUCCCCCGAUAC'
p548
aS'CGGGUGCCGAUGUAGAGAUUGAUUUGUACUAAAGGCACCACUCGCUCCCUUCUAGACCUUUUUUCUUCUCGCAUUAUUCUCCCGGGCAGCCGACCACCUG'
p549
aS'GGCCCUGUAGUGUCUCCAUUUCCUGAUGCUAGCCCAGAUGAAGCCGCAAGCCUCUUAACUAUCGUCUUGGUGAUGCUAUAUUCUACCGGCAAUCUCAACG'
p550
aS'CUCCGGCACGAUCCCCCAAUCGCCUGGGCGGAUAAUCUGGCACCAGAAAGAUCUGACGAUAGUUAGAUAGAGCUUGCGGUGUCGGUAGCACCGAGAUCCA'
p551
aS'AGUGUGCUUUGGCGAAGCUAUGGGUCCUAUGAGGACCAAUAUUGUGCAGGAAAGCCUGCUAUGUGCAUUACAAGGAUAUAUUGCCGACGGGCGUUUGGAG'
p552
aS'AUACGGCCCUCGGUAUCCUCUAGCGUUUUUUUGCAUAGCUAUGGUAUAGGCGUACAUAUUAGGUUCGCGACCUUCAGUUCCACUGGACGCUCACCCGACC'
p553
aS'AUCGCAAUAAUGUCGGGGUUACUCUUCCCAGUCCUGGAUAGAAUGUUUGAUGAAACACCCCGUGUGGCACCGAGACUUCGAAACUUGCUGAGCUGAUUGC'
p554
aS'AUGCGGUGGCCCAGGGCUCGAGACUUACUGACUACCUAGUAACAAACCUGAGUGCGUUAAUACCACCAAUCUGGUUGACAGAGUGUAAUAGCAUGUACGU'
p555
aS'GACCUCUUACUAUUAGUAGGAGUGACCCAGCUAACAGCCAAGUGGCCCAGUGGGGAAAGAGCAAGAUCUGCGGCGGAACCGAAACGAAUAAACUCUGUUG'
p556
aS'CCUGACAUUAGGCGUAGCUUGCUAACCGUCACGGACUCCGUACAACUAGGUCUAUAGACCAAGUGAGCUUGGGCCGUCUGGGCUCCACCAGGUUGGAAAU'
p557
aS'CUAAGGUCCUAAUCAUGGCAUAAGUGGUGACACAGAUGAGAUACCAUCCUACGCCCAUGUACGCAGUUGAGAUAUAGGGGGGAAAACUGAUUUAAGGAUA'
p558
aS'UGACGUCGCAGGGACGUUUGAGAUUGCCUUUUGGUCGUUUGCGUGAAAUAUGCUAAUGCUUGAGUUCUCGGCCGGCCGCUGCUCGGGUUAGAUACCCAGU'
p559
aS'CUGCUAGAUGAAAACAGGUUAUGCGAAACGAGUGGACAUAUAUGCACACGUGGUUAUACCAAGUUGCACGAGGAGUCAUCCGUGAGCUCAGUGCAACGGU'
p560
aS'UCACGGCACCCCGUGUCGGAGGAUCCAAAGCAGAUUAGAACCUAUCACGCAUAUCAAAACCUCCUAACUGACUCAGCUUUAUCGAUCCGCUAAAGUGUUU'
p561
aS'GUGAAAGUGGACGGGGCAAUCGGCGGUUAGAAACAUUCCUCAAGCAUGAGCGGGCUCAAGCAUAGUCGGGGAUACGUCGAUACCACAGAGGUGUAAGAAG'
p562
aS'GAAAGGCAUCCCUGAAGCGUGACCCCCAAAUUUACAUGCUUGCUUCACCGGGAAAUUACAGGUUUUCUGGACGUCGGUUGCGGCAUUCAUACCCACAAUG'
p563
aS'UGUUUCGCGGAUAUGACAUUACCUAUUGCCCACAAUUAACUCGCCCAAUACGAGCACCGGGGCUUUCUGUUAGGAAAGGCUAAUCUCCCCAUUAGCGGUG'
p564
aS'UAGCUGAUGAUACGCUUGAUCUAGUAAGGGAGGCGGGGGGCCCUCUAGUGGCGAAGCCUUCAACCGUGACAUAGUUAAGGACUGCCUGCUUGAAUUCGGC'
p565
aS'UGAUAAGGCUGAAUCGAGCUCAACGUCGCAUACGCUUAACCAAUAAUCGACGCUAGACCGAAAGUUCGGUGGACUUUUCCAUCCUCGAGGUCAGAGAAGC'
p566
aS'GGGACAGCAAGAGGGAUACUAGGCGUAACCGUAUCGCAGGUACCCGGAUAGAGUGGAGGCCGCCAUAGACAGAUGCCGGGCGAAGACAACAGACUCCGAA'
p567
aS'UAUUCGUGAUCCCGAACCAUGCACGGUGUCAGAGGAAAUAUCGAGUCGGAACUAAUACUGCCGGCAGAGAUUCCUGAUCCCGCACACGGCCAAACACGCC'
p568
aS'AGAUGCAGCAACUCGUGCACAGAGUCGAGAUCGGAGAGCUAUGUAUGGGCACUGCUAAUGGGCGGGAGCAUUUUCAAACAGAACUAGGGCGCCCUAAUAU'
p569
aS'CUGGUCGGAUCACUGCUAUCGUUAGUGCUUUACAGUGGUAGGGACUGCCACGUGUGUCCGUUAUCGGUUCCGGUGGUGCAGAGCUGACACCAAAGUUGCU'
p570
aS'UCUCCCCUUGAUAAGCCUGAUGGGCGCCAGUACUUUUGCACACACUGGCGACGAACAAAGAUGCGGCCGGGCUGCCUGUAGCGCUUACCGUAAGACUUGC'
p571
aS'GAGAGUCGGUUUGUGGAAAAAGGACGUAGAGAGUUACUCGACUUUGAUUCUAUUAAACCGAUCCACAAAACGCUGAGUUCUUGAGCAGAACGUCCCCACU'
p572
aS'UCUAUGGCUGGAUCGGGCAUGCAGUUACUGCGGCGUUCGUUGUCCAAAAGAUAUCGUCUGGUAAAGGUGCAGCAUAUAAUCACGUUCAGCAAUGUUCACC'
p573
aS'GAGUUGUAAAGAUGCCUCAUUUUAUCUCGCCCGAAGGUGUGAGUCUUUCUAAAAUAAACGAGACAGCCGACAUCCUGGAGGCAUCAUCACUUAUCUAAGG'
p574
aS'UCUAUCUAAUACCGGUCUGAAUUUAUAAGAAUUACCUCUUGCCCAAUCCACACCUCUUAGGAUGGUGCAAUGCCACCCUGCGCCGCAACAAACUGACGCU'
p575
aS'AAGGGAUACUACAUUCUUGAUUAGAUGAGUGGGCUUAAAGCGGGCACCAUAUAAUUCAAAAAGAGGUAUGUUAUCUUCUCCGCUCGCACGAAAUAGCCCG'
p576
aS'GUUUCCGGCGAGUCUCCUUACCCGCCCUACAUCUUCCAAAAUAUAUCACGAGCUAUCUAGACUAAUUACUUAGAUGCUUUACGGAAUACACACUGGUUGU'
p577
aS'UCGGAAGUCUCUGGGCUCGCACGCCGUGUUCACACUUGCCUUGUGAUAAGUGGGGACGGGCUCUAAACGCAGAUUGGCUCCUGCCCGUGGUUCCUUUACG'
p578
aS'GAGCUUUAGAGGUACUUGAUCUCAUCGAUAAGAUGAGCUCACGAAGCCGUCGGAGGGCGAUUGAUUUAAAAAGUACCUAUGCACUUGGCUUGGCCGAGGC'
p579
aS'GGACCUAUCGUCUUUGCCGUAGAUCUUCUUGCGAUAUAUGAUCAAUAUGUAAAAACCCCCUCAUCCCGGACCCAGUAUCGCGACCAUUCGACAGUGGUAG'
p580
aS'ACGAUUUUGUCGAACCCCCUUGGCUGCCGCAGGGUAAAAUGUAGCGAGCUUUCUCACGGCCGUAAGGUCUAAAAGGGGUAACCUUUAUUAGAGGCGAACA'
p581
aS'AUUACCCGAAACCUGCGCUGGUGUCGGGAGGGUCCUCAUGAUACCGUCGCCGGUCUACUAUGACGAGUACUCGAAUGCGGAAGCUCUCCUGUUAAUCCGC'
p582
aS'UCGGGCCGGACAUCCGUUGAUGGCCUGCUGUGUUACGCACGUAAAGAUAUUAUCCCAUCAAGACCCACGGACCUAUGGGCCCUUGGUACCAGGCGCCGCG'
p583
aS'UCCCUGCUCGCCUGCCCGAACCUCCUAAAACGGGUUUCCGGUGAAGCUUUUCCAUCUACCUAAGCCAACCUCGCUCCGGUUUCUCUGCCAAACAAGCCAU'
p584
aS'AUUGGGUAGCUUCACAUCCUAUGGGUACCACGUAAUCCACCACCGGGGGGCGGGUCACGUUCAUGUGUGAUACGACGACGGUGGGCAUGGAUAAUUCUAA'
p585
aS'AUGAGGGUAGUAGGCCCGGUUCUCAACCGAGAACACCACCAGCACCCCUCGAUUAAUAGCAAAGGGCCGGGCGGUGUGGUGCACAGACGCGCGCCUAGGU'
p586
aS'CCAUGGCCUAAGGAGAGUUAAUUGGCACCCUGGUGUAUAGGGCGUCCCAAAUGUUACAUCUUCGAGUUUCGUUAGACACGGCGCAGUCUCCUUACUGUAU'
p587
aS'UGGCGGAAUGCGAUUUGCAAGCUAUCGGUAAUAUCGUCUCAACGCUAUAGGACUCUACUUCCUAGUCCCGUUGCAGUGAGCUCGACGAGCGGGGCUAUCG'
p588
aS'UAAAUUCGACGAACCGUUAGUUUAGCGUAAGGCUUCACGGGCAUUUGAGCGCGCUGGUUUCGUACAGUUAUUUCGGCUACAGGGGAUCGCUGCUUCACCC'
p589
aS'GCACUAGGCCAGUUUCGAUGCAAGGGAUGAGGGUCUCAUAUGAGUGUCAGUCCCCGGGACUCUCUCUGCGACCGCAUAAGUAGGUUGCUCUAGGUUUUCA'
p590
aS'GAUAACACCGCGCUCCACAACGCGGGGGUGAACAUUGGCGAUACCCUCCGUCUUAUCCAACUUCAGAGAUGAUCACCCAGCGUACCACGCUCUUACGCGA'
p591
aS'GAUAAAGGUGUAGGCAUCUACUCGUACUACAUAAUAUAUAUAGUAUAGAAUAUCUCCGUGAAAUUUUUGUAACCUCAAGUUGGGACGUGCCUUCUGUAUA'
p592
aS'CCGCUUCUUCCUGCUCUUUGGCACUAGAGGUUUGCGUCACCGGUGGCUUUCUCGCCUAUAGUGUAGAGCGUGCUGCGGAGGGCUCGCUGCCGUUCCCCGU'
p593
aS'CCGCACCGACUAUUAAUCGGAUGCGUCACAGGCUUUCAUAGUGUCUCAGUAUGAAGAGCAAUAGUGGUAUUUAUGGGAGAUCUCGCAUCAUCCUCCGAGU'
p594
aS'CGAACUCAGUAUAUAACGUCGAGUGAUGAGUUUCCUGGAUACGUCGUAUUCCCAUCAGCGAAUGCCAGCCGACCUUGCUUGACGAGACCGUUUCGUCGAG'
p595
aS'AUCCUAUGAACUCUUUCCUUUGUCGAGUUGUGAGCAAGUCUACAUGGAUUACUAGAACUGCGCUUCUACGCCGUCGAUGAUGAAACUCAGUGGACGGCGA'
p596
aS'GGAACAAGCUGUACUCCUGUCUUCUGCCUACGUUAGGGGACGUAUCGAGGACGGGUUUAGACGAGUCUCGAGAUCCAUGGAAUCCCCCAUUUACACUGGC'
p597
aS'UAGUUUUAGCCAAGGCCCUAUAGAAAUGCUACGUAAUGUGUAUCCGGGCUAACUCAUGUUUAAUCUCUGGAGUUCGUAGGCAGGUCAUAAGGUGGUAUGC'
p598
aS'AAUGCGCGCACAAGACGCGUACCGUCUAUGGCAUUCCUGAUACUCCGUCGGAUAUUAAUAAAUGUGUCGGUCUGUUCUCAGUUUAGACCACAACCUAACA'
p599
aS'UAAUCGUACGAUGCUGGAGUCCAGGCAUUGGACCGACGUGAGGUGGCACUGGUCUAUACUACACACGGGGCAUCCGUCUCAGAACAUUGAAGGGUAGUGA'
p600
aS'ACCUAACUACAUAGCGACUAUCAUGCCCGUUGCUGCGGGGAUGUCCUCCUACAGUAGACACCGUCAACACGGCUCAUGGGUUAGAGGAUCUUCGUCAUCA'
p601
aS'GCACGACCUUGACUUAACUCUCUACCUUCUUAAUUCCUACGAAGCUUAUAGUAGAAGUGGACGGUGGAAGCUCACAUUGGAAGGUCUCACGGUGUUUUAA'
p602
aS'UACUAAAUAGCUGUGGAAGCAAGGCACGAUGAUUCGUCAGGACGUCGGAUCAUAGAGUUCAGAAAUAUAGGGCCGAUGCCAUUGUCAAGGGUGGCGCGAU'
p603
aS'AAACUCUGAGUUUAGAACCUCGCCAUUCAGGUAGCAGAUGACCAAUCCCCCUUGGCUUACACAUCGUCGAUAUGCGGGGGCUCUCCUCGUUAUGCACACC'
p604
aS'UGGAUGCAUGGUAAUCAUCUCGGUUUGAUAGGCUAUAUGCGACUCAAUUCUCUUUAUGCUAAUAGAAGCAGUGGUCUGGGCACACUGACAACAAUAUUUC'
p605
aS'AGCCUGUGUUGUAUGUCUUCUUUAUACGAGAACCACUUUCCAUACGGCACACUCCUUAACCUACCCGAAAUCCUGGGUUGUAAAUAAGCGGGCAGUGAUU'
p606
aS'GUAUUACCCAGGAACACUUGGUAAUUUUGCUUUGCAAUACGGGCUGCCACAAACGGCAGCGAGCUGAGAUCAGAGUGUCAUGAGAAAAAUAUGCCUUGCU'
p607
aS'UGUCGCUGUCUACAGGUAUAACCGGGACCAAAGAAACUUGGCGACGGUAAGUCCGCCUAGGCUAACUUCGUCCCCGUACCAAUUUCCUGCUCCGACUAGG'
p608
aS'UAGUCGCGGACAUUGGAUAGUUGCGCCAUUCGCCCCUGUCAAGUUGAGUAAAUGGGUAGACCUGCUCCUGGUUAAUUAUUCUAACCCUUCAGUUAUGGAU'
p609
aS'CCAACUUAGCAUAGACUACUCGGGUCUCGUGGCAGAAGAUCUAAAACUAAGUGUUGGGCCGCCCUGACGGUUCACCACACAGUCUCCGUCACUCCCAGUC'
p610
aS'GCUUCACUGUUACAGAGUACAAUAGCGCUCCUCUGUGUCGCGUGAGAUGGAUCAUCAGAUGGUGCGAUCGGACUGGCAAAGGACCUUCUAUUCAGCUUUC'
p611
aS'ACUACGAGACUCAUCUUAGGAUUUCAAAGCGUAAUGGUUACAUUAGGUCGUUGGGGAGCCUGUUGAGUUAGGGAUGUGUUGUUAGCCCGGACAGUCCCCC'
p612
aS'UUAGACCUGUAUAACUUGGAUCUACCCACGCUCGGUCGUGCUAAAAUAUGUUCUUUGAAAACGGUCCAAUCUGACUGAGAGUCCAUGUAUCCGUUCGGCG'
p613
aS'GACAAGUAGUGAUGGCGAGAAACGUGUAUAUAUUAUUUUCACUGACCUUCCCACGACUCUACGGGCUCUCGUCCUGCAGCGACGGAUUCCCGAGAUCCGG'
p614
aS'GACGCCCCCAGUAUAUGAGUGCAGAGCGAACUAAGAUACCGGACUAGGACUUGGCAUCAGACGGCUGUGCUCCAUCGACAUAAUAAUGGGAAGUAUUCAU'
p615
aS'UCUAUGAGCCAGCAAGCCCGGUAAAAAUGCCUACUCAGCUGCGAAAGGGAACGUUUCUAUGUAAUUACAUGAGAGAACAGGGUAGUUGGUCACCCGAAAG'
p616
aS'GGGGGAUGCCCGGCCUCCGAAAGAUCCGGCCUCUUACCCUUUGAUCCAAUGUUUGUUUUGGUUCCAUCCAGGAGUUGCAAUUGCGAAUUGAGGUUUGAAU'
p617
aS'CCUACGGAGGUGGAUGGCCCUGAUAUUCCCUUGACCUGAGAUGUGGGAACGCUGUUUGAGCGUCACCUCUACUUCUAGAGACAAUGUGCCUAAGCAAAAC'
p618
aS'AGUCUAACUGGACCCGCUGUUUUGUUUGAUCUGACUUGCCAAGGGGAUUGCUUCCGCAGCCACUACGGAGCUCCAUCUCUGUAGUAACGUUGACUCGAUG'
p619
aS'GACUCAGGAGGGUGGUUCGCAUGGGUGCUUCGUUCAUUUAGAGAUUUGCCUGGAUUCUGGCGUCACCAAAGCCGCAAACUGUGGGGCCGAUAAUCUGGGG'
p620
aS'UACGGUGCCAUCCUCCAUGUUGACAAACGUAAUGCGUUCAUAUGGCUAGAAACUAUCCUGCCUUGCGGGCCGAGCAUUGCAACACCUUUUUAACCUAGCC'
p621
aS'UGAGAAUUAGGCUUCGGGGCGUGUUCGGAAGAGCCCGUUAGGGCUCCUCCUAAAAAUUACGAAACCCUUUAAAACUAAACGACAAAAGAGGCAUAUGGUC'
p622
aS'ACAAAUACACGCGUGUCCAAGGAUCGCCAGCAGCUCGGAGUGGUGGAAAGGUCAAUUGGCCUAUCUCCACUGGUGCUCCCUUGGUACCAGUGGUGAAACG'
p623
aS'CAAGAUGCGGGAACUCGGGGGGUGAGGGGAAGGGGGAGGGUAAUAAACCUGGAUGUGGCAUUUCCCUCCACACCCGUGCGUGCUACCUCGAUCUAUAAAA'
p624
aS'UUCGAUUCCUCUGUACAAUGCUAUAAACGGUAACCCGUCGAAGCCUAGGUCAAGAAAUAUCAACGGUUCGUCGGUAGCCACUUUAACACGCACUGGCCGU'
p625
aS'UGCAACAGUAGAUCAGGAUACUGUACGAUGGCGGGCCUCAUACGUAGUGUGCAUAAUGCUGCCUAGUGAGCGUUUACGCCGACGCAAAGCUUCUCUAACU'
p626
aS'UAGGAGUGCGCAGUUAUCCUUCCCAAGCUUUUCUGAUAUAAUCCGUAGGGUGGUACACGCCCGCUGUAGAGCCGGGUUUCGGAAUGCAUUUGUACGCGAA'
p627
aS'UUACUAAGUUCCUUGAGCUCCGUUUUCGGCACAAACGAGUGAUUCUCCCCUAUUUGACGGUGCAACCGGUGGAAACUGGCUGAUGUUAGUAGAAGUAUUC'
p628
aS'CGCCUACUUUACCACCAGCUUUAGCGCCAGAAGGACUCUGUAGUACAGAAAGUCUCCAAAGGGGACGGCUCUUAUAUAUUAUGGCAAUUCAUCGUUGUGG'
p629
aS'UCUCGAGAGGCAGGCCAAUCGCAUUACCGACAGGUGAAGAUAGCCAACGUGCGGAACUCGUGGGAGACUACUUAGAUGUCACAAGCUAAGGUAGGAACCC'
p630
aS'AAAAAUGCUCUAAGGAGGGCCGUCCACCGUAUUUAUUGUAGGUCCUCCUUUCAUGACCCCGAGUCAAGUCGGGGUAGGGGUGAUCUAACUAGAAUCAGUC'
p631
aS'GAAUUGAAUAAUUCUCCAAGAUCAUGAGGCUUCUGUGGUGUUGUUUGUCACGCCAUGUGUUGCUAUCAGUCCGUAGGCGGUCUUAUUUCUAGUAGGUAUA'
p632
aS'GCUUCUUGGGAGCGUUGCAGUGUGUUAGGGGAAUGUUGGGCGCUUCUGGUAAGCCCAAAAGGCGAGUCCCGUCAGGCCAGCCUGCUGUCCUAUACAUGGC'
p633
aS'CGUGUAGCGGGGACGCAGAAAAAAGUGGAGCUAUUCUCGAUCACGGCACGCGGCGUGGGGACGUGUUAGUGACCUAGCUUCGGGUCAAUAGCGCGAGCGC'
p634
aS'GGAGCGAACGGGGCCCAAUGGGGGUCGGCCAUACUUCUCGGGAAGGAAUAUGCUUUGAUGCCCCCUGCUGCGAUCUAAGCAUUAGGAAACCAUAUACUCC'
p635
aS'CUACCUUUUGGGCUUGUGUACCACUCGCCUCUCGGUUGACGGACUGCGUUAGCGAUCGGCAGGAGUAAGGUCGCGGGCAUUGGAGACGAAAAACCCUUGU'
p636
aS'CUUUGAUUCAUUCAAAAGAUACUAACCGACUAGAUGUGAAGAAAGCAACCCACCAGUUGUUACCGUUAUCAAUCAAUUUGCAACAGGUUUAACCCGUCAG'
p637
aS'UACCGGUCUCCCUGAUGCAUAAUGUGGCUAUGCCCGCCCGCAGACUGUUACCGUCGUCCCUUUGAAAAUCCGUAAUGUGUUUCGCGUAUUCCUUCCAACA'
p638
aS'CCCCGACCCGGAGGUGGUUAUGUGAGAGCACAAGUUUAAGGGAAGAGAGAAACCAAAUUCUUAGUCCAUAUAUAGACUACAAAUAUUGAAUUUCGUGCCC'
p639
aS'GCGUUUAGUGGGAUCGACUUUGAAGAGACUCCUACGACUGCAAUAUAUGUGUAGGCGUAGUUUCGCACAGCAUAACCCUGAUAGGUUCCGACGUACUUAA'
p640
aS'UGUUGGCGGUCAGUUCAAAAAAUAAAUCCUCCACCUCAUAAUCAUACGUCCAGGUUCUUAUUGAUGCACCUUUAUGAAGAUUUUUCUCAUUCUGGGGUGG'
p641
aS'AGAUCGCACUGUGCAUACGCCCAUGAUGCUCCUGUAUACCGAAGUUGUUACGUAACAUGGUGUGGUGACGCUAGUUGUUUUUCACCCAGUCCUUUAAGAC'
p642
aS'GCAUUAGGGGGGGGCUAUCGAUACCCCUAGGUCGUAGACUAUAGGAGUAAGUCGUACCACCAACUUCCAACGCACAAUGGAGCGGGGGGGAUUUGCGAUG'
p643
aS'AUGGACGCCGCUCCCUUGUCUUGGGGUGUAAACCGCUGCAUUAGUACCUGGUUACGAGAGCGAGGCAAGGAAAGCGGGUCUCGGGAAUUGGCCCGUGCUG'
p644
aS'AAGAGAUCUACAGUCACUCUGUGAGAUAUACAGGAUUCGCUGUAGCCGUCAGCUGAGCCUCCAACUCGCCCGGGGUUGCAACAGCACACUUGAUCUACAG'
p645
aS'AUGGCGCUGCCCAUGGUUAAGUCCGCGAUACUUCGCAUAUUUUCAGGCUCACAGUUCGAAGUGGUCGUGGGUACUUACGAGCCGCUCAUCGAUAGAUGUG'
p646
aS'CAAAAAGUACUUUAUUCGGAAGGACAGUAGCGUCAGACUGCUUCUUUACGAGCACCUAACCGUCGAUACUAUUCCAGUAUUGGGAAUUGUGUUUGAUACU'
p647
aS'GGGCGACGAUUGACGCACCCCGAGUGAGAUGCAAAGUCGCGAGGUCAACAAUGGAGGUGAGCUCGUUUCGAGACUAAAUUCGAUCAGUCGCAGAGGAGUU'
p648
aS'AGUCACGUUAAAUAGUAUCCGGCAAAGUCUAGGGGUUUUAACCGUUAUGCCUACACGUCUUCGAUGCAUCUUGUCGGAUAGGCGGUUUGGGCAGCGAGCC'
p649
aS'CGCUUUCCUGGCGUUCCACAGCCUCCGCGCUAGGCAGGGGAGUUGUGUUGAAUGGUGUUCGGCGGGGGGUGAAGGGUAUCAAGCCAUUUUCGCGUUGGUG'
p650
aS'GGGACUCCUUUGGUAACAGGCAAAGGUACUGCGUCCGGGCCAACACUUCCGUUUUUCGUACCUGAAUUUAGUGCGGAUUGUGAUUAUAGACUCAUCGUAA'
p651
aS'GUGCAGCUAUGCCAUUUGUAAAGACUCACGCAUAUGCUGUGUUUCAGGUUUGCCACAAACUUAGUAUAACUACCAUCCUGCGUCCUGUUGCUACGAAACA'
p652
aS'CCGCUGUGACCCAGAAAGAUCGUCUUUUGUGAAACAGCAACUGAAGGAUCAAAGAAGCGGUCAUCGGGGCCUAUGACCAGGAAAUGCCCAACGUAGUGCC'
p653
aS'GCUGAAACAGACGCUCAAACCCUUGAUCCACCGCGGGAUCACUCCAUAGAUUGAUCGACUAAAGCCACCGUGAAACGACUGGAAGCAUGCCAUUCCAAGG'
p654
aS'AACUUCCUAACGCACAGAAUCGAGUUCACUCAUUCUGCCCUUUCUCUCGGAUAAAACCGCUCCAGCAAAAUGGCGGCAUAGCGUGCGAGCCAGCGAUUAC'
p655
aS'ACGAACCAGACGCCCGGAAGCCUAAUGUGCUCGUAUGUCGCCCAGACGCCGCAGGCCUGGGUUGUGAGUUACGGCUGCGGUUCUACACGCGCGGGUUAGC'
p656
aS'GCGGGAUUCAGGUGGCUUUACAAUGGUACUUAGCCAGCGAUUGGACGUAGUUAGGGCUUGUGUUGGAAAAGAUACCUGUGUCCACUCAACUGUGAAUGUU'
p657
aS'UACUCGUAUACUCACAUGAGGAAGUCUAAAUUAGGGACUGAAUUACGUAGGCAACCUGUCGGUGUAGCGUCAGGUGGACCUAGGAAUACCCCAGAAUACA'
p658
aS'AGAAGAUUGUCACCGGACGACAUAGGUAUACAUCGUGCCAUGUAAGACUCCGACCCCAGAGUAGUACCGUACGCUUGGACGAGUUUGGUCGCCUAGAACC'
p659
aS'CGAUCAGGGGGCAUCCGAAAUACCCGCCUAUUCGGAGGGGGAACCGGGAGUCACGCGCCUAGGCGUAGAAAACGCUAACAGUGAAACCACGUAAAUCAGC'
p660
aS'CAUGAGCCAAUAGUUUCACGCAAGGCGUAGAAACGCGUCUAUGAGUUGAGCUCUCAGACAUACCAAGUGUAAGGUUAGCCGACUAAAAGAAAGUCGAAAC'
p661
aS'CUUUUUCUUUUAUCUUCCAGAGCAUAUUGAUCCCUUUUGAUCGGGAUCGUUACUCACACAUUACAAGCUGUACAUUCCGCUGCCAGUCUCCCCCAGAUUC'
p662
aS'GACGCGGUGAUACACCUAGCAAACCAGACUAGCUAGGAAUAACGAUUUUGGUUGGCGAGCAGUUCUUCGCACCUACCUGGGUAGAAUGAUAAAUGUAGUC'
p663
aS'UACCGGACACUCAGAUGGUGCUAGAACAGGCCAUGAACUCCUGCUUCGUAUUUGUAGGAGAGUGAUGAGCCGAAGGGAUGAUUCACGUGUUGCCCUGCUU'
p664
aS'AUCGGCAGCCUCCACAUCUUUGUCGUGUUAUAUCGGGAGGCCUCAAGUAUAAGCUCGACGGCAGACUAUUCUAGAAAGAGCGAUGAGGUGGUAGCUUCGG'
p665
aS'GUCACACUCUCAGACCUAAUCUGCUGUGACUCGACCUCCUUCAGUGGGUAUGCCCGCAAAUGGAUUAGCUGCGGUCAUGCAGAACUACUGAGAACACACU'
p666
aS'UGAUUAUUGAGUCUCCUCCCCUGCGUAUACCUUUCUGGGGGGAGAACUCUAGAGAUGUGAUGACCGAUCCAAAAAUCCAGCCCGGGAGCGCCAAAGAAGG'
p667
aS'GAAGGAUACCAUCUACCGUCCUAUCGACAUUUUUCCAGGAUGUAGCCUAAACCACGUACAGCCGCUAUGGAGCCUCCACUACGCGUGCGAGACAUUAAUG'
p668
aS'CUGUGUCUCUGGUGACCCGGUGCGAAAGUCACAAACGGCGGCCGAGGCCGGCGUCGCUCGGCCCCAGGUGAAAUCCGACGUCCACGUCCCCGUUGGGGCG'
p669
aS'UACCAAUCACUACCGUUACUUACGGAUCACUCGUGUGCCUCACACAUCAGUUAAAGGGUUAACGAUGACCGGUCGCUUACGACAGGGACCGACACUCCGA'
p670
aS'AAUAGAGUCAUGCCCUCGUAUAAUCGAAUGGACGGAUUCUCAUAGUGCGUAUUAAUAUGGCCGCGCGAUAAGCUAUGAUCUACUGGUCAGUGGUCACAUU'
p671
aS'UGACCCAACAAGUAGGAACACGGUUUCUGAUGACCCUAGCAUCGAAAAUAAUCAAGCAAGUAUAGUCCAAAUUCCAAAGUCCGAGCGUUGUAGUUCCUGU'
p672
aS'CACCCGAAGAUGCUCUCUUUUCUACUAUCACAAGACGAGUAACUCCUUACCUGUGAAAUCUUCAAGAGAGGUAGCCCUAUUGGGGGCCGUUGGGGCUCCA'
p673
aS'AAGCUACCACUUCGCCCCAACUAACCUGGUUUAGUUUGAAGGAACGCUGUAGUCAUUGCGACUUGGAUUGCCGUCACCCCCUUUCCACUGCCCCACAGUU'
p674
aS'CGCACGGUACGAGCGCAUAUCGACCGUUGUGCAUCUCAGAGUCUGAACCAAAACCGAUAUUCAUAGGGCGCCAUGACUUAUUACUCGUGGCUACAGUGUA'
p675
aS'GCAGACUUAUUUUACAAAACGAUAGUCAAAGAUCUUCUCUGCAGAAAGAUGAUUUUAGAACGGGACGGACGUCGUACUGUUUGUAAACGCGUCGUUUUAU'
p676
aS'UCUGUAGUCUAACUCCACUUCAUUGGGCAGCAGGGUCCCGGGAACUGGAGUGGCGCGACGCCUUCUCCGUGUCGACGAUGCAGUUACCCUACGACCCACG'
p677
aS'GGGAUUACAACUGUGCUCAGAUUAGACACUACAACGGAACAUAAUUGACCUAGCAUUCGGUAUCUGGAUAAUGCGACCAUAGCGUUGCGCGUUCGAAAAC'
p678
aS'UAGUGUGACAGAGGCCGGUUUGUUACGCGGAGAGGCCUGGUAGAUAAUCUCGAAACCCUCGAAAAUCCGUGGGCAGGGCAUCGCCAUGCAAUCGCAGCAA'
p679
aS'CCAUCCGCCGUAAGCAGCAGUUCGGUUAACCUCAAACCAUGGCACGAGUGUCGUCACUUCUCUGACUCGGUAGCAUGCGAUCUCUUUCGCGAUGGCACCC'
p680
aS'AAACAUGAUAGCAUGCGUCCCCGUUACAAUCUUGUAGAUUGUCCGUCAUCAUCGGGGCUUUCAACGCCCCCACCUGGAGCACGCGCUAGACUAGUUCCGC'
p681
aS'CAGGGCACUGAAUUCCCCUAGGCCACGCCGUCGGGCCGGCACGCUACAGCGUAUGCACGUUAGUGGCGCAAGGGUGCAUGUAAGGGUUCCCCGUUCACCC'
p682
aS'GUUUUUACGCUACAGCUAUACAAUGGGUUACGCAUGUAUAAAGAUUCUGCCGAUGGCAUCAGACGCCAGUCGGUGAAGGUCCGAAACCCGGUAGGUUCCC'
p683
aS'GAUUCCACUGCAUGGUGUUCCAGACUAAUCGCGCGGGUGGAGUAGCUAACCUCACCGGGGACACCGGAAAAAACUAACGCCAGUACUACUCAGGAAGGUU'
p684
aS'GAGGCUACGGCGAACGUACUUUACUUUGUCACCUAGACAACACUAUCACAACCUCCAGAGGGGCGUACCUUAGCUGUGAAGAUUAUGGGGCGGACUUUUG'
p685
aS'UGUCAGAAGCAGUUCCCGGAACAGGGCAUGGAGGACCUAUAACGGCGCUAAUUCCAUCCAGAGGGCCAAGAGAUCGGAUUUCCCGUUAGCAAACGAAAUG'
p686
aS'CAUCCCGAUAGUCGGGAAAUUCGGUCGAGGGCCCUGAUCACGAGUGUGAUUACCCGAGAUUCCGCCUACCUCGGGAGAAUACGGCUUUUUAAACGUCCAU'
p687
aS'UCAAGAGACAGACAAUCGCAACACAACGGUUUUGACCCCUUCAGGCUACUUAAAAUGAGAACGUCAGAGCCAAGCUUUCCAACUCUAUUGGAGAUGAACU'
p688
aS'UAGGCGAAUGAGUCUCCCUUUACGGAAACGUCAUCUAUCGCACUGCACUACUGCGCGCACAGAGGUGCCAGUUUAAAAGAGUUGGACCACUUCCGUUCCG'
p689
aS'UGUGCAGUCCAAGACCUCGAUACUGUGUUUCCGCCCAUCCGGCCACGUUUUGUGUAGCACUAGUUGCGUCCUACCACUGCUACGGCGAGCUCCACUUGGG'
p690
aS'UAAGUCAAUGUUUUUCUGAGGUCAUUGUCACUAUGUCCGGCACCUUUAGGAGUGAGAUGAAAUGUGGACACAUCCCUUGACUGGCCCACAACUGUCGGCU'
p691
aS'ACCUUUUUCGCGUUGGGUGCUACAUGGGCUCACUCUACACCCUUCACGGAAGUCGUGUCUACGGGUUGGGCGCUGUUUUUGUGUCCUUCGGUGUGCGUAA'
p692
aS'CGGUUCAAUGGACAAAUCCUUACUAUAGAGCCUAUCUACGGAGAAACAGUGCAUCCCUUGAACUCGGGAGUGACCGCGAUGGCCAGCGGCGCUGGGACUU'
p693
aS'GGUUCGAAAAUGUUCCAAGAACGCAUCCUGAGUAUAUGGAUUUAAGUUCCGCCGGAAUCUUAAGAUUAGGUAUACCAGUCUACCGCAAGCAGCUAUGCUG'
p694
aS'AGAUGGGCUGAACUAAUUGCUGACCAUGUAGAGCCACGUUAUGUACCAUGACCUGACAAAGCUGUUCCUAGUGCAUGGUGACCACAAAUCUGCUGGAAAU'
p695
aS'UUUGAGCCGGGGUACCAUUUGGUCCCGCGCUCUCAUCAUAUUCUCAUUCCGUACCACAUAUGCAGGAGCCCGAGAGUUACCACGAGAUUCAUUGUCAUUA'
p696
aS'GGCUGAGACUUUUGAACCGGCCCCCCCGGCCAGCCUACGCAAACGCCGAACAGGGUUACAGUCUGUCUAUCAGCCUAGGGCUCGUAAUCUUCAGCAAUGU'
p697
aS'UCUAUUCUAUAUCGUCGAGAAGCAGAAAUAAUAGUUUAAUCACCAAUGGAGCAGGGAGCACACCUCCGUUAACUUGGUCUUUUCGUCGGGAGCGUGCCAG'
p698
aS'GGGAUCCGUACGACCAACGGAUGAUGCGACUCGUAUCCCCAUAGUGGGCCCUGGCCGAUAUUUCCAGUCCACGAGUUCGGGCCUCAUCGAGUUCUUGUAC'
p699
aS'GUCCGAUAACGGAUGGCACCUUUCGCACACUCAGAAAGUUGGCUACUUGCUCAGAUGGGCCCAACUCCCGAUCGCACCUUUAGUUAACGGGGCUAUGUUU'
p700
aS'GUAUUAUAGCAUGGGACUACAGAGAGGUCAUCUCGCGCGACUCAUUAGUGUAGAUGACGCACGGUUGACUGGCGCUCCUCUGACAUUCCCGAGCGUUGGG'
p701
aS'AAAAGUUCUAAUAGCCCAGCACUUAUCGGACUGCAGUGGAACCAUUGGUCUCUGCUUCGGCUAUUGAAACAAAAUGCGGGGUGAUUUUAGUGUACUGGAA'
p702
aS'AAAAUACUCCGCAUUCAGCUGACGGAGUCAAUGGCCGCAUUGACGCGUGCACUUCUAACUUCUGUAUCCUUGCAGAAUCCUAAAGGCGCCGUGUACUCGA'
p703
aS'UUUGCCGGCCCGCCCGAAGUGGUUCUUGCAUGGGGCCAACUGCUUCUCAUCGGCUUCUACGAUUGUCGCCCGUAUGGCGGUAUCGAAGCAGUCAUCCACC'
p704
aS'GGAUGGGCUAUACAAGGUUGAUGCAUGCAGACAAUAGCUAAGCAGGUAGUCUAGGCUAGUUCGGAACCCAUUUUGCCGCACACCGCUCGAUGUAUGCUCC'
p705
aS'UGAAGGCGAGCCUGCGUGUGCAGGUCGCCCCUUCUUAGGAGUCGAGCUGAUGCUGAUGACGUGAUAGGGGAUAAGGACGGCCAAGCGUGCGUUCCGGAUU'
p706
aS'CAUAUUAUGAUUCAAUAAAGCUAUUAUGACGAAAUCUAGGUAGGGUGCUGCAAGCGGGUACAAAAUUUCGAGGGGUCACACUCGUUGGCAAAAGUGUAGC'
p707
aS'UCCAUCGCUGCCGAUUAUUCAAAACUCGUCAACAAAUUUGUCGGCGCUACCGGAGUUAUGUCUGAAGUAGUAAGCCCCCCCAGAUCUCGUGCCACGCGAU'
p708
aS'CGUCCCACUUAUGUAAAGUGACGAGGCUUCCGAGUAGUCACUACCGUGAGGAUAAAAGAUCGGUUAGACUUUAUCAAACGGAACGAAAAUUUUUACCUCU'
p709
aS'AAGAGCGACGUACGUUUAUUAUUUAGCCGUUGAAUUGGUUUCUUUAGGUUAAUACACACCGCGCCGGACGACCUGACCCCAUAACUUACUGCGAGCUUGU'
p710
aS'GGUUCGGCCAUGGCGCUCCUUGCAUCUGAAGUACUGUAAUUCGCUUCUAUCCCACCGGAUCUUCUUCUGGUUCGGGUGAGUCUGCUGGCGGGUCGUUAGG'
p711
aS'ACCAAGUGGGUCAGCGUAUUUCAUGCAGGGUCCUCUACAGAAAUAGGCCCCCUGAACCCUAGCUGCCCUUACUCUGACGGUGACAGGGAUUGCGGAUCUC'
p712
aS'GAUGCAGUGGCGGCGAGGUCCCGCAUGACGACGAUCCAGAUUUGGCGGGGACUUCUAGGGGCUUACCGUAAUUCACCCCCGAGGGCUGGCGGCCGACCGU'
p713
aS'CUGAUUUAUGUUCCAGAUUAACGUGGCACAUAGGAUUAGCCGCACGCCAAUAGUAGUGCUAAUUUCCCGAUAGAGCCGCUUGUAAGGCGACCGGGAACUG'
p714
aS'AAAGGAUACAGUUCCCAAUCAUCUUUUCCCUGGCAUAUAGCAAUAAUGAAUUAUUCGCGAACAACCUGCGCUCUAAAGCUGACUCCAAUAUUUCUCCGUC'
p715
aS'GAGUAUGAUGACCGAGCCAUGUUAUCGGUCAUCGUGAGGCACAUCAUAUGAAGGCCGCAACCGUCCUCUGACCUCAAUAUCCGUCAUUCCGCACCUUGGA'
p716
aS'ACCACAGCAGAUCCGUGAGUUUAACGGGAUUCCUCUCGGCGUCCUCUCACAGGAUAAUAGGAUUCGUCUAAAUGUAGUCGGGGUAUUCACCUUCGCCUUG'
p717
aS'CCAUAUCAAGGGCGAAUCUGGUCCGGAGCUAUAGCCAGCGCGUAACCCCUACCUCUGCAUUUUUAAGAUCGUGUUCGCAAAAGUAAGGUAAGUUACCCGG'
p718
aS'CCUUAAGGCUACUUGAACACGGUUAAUGCACGGGAGUAUGACUAAAAAUAACCGGCGAGAGACGCAAGUCGGUCUGCGUCCGAGCCCAAGGUCAUGAAGC'
p719
aS'AUAGCGACCAUACCGGGUUCUGUAGCACGGCUAAAUUUGUGUAGGACCUUGAUCGCCGCCGAGACGCUAAGUACCUGAAACCAGCAUCCCAUAUGACUUA'
p720
aS'GACGCUAAACCUUAACUUCCUGCUUGUAUAAACAUCAAUCGCUACUGCUUCCUUAGCAAAGUCCCUAAGGCCACCACAGACCUGCUGGCCUCCAACGGCG'
p721
aS'GUUUGUCCCGCCCAUCUAAAUGGGUUCACCGAUUUCUUUCCGCCCAGAAUAGAAGAGGCCGUCACUAUAUACCUACGAGUUAAGGCGUAACAGGCUUGCC'
p722
aS'AAGGCGGUGAGGAGCCUUUACUCUUGCUACCGGUCUCAUCUGCUGACAUUAAAGUUUCGUGAACUGGGGCCGAGCGCUGAGGUCAACGCUCGAGUUAGUU'
p723
aS'GUUGCUCUUCUACGAUACCCUCGGGAGACUUGCGUCUGCCCGUUGAGACGCUGGGCAAGCUGAUGUUACACUUACACGUUCAGAGAUCGCGCUGGAAUGA'
p724
aS'AUCUCAUACCACAUUCCACCUCCGUGAGCCGUCACUCUCGUCCCUAGACCUCACUUAGUCGCAGGGUUCGUCCAACAUUGAAAUGUCCGCGCGUGUGUUU'
p725
aS'CAAGACGAAGUAGCUAUUGCUACGAGCACCUUGCAAUGGUCUCUACAUCAUAAAAGCAAGGCCGAGCUAGCCUCUCGGGGAUUAGAAUGACGAGAUGUAA'
p726
aS'UAAUUACGAUAGUCCAAGAGCGCCAGGAUUAUGCGCUGACUGUACGGCAUUUCCUACGGCUCAAUCUUCCUAGAACGUGGAUAUAUCUCGUGAUUGAGUG'
p727
aS'AGGUGAGAUAUGAGUAUGAAGCUCGCAAGGAACGACUGUCGGAGCCAGUAGCAUUUAUACCGAAACGCUAUCCAUACCUAAUUCCACUACUGUGAACCAG'
p728
aS'AUAUCGAUUGUCUACUGUUACUCAUAGCCGAAUCUGUUGCCUGCCGCCUACGUACGAGGGGCGACCUCAAGGUCGGAGCAUUGUCGGCCGUUCAGACGGU'
p729
aS'GAUCAGUAGACAGUCGGCCAGCCAAAAUUGACUAAGGAAUCAGCGAUCUUGUUUUUCCCAAAUGGUCCCUCUCAUGUCCACACGACUAGGUACAGCGUUG'
p730
aS'UAACCCAGAGCCGUGUUGCGGUCGCAUCAUGGUGGCGGUGAAGAUCGCAGCACUGUGCUUGGCGCACUGCAAUGUGCGCUUUUGUACACCGCAGACCGUU'
p731
aS'AGCCGAAAUUUUGCUCGGCGCAUACACUAGAGCGUUGCAGACAGCGUGUUUGUGUUCGCUCUCUAUCUUAUGAAUAAACGAACUAUGCCAAUUGUACCAU'
p732
aS'AAACCGGUCACCCCUCCCAUCUCUUUGACACAAUCCGCUGGCUAAAUCAUGGGUAGAGUUUUGGCUAAAGAGCGCUACUUACCAGCAAAUGCCGGUAGGG'
p733
aS'ACUUUAAAAUGCCCUCUACACAUAUCUACCCAUAUAUUUUAUCUCGAAGCACUAUUUCGUGUAAGUCGUUAAUUUGUGGAUCAGCGUAUCGAAGCUUCCC'
p734
aS'UGAGCGAGCCCCAAGUCGCAGGAGGCUACUAGUUCCGAUGUUGAAUAGGUCGGUGCUCCGUCUAUGGCUUACAUAUGCAUUCGCUAUGCCCUCCUCAAAC'
p735
aS'UUAAGACUUAGAGUAGGUACUCUCCAUUAGUGUAUCCUAAUUUGAUGUAAGAUGGACUGGACUGGGUACGGAUAUAUCAAUGUACGGAGGUCUACCGUUG'
p736
aS'GAUCGACGCGGCCUGUGGCUAGCAGAGAAGUAAGACGUAGCAGAAACCGAUCGGAAGCAAGAGUCCGAGGCCGUGGUCCGGGAAAGAUAUGUCGGUCGAU'
p737
aS'UAAACCUAUUCCCUUUACCUGCAAAGCGGAUCGAGCGGCACCUAUAGAUUCCACAGUCGUGUGGACAAUCAUUACAUGGAAGCCCUAGUUGUUGGCGGAC'
p738
aS'CGGGCGGGCAACAUGGCUAGGACAUAUCCGUUAACCAGGACCUCAGAAUUGGGGUGCUACCGACCGAUUCAUUUGGCCUGUUCCUUCCAGUCAGGCUUCG'
p739
aS'UUUCCAAUGCUGAAGUGCCCAGGGGGUAAGGCAAUCAGCCUUUACCAGCUCAAUUCAAGCUAUGAGUAGGGGAGCUCACAACCAAUAGGUUUAUUGGUGG'
p740
aS'AUCACGAUAGUCCAGGUUGCUCUCGGUGUCUGUGGUUACUAGCCAGAACGUGGUUGGUUCGGAAAGAGUAUUUAGGCUGCUCUCCCCUAGGCAAGGGAUC'
p741
aS'GCGUACGAUCGACCUGCUCAGUAUGACUUAACAUAUACAGGACUGAGAGAGAACGGGUCUGGCUCCCUAAUAACGUCAUGAUGAUAACCCAACUAGUAGU'
p742
aS'ACCCCAACAGGACGUGCUCGUCUAAUCAUACGUAAGUCUGCGUAUUGGCUCGCGUUCCUGCUAUGGUAUCUCCCAGUGGUAUUCGUCGAAAACGGACUGA'
p743
aS'CUGAACAGGUUACCGCAUAACGAUACACAAAGUUAGAAAAGGUCCUCGGACGAUGAAUCCUCUGAACAUUUCGGCCAUAUGUCUACUGCAACACUCCUCA'
p744
aS'UCCCUCAGCGUCAGCAGUGUGUCAUACUCAUGGCUACACGUUUUACCUAGGGUGGAUCUAGUUCAGAUCCCACCAUACAAGCACCACACAAACUAACGAU'
p745
aS'UACAGCACUCCCUAUUCGAAUCUAGCCUUUAUUGGCGCGGGGAGGCUCUUGCAUAGCACAAGGGCAGAACCCGGAGGUGAAUUCCUAGGAAUUACGCACA'
p746
aS'AUCAAACUAGCGGCCAGGUAGACAUAUAAGUACGUCGCCCGAACUUGACCAACAUGAGCGACAGCUCGCCUAACAAAAAUCCAUCUACACGGGGGCCUUC'
p747
aS'UGAUGGCUGCGAGGGAUAAGUAAAGCUAUGUUGCACGUCUGGGUUAGGUCUGAUCGGCACAACUCUGCACCACGAUACGUCAGUAAGUUUCAUGAGUUGA'
p748
aS'UUCGCGUAUACAAUAUAACGUGGUUUUUAUUUUGGGAUUAAGCCACUAAUAUUACACUUAGGGCCGACUGAGCCUAUCAUGCUCCGCUUAUUUCUCAGGA'
p749
aS'CGAAAGAGUCAGAUGACAACCAAUGCGCUAGGCUGAAAGCGCUCUCACUCGGUGAACGGAAUGUAAGACAUAUGGAAUCUUACAGAGUUGCCGCUCCCAG'
p750
aS'UCAUCUUGUGGAUAGUUUAAAGCCCGAAGCAUUCAGGGGCCGCUUGUCCGGGUUACGUUAUAUAACCAAAACGAUUUAGUGGGUACACUGAACGCCCUUU'
p751
aS'CCAUCCUCAGGUGAUCGUAUCGAUUAGUGGCCAUAUUCGACUAACAUGCAAUUCCAGCCGACUACCGGUCUUUGGACCUCAGGACAGUAUUCGGCGUAGU'
p752
aS'CCCACUAGUACGCAUUAGGAAGCAAAACGUGACCGUUAUCCGUGAUCCACGCCCCCUGUGGACAAAAAACUUCUGCGGAAGAUUUAAACGCACUGUGACU'
p753
aS'AGUGAGCAGCACCUGCAGCAACUAGUUUAUUGAUUGUAUACAAGAAACCCUGGAUUCGGCCGCAAUAGACUCUGUCAACCAAUCAGAAAGUUACUUACUC'
p754
aS'UGCCGACGCAUCCGGAACUGCUAGAUUAUCGGGUGUCUGUUAGCAAGCCCUGACCAACAGUCAGCUGCCUUAAAGCUCGAGACCUCCACAACCAUGGAGC'
p755
aS'UGACGAGGCUCUUGACACCAGUUCGGAAUGACAUUUUGAUUCGCCCGCCUGGGAAGGGAAGCUAAGUAAGCUUCGGGACCGAACCAGCGGAGGAGCAAAG'
p756
aS'GCUUGUACGACCGUACGGCAGACUUACUCUUGGACUAAAGUGAAAGCAAACGGCGUAAUAUAGGACCGUGUCGGUACCAGUAUUACAAGUCUCACCACAG'
p757
aS'GCGCUUCCGAAAGGCACACCAAGUUGGUUGCCCCACGGCGGGGUAUUACUCUUGCUGCCGUGCUCUCCCUUUCCAGCCCCGAGCGCCUUGGUCUGACCUA'
p758
aS'AAGGCCUGGGGCACACAGAAGGCUAGGUGCGAGUUCGUUGCUUAUCUCGGUGGUUGUGAUCAGGGUUAAUUGGCCUGAUUGUCCCAAUCAUCCCAGCUUG'
p759
aS'CUACAGAGAACUGGGGGUUUGCUCUCGGGUGUGAAACAAGUCUAUCCCGGUUUUGGUCAUUCUGAAUAUAUGAUUGCAUUCUCUGAUUAUCCUCAAGGAA'
p760
aS'AGCGUUAGGGAUUAGUAUCCCCGUCAGCCAUAGCUAUUACGCCUAGCAUCUUUAGCCCCCUUCCAGCAGGGAUCUCAUAAAUUGCACACCCCUCCGUAGG'
p761
aS'GGGUUAAGAUAUGCAGGAAAUCCAUGUAGUUCGGGAUCAUUCAGGGCUACGGUUCCCUAUGCUUCCCCUGUCUUACCAGCGACUUGGGUUUAAGGGGCCG'
p762
aS'GCUCCCAACGACGCAUUUUGGAAGACGAGGCCGAAAGGCCCCCUAACGAGUUAGACCGAUGUAAGCCACGAUGGCGGAGAAUAAUGAGAUUGUGAUAAGA'
p763
aS'UCUAAUUAACGCUUGUGUUCACCACCGAAUUCAUCUGCAACGACGAUUGACUUACCCCGAGAUUCGCAUGAGUCAUGCAAGCUACGAUACUCUCGUCGCC'
p764
aS'UUGAUGAUUCUCAACGUCCGCUGAGCUAUUGUAGUAACUGCUUACGUGCAUGCGCUCAACGUGGGGAGAACAAAGAAAAGUUUCCUGUUGGCAGUACGGG'
p765
aS'AGUCCACCACAUGCUUUCAGGACCUGGGGGCUCCGUAACUCAUAAUGCGUCACCGAUAACAUCAAUACGUAGCCUAGCGAACAUGUGAUGCGCACUAGUG'
p766
aS'UCUUUAUGAAAUCCUCAUACUCCCGCUUUCUCGUGUGCGAGGUUUAUUCAUUCCGACAGAGCCGUCUAAUGAAGGUAUGACCCGGGAGCGCGUAGUGGUU'
p767
aS'CGAUCUAAGGGUCUCUUGCGCAUUAUAUCUUACUCCGGCUGUACCUUGGUGAUUACCCGUUUGCUUUGUCAGAUACAGGCGCUGCUAGUUGGAAAUCUCG'
p768
aS'GCCCACCAGCUUGGCCGCUGCAAAUUUACGAGCACGUUUGAAGCUAAGUUUUGUGACCGUUUUAUUGAGCUAAACCUCACCAGGAUGAUGUCCUCAGGCC'
p769
aS'CUGCUACAGGCACUAGAAAAUGACGUGAAGUUAAAAGGGAAACACUCUAUCACUAGAGAGCUGGGCGAUGCCUAGACUUCUCGGUUUUGCAGCCGGAUCG'
p770
aS'CCAGCAGGCCAGUUGGGGCUGGUAAUUACGUCCUGAUUACGAGUAAAUCGAGUUGCCCUCAUCCGCAAUCUCCAAUGGAUGUCCGCACUGUAAUCCGGAA'
p771
aS'UAUACCGGUAAGCCUGCAAAUGGCGGGUCUCUAUAAGCGUCGGAACAACGGGGAUUGUGCCCCGCCCCGAAGGUGACGAUGACGAAUCAUCAAGCCGAGU'
p772
aS'AACCGGACCAUGACCUUAAGGAAGCUAUGGCUGUGUCUUCCGAACUCACGGCAGCGCUCACUCCGCGCGUAGUGCAUUAUCAGGUAUGUAAUGCACGUAG'
p773
aS'UUCCAAUGCAGUCACUACCGCUCCAGUUAUCCCAGUUAGGACAUAGAAGGCUUUGGGUGAAUACCCAUAAUGUAAUACAGGCCGUGCCGGCCACUCCACG'
p774
aS'UUAAUGAGCUUGCGCAGAGUAAGCUUGCACAUAAAACCGGAAAGGCUUCGUUGUCAGUAGGGACGCUAGUAGUGAAGAACCGAAAUAUUUGGCUUCCCCG'
p775
aS'CAUACCUGGGUCAACCAGAGCAAUUUCACGGUAAUUACCGCAUUCCCGGGAUCGACUAAGCACGCUCAUGGGCAUCACUCUGACAAAAUUACCAUCAAUC'
p776
aS'GGCUCAGAAUACGAUGCUGGUCGGGUCGAGCGACUCCUUGCCCUAUGGCGUCUCACACUUAAACAUGAUAAGGGAUUGCUCUACAAACCGUCGGAAAUCG'
p777
aS'GCAAUAGAAAGGUACAACUGAGCUUGUCAGCACGGGGUCUGACCGAUCCGGAUUAAAUUCUGGUCCGUGUAGGACCGAGAUUGCAAUGUUACUAACCCGC'
p778
aS'CACGACGGGCCAUAUCUUCACGUCGCGAAGCCGGUCCCUGUAGGCCCGGGGAUGGAAGGCCAGCUGCAUUCCGCAGAUGACCAGCAUGAGGUCGCUCACG'
p779
aS'AUUAGUAGAUCCAUAGGGCGGAGCAGAGGCACCAUCUUGGUUGCGUCGAGUUCGCAUUUAACAGCAUCAGCAUGGCGAAGAGGUCGUAGCUGCGAUGUCA'
p780
aS'UGCUGAAUAUACUUCAUAUAAGCCUCCUUCGCAAACAGAAGUUCAUGCGAGGCUACAGUGGCGACUGUUGCAACGAAUAUCGCUCAGUGAGGUUAUUAGG'
p781
aS'AGUAUAAUGGGAGCCUUUCAGUGUCAUCUCGUUGAUAAAUAUGAGCCUAUUCCACGCGUUCUGGUGUCGUGCACUCGUCCGUCCGGAAGCCUUAGAGUCC'
p782
aS'UCUCAUUAAGCUGACCAACCCAAAUACGAGCAGGUAGCUCAUCACACUUGCGGUACAAAAAAAGCAACUCUGUGGGAGCCGGUCUACAUUAUUUGGCAAC'
p783
aS'AUAGUUGGUGUACCCGUGGAGAAGUUAGCACAGUUUAAUAAGCUAUGAAACGAGAUAUGCUGCAGUCGAUGGUCCAUGGCGCCACCUCCCGCCACUAGCA'
p784
aS'ACAGGUGGCAAGAGGUUAUUAUGCAGGAUUUAGAAAUAAAGAGGGGACCUGAGAACAGGGAUUAAAAAUCAUUAGCACCAUGCGUAUUCCGUCGUAGUUG'
p785
aS'UCGACCCAGCGAAUGUGUGGUUCAAUAGUGCACUUAUAGUUAUCUCCCCCUGAGCGCUUGAGGGAGUUAGCCUCUCGCCUAACACUCCCCGCGCUUUUGG'
p786
aS'AAUAAUCCGAAUGGCGGUUAGAUGGGCAUCCCGUGGAGGUCCGGCUUAUUGGUGAUUUUCGAAGUACUCCGGUACCGGGCGCUUUCGGAGCCCGCGUAAC'
p787
aS'AGGCUCACUUGUGCACUCUUCCGAUUGUCUAUAAGGGUCAGGGAGGGGGAGUCAUCCAGACGCACUGUAUUUUGUACCCGACUGCACCAGUGCAGGUGAA'
p788
aS'GUUCCGCGCCCCGUAAUCGGGUGGCUUCACCAGGGAAUGACUCACUUCCAUCUCUGUUUAAUCGGUUCUAGUAACACCAUAUUAGGAUAGGCUCUCGACC'
p789
aS'GAAUUGAGGUUCGAUCAUUUCGUGGGGGCAGUCUAUGCCGCCGAUACUACACUAAUAUCUGUUGAGCAGAAUGAUAUCUAUCCCGACAAAAGAACUUACU'
p790
aS'GAAGUUAAUUAUCGGAACUGCCGCAGCGUCCCUACAUUUAACGGGAGCGUAUAUGAAAGUGCCACGGGUUGAAUAUUGAGACUGUUCAACGUGCACCUAU'
p791
aS'UCGAGGCCUAAUUUGUACCGGCAAACCCGCUAGGGCUGAUAUACCCUGACCACGGUUGCAGAUCUGCUGAAAUAUCCUAGCUACUACGGCGUUGACGCAG'
p792
aS'CGUUACGCAUCGACGGCCGCGGUGUGUUUUUGAGCCGGAGGCUUAUGUUCCUGACGGAUAAAUUUCGAGAUGCCGGCAAUUUGCUGGAAUAGAAACCGUC'
p793
aS'AUCCCACCUACGACAACGCUCAUAGUGCAUUAACCGGGAACUGCCGUACGGUGCGCAGUGCCAAAAAGCAUAAAUCUCUCGCGCUCAGGAGCGCAAGUCC'
p794
aS'AUGGAGACGCACUACACAAGCGCGUGACACGGCUUGGUGGGCACUAGCUUCAGGUUUGGCUAGGGGCCGGCAUGAGUUACACGCGCUCGACACACAGAGC'
p795
aS'GGCGUAGGACCAUCACUUGAACUUUAGGCGAUGUAAGUAACCGCCAACGGUGAUACCGUUACGCCGGUACUUCACUCGCCCACUCUCUGGGCUUGCCACU'
p796
aS'UGCAGGAGGAGUACAAGCACAAAUAACCCUUACUGCCGCACCAAGACAGGCUUCAAAACAGAUGUAAGCUAUUGUGUGCGUCGACAUGGUAAAUUCACAU'
p797
aS'CGAGCCUAGGUAGGCGUGCGCUGGAGGAGGCAGUAUGGUGGCACAGAAUGGGACUCUGCAGAGGGAUCACAGGAUAAGCCUCUGUUUAGGCUCGCAUACA'
p798
aS'AUAUGUUCUGUCUUUGCCGAGCUUCGGUAACACAGUUACUAGUCGACCCCAGGCAAAAAUAGAGACGUCCCAAGAUGCGGCAGGAACGCCACUCACUUAG'
p799
aS'UUCUUAGCGUCUAUUUUAGGAUCUUCAAUGGACCAUCAGGUCGUUCCGAAAUGCGUUCCUUUGGUCGGAUGCACAUGAGACACUGUCUUAUUCUUCAUUC'
p800
aS'UUUGCCAAGGUGUCCAUACAGCAUAGUGCGUGGAAUUGACAGCUACGUCGUUUGGAUGCUACCAGAGGAACGACAGAUUCAGCAACGGCUACGUGGCACG'
p801
aS'CCGCUACAGGGCUGUACUAUAGCGUUGCAGCAAAUUGAGUCGAGCAGCAACGGUGCGGGGGCGACCUCACUCUUUGCAUAAUAAAGGAGGGUUGUCACGG'
p802
aS'CGAUAGAGGGCACGGUAUCGUAGGAAGGGGGACGUAUUUCUGAACCUUCACGCACUUAAAGUAAGGCGAGCGGGAAAGGUGAGUUCGUCAAAAUUAUUCG'
p803
aS'UAAUGCGGGAAUCACGAACAAAGAGGCUAGAUUAUGCUGGGUAACGAAUUGGUCAUGCUUUAUGUCCCGAAACUGAGUUCAAACCCAACCCGGACUUCGC'
p804
aS'AGGGUCGUGCACACUAGUGGCGAUAUCACAGUUUCCACAACCAUCUAUUGGACACAUACGCUCUAUCCUCCUCCCCGCUAAAAUAUGGAACAUUAGGGGG'
p805
aS'UUCAGCAGUCACCAGGCUGUCCACGAAGCGGCAAGCAAGAGUUUUGUGGACUUAGAAAUACUAAUUGCAAAUUUCGGGAACACGUUGCCAAAUCCAAAGC'
p806
aS'AUGCACAUCCAUAAUACCCCAUCUGUGUGACAUGACCUACAUCGAUUCCAUGGAUGGGUCGGCUUCACUGGCCUCAUAGACUUGAUCUUGGUUCCUACUA'
p807
aS'CAUGAGGCGCCAUUACCCUUUAACGUAAGUGCCGACUACCAAUUUGGGGGUGCUGUACAACUCCAGGAGGCAACAUUAUUUAGUGCGUUGCCCCCAUAAG'
p808
aS'GAAAAGUAAGAAAAGGAACGACCUCUCUACCGAGCCGCUUAAGAAAUACGAUAGAACCACCCACCAGGCAAGAGCUCACCCCGAUUCCUACCGAUAAACG'
p809
aS'UCCACAACCUCUCCGUCAGAGCGUCCUGUGUUUGAUCGUACGUCUACCCAUUUCCUGUGUGUUUUUUCCCAAAAUAUGACUAUUAAUUGACGUGGAAGGG'
p810
aS'GGCGCCGAGUCGUCGUUCUACGAGAUACCGCGGCCGCACAUACCUCGUUUAUAGACUGGGCGAUCACAAGUUUGACGGGUCCUGCGUCUGAGUAUUUGGA'
p811
aS'CCAGACGUCAAAAACAGCUUAUCUCAGCGCUCAGAGUCAGAGGACUCAUAAUGUACCUUCGAUCCGGGUAUGCGCUGCGUCAUGUCAUGCUCGGCAAGGG'
p812
aS'UUAAACACGUAAAUGUCUUAGUAGGGGUCACAAGAGCUCUUCAAUUCACCGACUGCACGCGGGGUUAGGUCUUCGGACACGUCAUCUCUCGGAUCUAUUC'
p813
aS'CAACAGCCUCACUCAACGCGUGAAGCGCUUGUCUACUGAGUGUCUGUCACGCGGGCAUCUAUGAUCGCCGACCUAAUUGCAGGUUAUUUCGUGUGAUGAG'
p814
aS'UCUGAAAAACCCUAAUCACUCUUUCCAUGCGCUCCUGAUAUUGCGCCAGCUCUACAUCGCUGCUGUGAAAAUCUCCGUUUCUGGAGCGCGGAGUGGAGCA'
p815
aS'GCUGACAACACUGGAGCAAGGGUCGUCCAUCCUAAAAGAUCCCUGAACGCUGACCCGCCCUCGGGGUGGCAUGCGCAGUAUAAGCCAUCUAACCCUUCUG'
p816
aS'GGGGCACAAACUGCCGCGCACCGACUGCUAUGGCGUUUGGUUCCUUUCCCAGUACUACGGUCCCUAAAGCUUGAAUGUCCGGGAGUGCAUGUUGUGGGUG'
p817
aS'CUGAGAAAGACGGGACGCCUUCACACUCGCGCCUACGUUAUAUCUAAGGCCGCGGAACCAUAGCCAGGGGAAAGAACUUCCCAGGACUUCACGUAAACGG'
p818
aS'AUGUUAAAGGCCCACCCCUCCUUUUUAAUCUGCGCACCAUGAAUCUUAAAAAGAAAGCCCGUCCUAUAACCGUCUCUCCAUAUAACUCGCUUUGGUAUAA'
p819
aS'UUCUCUUGGUAGCGGACUCGGACCGCUUUGAAGUAUCCGCGAUCUCACAAUCAGACGUAUAGGGGUUAAAAAACAAAUACGGUUCAUUCCGAGUCAUGCC'
p820
aS'CUGGACCCCAGCUAGGUGAAUUGCACCGAGGCUCUGAAAAUGGGAACGCUAUGCGCCAAUGGACCGAUCGUGAACAGACCAAGCGGGAAUGCAAGGCUUA'
p821
aS'AGUCUAGGGCAAGUGGACUGAUUGAGGUUUGACCGUGUGCCUGAUCUCGCGCCGUACAAAUCCAGUUGCGCCUUCUUGGUCUCUCUACCCGUGGCGGAUC'
p822
aS'CCACCCGCGAUGGCCGGGAAUCGGCCUCGCAGGCAAACAGUUGCAUCGUUGCCACACACGGAACAUCGAUCAUAGGUCCAUAGUCCAGACUGGGCCUCGG'
p823
aS'CGAGGUUAGCUGUAUGAAAUGCUAGCUCAUGUGGCGGGUUUCUGAUACUCAGAUCCUACGAUUCUUCAAAACCCAUCCCGUACAGGAAAGAUGGAGCCUG'
p824
aS'GUAGUACAAGUAAAAUGGGCUGUUGAAUACAUACGAGAAGGAAAACGUAUCUAGGAAAGGGUUUACCACGGCUCAAGUGGUGUUAUCCCGGGCUGGUUGU'
p825
aS'AGGCGCAUAGGACUUUCCAUCUUUACAGGCGCACACCGUAUCUUCCGGUACGCAGUAGGUAUCCACUUGGCUAUGUCCGGCCGCCUGGGAUUAAGGUUGA'
p826
aS'AUGGCCUUGAUUAAGGAUCGGAUGACCGUUGAUGCUAAAGUCGCCUGGGCCUCCCAGAGUCGUUGUACAUGCGAAAGGUAAGGAUGGCCGCCCUCCUAUA'
p827
aS'UUAGCUGGGUUACUCUUAUAGGGGCUACUACCCAAAACGCUGAGCCCGCAAUUGGUCUUCAAUCGGGCAUGACUCCUAAGGCUGCCCGUGAGAAGCAAGG'
p828
aS'CGGUUGGGUUUUAUCCUAGGACGAACCUUGCUAACAGAUUGAAAGCUUAACUUACGGCAAACCGCGGUCGGCGGCACUCCGAUGAUGAGUGCACGAGCUA'
p829
aS'UUUGUAACCUGUUUAGAGGUUGGAACGGAAUACAUAUCAGCUCGCAUAACUCCUACAGCAACGGAUAUAGUUGGCUCGCACAUGGUUGAAACGACAGUAU'
p830
aS'UUACGAUGGCACCUGACCACGGACAGCUCCGCUGAUCAUGACAGGGAUGCGGGAGUGUAUUUAGUUGUUAGCGCACUACUAAGAGCAGCUCAGCCGAGCG'
p831
aS'UAUCCUACACAGAGAUGAGGGUUGCGUUCGCGUUCCUCGGCGUGGUUGGAGACGGCUUCGACAAUUCAACGGAAGCGUAAAAGAAUUUCGGAUCUGGGGG'
p832
aS'CCCAUUGGGGGGACUUAAAAAUCUGACCCGCGUCAACAUUUAUUGAGGGCAUCGGGAAUUUAUAUCCUAGCGUGAUGGGUUGCUACGGGUGCUUCUCGGG'
p833
aS'ACAAACAAGCUGCAACAUGGGCUGGGAUCCACAUAUAGUAUUGCUGAAAGUUUCCCUACCCAAUGGAAAGACCGGUUCGGCUCGUCUGGACUCUUCGGGA'
p834
aS'UUAGACGCCCAGUUUUGCGGUCAUUUGGUCCGCCUCCGUGUUAGCGAAGAGGUGGCCGUUAAGUUCGAGCACCGAGCUGUCCCUGCAGUUGUCCAUCGUU'
p835
aS'GCUGUCGGAUUAUAGGUCCGUGAAGUAAGGCUCUUAGAACUUGAUUAUUCUAAGCUUCCUGCGAUUGGCUUUGCUUCCGCAGGGCUUUACCAACUGGGCA'
p836
aS'ACGUUGUAAAAAGCUGUCGCCGUCGUAUCCCUGCUCCGUGACACAUAGAUGGGGCUCCUCGGGGCGAGGGGCCAUGGAGAGCUUGAUAUACCUUCGACAC'
p837
aS'CGUUAUUGACGGGCUUUGCUUCGAAUCAGACCGUUUCACCGCAGUAGGCAUGCUAUUUACGCGUAUGCUGGUCCCUAUCUCAGUCCACGUGACCCAACUG'
p838
aS'GCGUCUAGCUGCGCAAGUCGUUAUCGGGUGUCCACGUAUGUAUUAUAAGAGUGGUGGAUGAACCAGGUUAGUAGAAUACAACAAAUGCGAACUGAGUUGG'
p839
aS'AAAGUAUGUGCGGCCGUGCACUUCGCUAUUAAGCAACGUGCAUUAACCUCAUGGACUAAAAGACCGAUCCCGCCUCUCUGCCCACGGUAUAAGAUCCUAC'
p840
aS'GGUCAUACUGUCGUUGGUCAGGGCGUAGAUGUUGAUAUAAGGAUUGGCUUAACAUAAUAGUAGCCUGGACACUCCGGCAUUUCUUUAAAGGGGUAUUUUC'
p841
aS'GCCGGUACGCUUACUCCGUCACCGAGUAAGGUCGCGACCGUCAACCACCUGGGCAAAUGUACAUUUUUUCUUGAAGUACUUCAUCCGAGACCCGGUAGGU'
p842
aS'UGACGUCACGGUUGCUGGUCUUCGAGUUCCCGUGCAAGACAUCGGGCCGUAAUAUCUCGACGAAAGUGUAACGAACUGGGAGGUCCUUCAGCUAGUUCCC'
p843
aS'UGGUCGGAAGAGCCACUGGGUGUAAAGGCAGGGCACAGCUCCGAGUGGGUCGGCGGAGUUCGCCCGUAGUUUCAUCCAAAAACCAUGUAAAUAAGACUGC'
p844
aS'GUGGCUGCAAUCCCGGGCGCGUUAAGGGCCAGACUAAUUUGCGGGGUGAAGUAAUGUUAUCGGAGGUAAGCGGAAUUGAGCCCGAGCCACAGUAGGGCGC'
p845
aS'CCCUCCGGACGGACGACACGUACUGCUUAUAUGAAAUGGGUAUAUUAAUACGUGGUUUGUUGUAUCCGAUCCGACUCCGGGCAACCAAGGCUGGCACACG'
p846
aS'AGGGCAGUCCUGGUCGUUACAUCGCGGCGGGAAAGGCGCCAACGCAGGUUGAACCUGUAAACGGUAGGCCCGAAAUCCUGCCUCAACCUAACAGUUGAAA'
p847
aS'UCGGGUUAUCGAAACUUUCGAAAGGCGGGACGUAGGAAGGGGGUAGACACCGUUACCUCUCUGCUAGGAGACUAUUAAUGCAUCCACUGGAUGCCUGGGA'
p848
aS'ACGGAACUGCCUCUCCACAGACCUUGUUCGGGGUCGCUGACUGAGCACGGUCGAGGCCAUCGUUGGUUCGCAGGAAAUUGCGGACACUGAACACUUUCAC'
p849
aS'ACUACAAAUACUUGUAGGCCCUUCAGGGUCACGACAGGGACUAGAGUGUCAGUCCACGAUCAUCAUGGAUCAUAACGGUUGGAGUGGUAGUCACCAUAGA'
p850
aS'UGAUGACAUCUGCCCGCCGUUCCUGCGAUAUCCCCACCCGCUCUAGGCGACUCAUGAGUGGGCUCGGUCGUCAUCUGUAGGCCAAGGAAAGGGGAGACCC'
p851
aS'GUUCUCGGAUCAAAAACAUGUGCGUCGUGCACCAGUCCUAUUACGAUACUCCGCCAGGUCCCAAGCUCCUUUUACGUGCCCAGAUGAUAAUCAAGUUUGC'
p852
aS'CUAGCCGUGGGACAUAUUCGUGCCCGGGAAUGGGGUACAACAUUAAAGUGUGGGUGAUGCAACCGGCAGGCAAUGACGAAUAUACGGUACGCUACCUAAG'
p853
aS'AGGUCAUCCCAUAAGUUCUGGCCCGCUUCUGGUAAGAACCGUACGACGUUUAUCAGAUGUACCAGGAGAAUAACGAAAGAACGGACUUUCUCAUAAGACU'
p854
aS'ACCUGAUACUGUGGAACUCAACUACACGAUAAACACGGUACCGUGUUUGGGUCGUUGGACUCUUGAAUUCGCAGUAGGCUAGGCCUAGUGUGGUCGAGGC'
p855
aS'UGUUAAUUACUGUCUGUAGCUUCCCCUCCUCGGGAACCCGCUUAAUUACGCGAGACCGGUACUAACGACCUGAGACAAAGGAUCGAGCCAAGCAUAUCUG'
p856
aS'AAUAGCUGCCCGGUAAGUGUCAUUGGCUUUCGCGGCUUCCUCUCCGCCACGACUUUUGAUCCUUGGGCUGUCAAUAAUCACAACGGCGCUUACCGCAACA'
p857
aS'UACUCAUAACGACUUCUGGUGCCGGCUGACAGAGCCAUACCAUGCUACUUGCGAUCGUUACACUCGAGCUGUAUGGUGUGGGGUGUAAGUUCUGAGGCAC'
p858
aS'GAGAUAGACAACAGGCACCUCGGAGCCGAGCCAGUCGCUUGCGUGGCAACAAUCAUACUUCCGAGUAUACGGUGCCAAAAUAGGCGCGUUUACUUCACGU'
p859
aS'CAUUACGGUCAGGUUUCAAGUUGGGACCGUACAUUAAUCAAAGCUCCGCGCGCGGGGCGCCAUUAACCAUGCAGUGCGGUGAUUUCUAGGAACAUUGUGU'
p860
aS'AUAAUUCUGGAACGACGCAUUACCCACGAUAUUGUAAUAUACAGGAGCGCCUGUGAACCAGUAACGUCCGACAGGUCAGGACUCUCAGAGUCCUUAACAA'
p861
aS'AAUGCCUCAGAGAAUCUGAUUCGUAAGUUUGAAUUCACGGACCGCAUCAUCGGAGCAUCCAGCUUUAAAGAUCAUCAGCUUAAACUCCUCGAAUCUAUAU'
p862
aS'GUGAGUAAGCCAACCUCUUCCGUUCCGGCGUAUGCGGAAGCCAGCUCAAUUAUCACAAAAUCUUAUCACUGACAGUUCCCAGGUGAUGUCUCGAAGUAGG'
p863
aS'CACGACCGAUAGCCCUCAUCCAGGUAGAUUUUGGCAUAUUAGGGUGAGCAUAGGUUGCCAGCACAGCGUCUUCGUGCGUCCAAAAGCUCUCGCCUUCCUC'
p864
aS'AUACGUUGUCCUGAUUUGAGGGAGUACUCUCAGAGAAUGAAUGGCCAAGGAAUCACAACCCCACCAGUGACGUCAAGUUCAAGUCUUGUGUAGUAAAACA'
p865
aS'UUGGGCGUCGAACAGGCGUGGGCACCUCACGUCCCCACCCGUUGGGUGGAGAUUAUAGAGACGUGGAUGCGCCCACCAUCAUUUGCCGGGAUCACGCGAA'
p866
aS'CUUACUAGACAAGUUUCUGAUGAUGAAUCUUGGUCUGGAGGCCUUCGUCCAAGCACAUUAACGGCCGCGAAGCCCACUUAACGACGCGCCCAAGCAAAUC'
p867
aS'CUCGUCUUCACAACUCAAAGGUCCCUGCGUCCUUCUACUGGAAACUUUUUUUGCCAGGCUACGGGAUAUCUAUGCCUGGGGUGGAUUUUCCCGAACGACC'
p868
aS'AAUAACGUCGCACGGACUUCGGCCUCAGCGAUGAGGGCAGCCUAUCCGUGGCCGUCCCCGGGUGUAUGACAGUGUGGCACGAACAGUGCUGCGUAUUAGC'
p869
aS'AGUGCUACCCACUCGUUCAAAGAGGACAUUCCCGAAACCAUCGAGCGUAUCAUCCUCCUCCUGGGAUUUUUCAUAGCAUCUAUUUUCUCGGUUAAUGUAU'
p870
aS'UGGCGUGGAUCCCCAGACCGGCCGAAGGUCUUUUGCUCUCCGGUAGGUAAAUUAUCUAUAACCAGACAUGGAUGACAAUGUCUGAUAUUUAGGCCGGACA'
p871
aS'AGUGAACUCCUUCAUAUGUAAUGAAUAUGACUAUCGCUCGACUGUUCUUACUCUUAAUAACUGCUUCGUGGAAUAUCAUUUUGGGGCAGGAAAAUCAUCG'
p872
aS'CCUAGACUAAUACUGCGUAGUUCAUACUCUGGUUUGGGUGCGCUUUCAAAAUUUAUGACAUGCCACCACGAUUCCUGUCGCAUGAGGCGGAACUUUACGG'
p873
aS'AUCCCCUACGAACAAAUAUGGGGGGAGCUUUUUUGACUUUUUAUACAUGGCCCUACGAGCACAUACACGUAUCCCCCUAGGCUUUAGUGCCCUGCAGCCA'
p874
aS'AAACGAUCAGUAGCUUUACGCACUCGCUUACCAAGUUUACGAGGUUUGUUGAGAACUCCUGCUAAAUCGCAGCUGUGAAGAACAACAAGGAGCGCCAAUG'
p875
aS'ACUUUGUUAGUUUGGGCUCUCCAGCUUGUGAUCUCCCCGGGUUACUGUGGUGCCAAUGCCUGCGCAUGUUGGUGCCGACCGGGAACGUGAUGGUUUUUUA'
p876
aS'CCGUAUUACGUGGCCUAACUCCCCCGCAGGAGUACUCUUUUCAGAUUAGAAUCUCAGGUUCUCUAAGAACGGAGUGGGCGCAGUAAGAAGGCGAAGACGG'
p877
aS'CAGCCAGUUACCGAUCUUAAGAUAGCAAUUGAAGCAAUAACCAUUUGAGUCCGACUCUUCAGGAAACGAGGACGUGAUGUAUGACGCCUUGAACCAAUUC'
p878
aS'CCCGUUUUCGGUGUCCAAGUUUUAAGCAGCCCGUGUUGAGCCAAGUAUUCGAGGCAUAAGCCCACUUCUACCAGUCUGGCACUUGAACCGUACCGCCGGC'
p879
aS'CUACGUUACUCGCAUUCUUGAAUUAUGCAUUGUUCUGGAUGCGCGUCUGUACCCGUUAUGAUGGGCGUCGUCAAAGCGGCAUGAAAGAGUGGCAGUACCU'
p880
aS'ACAGUGAUAAAUGGCAGGAGGCUGAUAACAAGAGCAAAGGGAGCUGAGUGCACGCACCGGCUUUCCGUUCAGCAUCGCUAGACCGUACUUUUUGUCGGAG'
p881
aS'UUUGGCACUAUCAGCUGGCCGUGAACGUGAAUGUAUCGCCAGUCGGACGUACGUUUCCCCGUCAUGAGCACGCGCCCCUAUCGAUACACAUCAGACUUUC'
p882
aS'CUAGGUCCUAGCGUGUCAGAACCCGGAUUUGACCGAACCCGGAUGCGACUACCAUAGAAGCCCAAAUCUGCGUGUCAUUAACGGGGGCUAGGCUACCCGC'
p883
aS'AUAGAUUCCAUUCCCAACUCGACCCUGAUACAUAAACAGUGUUAUAAUGCCUCGUUCAGUAGACUAAGUGGACUAUAUUCAAAAUCAAUAUCUUCCUCCU'
p884
aS'UGGACUUACCAGAGUUGGGAGCUCUGCUGGGAUACAGGCGAGUUCAUUAUCAUGGUCGAUUUAAAGUAUUAGGAAUCCCUGAACAGUGACACGAGCCCAU'
p885
aS'UCCAAGCUGGAAUCCCGGCAUCUAAGCUCAAAGUUGAAGAGGCGUUCAUUAUUGCAAUGUAGCCCAGGCGCAACCUGAGGGACGAAUGUGAUGCAUUGCG'
p886
aS'GCAUCGGAAUAGUAAGCACCAUUGCCAUGACACAGUUCCGCUUCGCUCUUUUGACGUCGCUAAAAUUGGCGAAAGUGGUCUGGUAUGCUGAAUUACUCGG'
p887
aS'AAGGUAUGGAAGUAAGUUUUGCUUCCGGGAACUCGGGAAGCAGUUGUCUACACGGAGGCAACAGGACGUAACGUGGCUUUUAAGCAGUAGAGCCUGGCCC'
p888
aS'UAGUUAACGCAGGCUUCUAGGAAUAUAUCGAGCGAGAUAUGGUCUCAAUUGCAGCUCCGGCAUUGAAACGAAAGAGUAGCUCGCGACUCCCUGAGGCAAG'
p889
aS'GCCUGUAACUCUUGCAAGUGACUAGCGGCGGAAUUCGAGCAGCCGUCAUGCGCAGUAAACGUUCGGGUUUGGCGAACCCAGCUUACUAUCCUGUAGAGAA'
p890
aS'GACAUGUCGGUGCUAGGGUCACUUUAGAGCUUGGUGGGAUAUUCCAGACCUUUGGCGAUCUGACUCCGGCCGAUGCUCGUACGGGGCUGCACAUGGUCCC'
p891
aS'AGCGCUAAACGUCAUACAGGUCUUGAGAAUACGGGUACAGUUUUACCCUACGCUGGGAAAGAUAGACCCGUAGCAGUGAUCCUACCGUCUCAUACGACUU'
p892
aS'ACGCUCUACGGGGGCCAGGGGUUUAGUAGAAGAGGUUACUGGGCUUAUCCCUCAACAUGGUACGGUUUUCGCCCACAGACUUCACGGGGACACCACUAAU'
p893
aS'GGAUACUCGAGCGGACGCCUACAUCCUGGUACGGGAACGGCGCGAUGACGGGGUCGUUGCCACGGAUCGCCUGCAACGUAAAGAAGCGACGGGGCCACGG'
p894
aS'CACUACCGGUAGAGGUACUCAGCGUGACAACCCGGAACCCCAGCACACAUUACAGUUAAACAAUUGGCUGGCUGUCUAGGACCUUCGGUACGAUCCUAAA'
p895
aS'UAGGAUAAACCACCCAACUGGAGCCAACGUUAAACAUCCACUCCUUCCGAAACCGUACAGCGACGGGUGCCGACUUGGAGGGUAUGAAUCCAGCUGACUU'
p896
aS'CCGUAAUUCUCUGGUGCUUUAAUAGCGUUGGGCUAACUCCUAGUUCUGGCACCUUGCCGGGGGAUUGCCGCGUUUGUAGAUAUAGUGCAUUUCUUUUACU'
p897
aS'GUCAGUACCGCGCCACUGGCCUUAGGGGGUUACUAGGUCGUUUCAGUUUGGGUAGCUUAGGCUUCUCUCUUUCAUACCUUAGGAACGUCUUGAGACAGCC'
p898
aS'GGAGUGGCUGCCUCCUCCUCCGAGGCAUGGCGGUUUGGUAUUAGGAGCUCCUACGCUAUAUCUUUGCCAGCGAACAGAGAGCAACAGAUGAGAGUCCCGU'
p899
aS'AGACCCAGGCUAAGAAUCUCUCUACACAGUGAAAUAUCUAUGCGGAUAUUACCCUGUUCCCCAAUAUUACGACGCGCCAGAUGUGCACAUAAUACAUGUA'
p900
aS'UCUAAAUCGUCAGCCCCAAAAAAGACUUGAUACCGUUCAGGUGAUGAUCUUCGUGAACUCUUAGUUAGAGCCUUCAUAUACCGCUGCGCAGUCCUGAGAC'
p901
aS'GAGUUGGUUGUCGACCCAAACGAGUCGACGUGAAUAACCGACCAUGCUCCGUCAUACCAGCAUAGGACAGUCCCAUCUUCCUGCUCAGGAUCGAGGCGGU'
p902
aS'GGAUAUAUGAUCGCAGUCAAUGUGCUGGAGUCACUAGCGUGGGUAAUACUGGUGCUGACGUGGAGUAGAGAGCGGGCUCGUGGCAUCGCCGGCUAUUCGU'
p903
aS'ACAUCUGGCUUGUAGGCGUUCGCCGGGCUUGUAGCUCAACCUGACUCUAUAUAUUAAUGAGGGUCUCCCGACGUCCCUCUUUAUUGAACAGUAAACUGCA'
p904
aS'CGAUUAAUGGGUUUCAGACCGACUACGCGGCUUGCUGAGCCACGCAUAGUCGAGACAUCCGUCGGAUUUCGGAACGACAAUGCGCACUUCAUCAUUGAGG'
p905
aS'CCUAGCCUCAGAAUUUGGCGCUUGCUAUACUAAGUGGCCGAGCAUCGUAGAUACUAAACCCUUCUCUAUGCGAGACGGUGUAGAACAGCCAAUGGAGUGG'
p906
aS'CCGAUGGCUCGGUGAGUUUAAGGUGCCCACUCCCAUUUCGAGCCGUCUCCGCCAGAUCGGAAUAAACCUAAACCCCUCACUGGCGGAAUCUCGGUGUGUC'
p907
aS'CGUAGGACCUAGGGAUUAUCCAUCGCUAUCUCCCGCAUGUUCGCCUCGCAAUGGAGUGAGAUUAAAAUAGGACGCAUGUAAGCACUACCGGCGGUCAUAU'
p908
aS'CGAGCUUCAGACGCGACUUUCGCAAAUUUCCGGUAGUCGCUUGCACCCUUAGCAAUUGCUCGGGCUGGAACGUCCUGAACACCGGAAAGCAAGUGAUAAU'
p909
aS'UUGGGUCUGCUUCAAGAGUCAAUGUCAGAAACCUUUGUCCCUCUCUCCUCGAAGAACUCGCCUAGAGUUUGCGCCGAGAGCACAUGUUUGAGCGUUCUCA'
p910
aS'GAUGCUGCUCGCUGAAUCGACGGCGGUAUCCCCCUCCCUCAGGCAUCGUGCGGCCGUACGGAUAGCCGCUUUCGACUGGAGUAGGGAGACCACCCCGAUA'
p911
aS'CAGGGAAUGCCGAGACCCUGUCUAUGCUAGCCCAUGCGCGUACUGCCUGUUAGCCGGCGUGUACCAAACGCCUCCGCCUAUAUGCAAUGUAUUCUACCUA'
p912
aS'GCCAACGCGUUGUGGUGUAACAAUAGCUAUUGACUGGUCAGAGGAUGAUCAAAGCAUAUCAUCUUCGACCAACAAUUUAGUCACCAGGUUUAAUUCUCUU'
p913
aS'UACAUUCCUAAGUCGCCUGCUUAAUGGGAUAUACUUUGACAUCCCUACACGGCCGGAAAAAGAUUACUGUCGGUGAGGUAGUAGUCCGGGGGCCGUCGAU'
p914
aS'UACAAACUGUGCACUUUGUACGUCUUAUACUGGGAAGUGUGGUGUUGGCGCCUCCAACCGCGUCCGUAUGAAACAAUGCGGACGCGAUUCGCGCUAUGUU'
p915
aS'UCAGUCUUCCGGGAUGUGCCUCCUAAACGCGCAGACUGAUACCACGCAUUGCGUUGACAGUAGGAUAAGAUCACGUGAGUGGGUCAACUCCAUGGAUACU'
p916
aS'AAUACUUGCGAACUGUGUCGUUAUUGCCGGACAGGCUGCGUAGUAGAGCUCAAAGGGGCAUCGCCGCAUCCGUGCGGUUCCAAAUAUAACGAUAGCAACA'
p917
aS'UUGAGGCCGGUCCUUGGAAAGCCUCCCGUCUCGGGGUCCACGGCAGAUUCGACAUUGAUAUGCCAUUGGCCGUUCUUAAAAUUAGUCAAUCUCGUUACAG'
p918
aS'GAACCCACAAAGCUUGGGUCUGAGCUAUCACACGAAGGGGGCCGGGAUGCCUAUGAGCCAGCACAUCACGAUGGUCCCACAAAUGCGAAGUCGCGACCAU'
p919
aS'GAAGGUAGCUAUAUGACGCAAAGAUCUCUAUUCUCCCAGCAUGGAGAGCUAACCCACUUGAAGGUCAACGUGAUAUAUGGGUUGCCCGCCAUUCAGCGCU'
p920
aS'GGGAUCCAGGUGCUACUGACAAGUGACUAGUAGGUCAUCGUCACAGUAAGAACCUCGACUCUAAUAUCUGCAAAUAGUGGCGUCCUCCCGGAACGAGUCC'
p921
aS'ACGAGGGAACUGCGAGGAGGGAUCGGUCCUUAGUACUCUGGGCAGAGAGAGGUCUGCGCCCAGACGUCCCCUGCGGGGUUCCCGGAACUCCAUGUCCGAA'
p922
aS'GUCGAAAUCUCACUCAGAACUAACAUAGGAACUAAAGGAUCAGAUUGUGCGAGGUAUAAAAUGAGAUCACACAUAGGUAUUAAGACUGUAUUCGCCAUAG'
p923
aS'CCCCCCAACGUAGUGGCGUAUAGGUUGAAACGUUAUCGCGCUCGGGCCCUGACACGUACAUACUAUCUGACGUGUCGCGAUAAGCAGCAUCCCCAGCAAC'
p924
aS'CCCAUGUUACUAACCUGUGCGCGUUGGCGACUCAGCUCAUCCAAGUCCCGCCAGUAGCCCGUGCCAUCCCGGCGAUGAUCGGUGUUACCGCGCUCAGUGC'
p925
aS'CGAAUUGAUUACAUGCCUACCGCAUAAAGAUCGCGCGUAGCACUCUGAUGAUAAUACCGUACAUGACUAACGAAUUUAGACCGCUUCGGAGAUGUAAGGA'
p926
aS'CGCGGUGAUUACGACUUGACACGAUUGUCGUGAUCCAGUAAGCCGCCCCGCAUAGGGCUUAGGACUGAACGAGACCAUGCCAUCUCAAACUGUACUUAUU'
p927
aS'AAGCGUCACACCCCUUACAGUCUCUAAACUGUGAGUCUACCAUUCGAUGCGGUACUCAGUUCUUCGCCCGGCAGAAGCGCAUCAUUUUUUUGGUGUUUCC'
p928
aS'ACCAUAUGAGCGUUCUCCGGCGACUGGUACUUCUUUUCACAGUCCGGCCUCACAGAGAAUCGCACGCGUUCUUAGAUGUCAUACGUUAACGAGCAUCAAG'
p929
aS'UGCGCCAGCAUACUACCUUGGGUCAGCUUUCGACCACGUGUCUCUAAGUGUAUCUCCUACGGGUAAUCAGGGACCAGAUUCUGGAAGUUGAUUCUACCGU'
p930
aS'AUCGCAGAUAGGUCUGUAGGAGGGAUUAUUGUCAGGACCGCAUAUACGCCGGUCGAGCUCGUCUUAUAAGCGCGGGGUCAUUGCUGUCCUAAUAUGAGAG'
p931
aS'AAAGCUGAUAGUCUGCGUAGAAUAGCAAGCUCGACCACUCGUCUGCCGCGUUCAAGGAUAGAGAAUGUAUGUUUAGGACUAUUGCAGCGCUGACGAAACG'
p932
aS'GCUGGCCGUCUACUAAAUAUGCGAUUGCGACUGCUUUGUUACUCUUUAUAAGGCAAUACGGAAAUGCUAGCCGGUCCUAGGCUAUCAAACAAGUGGUGAC'
p933
aS'AUAGGAGUAAUUAUCUAACGGGCCUCAUGCUCCUCUUAGUUCUACUUUGCAAUAAAUUGCUUGAUUGCGGUCGGUCGUAUUAGGGUUCUAUCUUUUCGGC'
p934
aS'CUCGCCCUGAGGUGUUGCCCUACUGACUUCAUUCGCUAUACGAAGUAGUCCCUUCGAGCAGUUGACAUCCGGACCUGCUGCGGCACUCAUAGUGUGUGCU'
p935
aS'CGCUGUUAGAAUUACGUUCAACGACCUACGGCCUAGAUUCUUGUGUUUGUGGGAACACUCUCCGUUCGAACAAGUUCGUUCUGAGCCGUCCAACUGUUGA'
p936
aS'GUUAUGAACAUCACGGGAGCGUGCUAGGAGCCGCCUUUCAAGAAUCGCCGGAAUCGUAGCAGGUGAUAGCGGCAGCUUGUCUAAGGCAUCCCUCCCAUUG'
p937
aS'UAUUGAGUAUAGUGGAAGUGGCAGGGUGUUACCCUCUGAGCGUUGGCCUGGUGAAGCAACGAUCGUAUCAUGGGAUUGAGUUGCGGGUCCAAUCCGGGAU'
p938
aS'GCUAUUGAUCCAUGGAGAACUGUAUCGACUAUACGAUCAUAGUCUUUAUGUACCUGACGCCUUACCUCCUGAGGCGACAUAUGAGCAUGGUGCAUUAUCG'
p939
aS'CAGCGUAUUAUUCGAGGUGUAGCCUUCCUGUAGAUACUGUAGGAAGGGGUACAAAUUGGAAAUCUGCUCCGGCUACCACUGCAAAACAUAGUGGUGUCUC'
p940
aS'CAUUGAUGACUCUAUACUCCUAGCGGACAGAUACGGAGUUUUUUGCAGCAGGCGACCCAUCCCUAUAAUUUAGCUUUAGCAUGGCUAGAUCAACGCUUGC'
p941
aS'AAUAAGAUUCACUGGUCAGGUAGCUGCACCAAUCUAUAACCGAGGCGCCAAUAGUACGAACUCGAAGACGUGGUAACAUCCCUAAGCAAGCUUGCCGUAG'
p942
aS'UUGUAAGCGGAGUUGCCUGGUGUGCAUUCCCGCGUACCGUAUAAACAAUAUGAGCUCACGAUCGGGUGCCAUGGCCUGAUCAGCAUCAUACUUGUUGCAG'
p943
aS'UCGAGUACUAUGGUUUGCAGUGUCCUAUAUGCGUGACAUGCCUUAGUCCGUAUGCCUUCUAAUUAAGCACAGCUGGUUAUAACGACUUAAGCUCACUCGU'
p944
aS'GCCUCCACCGCCUUUAUUUAUUCCGGCUACAAGAGCCGCCCAGCUUAGUCUUGGAUGCCGAUUAUCUGUACAUGGCUCGUCCCGAUUCGCUGAGCCCGUU'
p945
aS'AGCGGGUGCCCUGUGUUUGUAAAAUCUUCACAGAAUCUGUGGACAAACUACCUGGCCUCAGCCUCGUGAGAUGGUGGACGGACUGUAGUCUUACCAUUAG'
p946
aS'GGGCAUCACCGCCUCGGAACCGAGGUGGAUAGAGGAUUACUCGUGUAUCCCUACAAUCUAUCAGUGGUUGCUGGCAGUCAAUAAACGAUUUAUGAGCGCC'
p947
aS'GGCGAUAUGACCCCAGCGCCAAUUACACCGGGGUUAUAGCGGCACGUCGAGCAUCUGACGGGAAUCUGCCCUACCGCAAAUCCGGUACAGUUCAAGAGCU'
p948
aS'CUUCGUCCGCACCGAACGGGCCACAUAUUUGUGUACGCAGUGGCAGAAUGACCGUGAGCGACGGAUAUGGCGAGCACGUUACGACUAAGUGACGCUAGAU'
p949
aS'UUCUAGCCCCGGAAUAUGAAUGCCCCGCGGAAAACGUAGCGCCUUUGUCCAAGUUACGCUAGAUUGAGCCAAAAUGACGACUAGUCCCUAGAGUCGGACG'
p950
aS'AAUCCCAAUUCACAAGAGGAUGCGGUAACACGCAAAAUGCACAAAAGCUCACACAGCAGAGUCGGAAUGGGGUCGGCAGCAUGGCUGCGAGACGAUUCCA'
p951
aS'GAGUACGAUGGAGACGAGUUGCGAGUUGGUCUGGACAAACUAUCUCAGUUAGUAUUUUGCACCUACAAACGCACCGUACCAAUCAGGUUCAUGUACACUC'
p952
aS'UCCUCGUACGCCUAUACGUGGGGGAGCGUUCCUUGUAGGACGGGGCUCGAAAUGACUUUAGACCGAGUUCGCGCUUGAGAGGCCUCGCCACAAAUGAGCU'
p953
aS'UUUGACAGAAGCGUGUCAGAGGAGAAAACGCAUUAAUUAGGUAUAAUAUUCGUCGAGAUGAGAGCCUUCCUAUCAGGCGCCAGUCCGCAGUGGUCCGUCG'
p954
aS'CAACCUAGGUUGUCAAGCUCUUCUUGAAUAUGUCGGGAUUCCGGAGUAUAAAUGGCAGUCCCUAUGAGAGAAAUGGCCCUUCCGAGUCCUGGUGCGUGUU'
p955
aS'GCUUUUCAAAGCUAUCACAGGGGAUGCACGGUCAAGGGCUCGCUGAAGCGAUGACAGAUGAAACUGUCCCUUGCGUCUGAUCCGCGUUGGCAGGCCAUUA'
p956
aS'AUCAACGGGGGCCCGUGUAGACGUGCGAGGAAAAAUCUAGAACCGGCCGGGUUGGAGUUUACAGACCCAUCGAUGACAGCUGAUUCCCGUUCCCUUCUGA'
p957
aS'CUAGCGCCUCUCUAGAAUGUGCGUGCAGUUCUUUUGCCGCUGGGCUUACUAAUGGUGGUACAAAGGAACGAAAGAGAGCGUACCAUGUGUUUUUACAUCG'
p958
aS'ACGUUUGACGUCCACGAAUCCAUGUUGAACGCCCAUGUGGAGCCGAAUCCGAGUACCUGCGACAAGGAGUCUUUAGUGCAUGAAUGCAGGGUGACCGCAU'
p959
aS'AUGAAGGGUAUGUACACAAGGGUCAGACUUGUAGAGCACAGCGUGAACCGAGCUAUCAGUCCGCACACAGGCGGAUAGAUUUCGGAUUGACCCACCUUCA'
p960
aS'UGCGGGCAAUAAUACGCGUGGUGGUAGAGCGGUGCAGGACUAACAUUUGAUAGGAUGGUAACCUUUCCGUCAUACGAAUCUUUUGUAACAUGUAUUGGAC'
p961
aS'GAAGAAUUGGGAAUUGGGGCCGCACGCUGUGCACAACAGUCUAUGAAGAUCCCAGAGAAUCCGAGUGUAGUGGCGACUUUCCCCACCGCUGGUUAUCCUA'
p962
aS'GAGCCUUUGGUAAAACUCGGCCAUCCGCGCGACUAGAAGUUAUAUAAAUGUGGAAAACCCUUUGGUAAAGAAUACGUCACCCCCAGUCCUAGCUUCAGCU'
p963
aS'UCAAAUCAGAGGGGUAAAUUGCUUCGAACAGCCCGUGUGGGAUUGACUAAUAGAAGGGGCAAUAGCGUAGGAAGCGAGUAAUGUUAUGUGACACCAACUC'
p964
aS'CCACGUCCGACGUCCGUUGUUGAAAAAGGUAUGAAUACCAGCGCUGCAGUGCUAGUCUGCAUCUGAGAUCCCUGCCGGUGCCACCAGAUUGCGGUUUUUG'
p965
aS'UAGAGGUCCUCUGUGAAGAAGUCCGGAUUAUCCAAGCGGAAACCAUGACUUGGCCAAACGUGCGUAGUGGCAAUGAUCCCUUCCAAUCUACUCCGUUUAA'
p966
aS'GACCUGCGUAGGCGUUUCAAGCAUAGGAAUAUCGCUUCCAGGGGUUCGCAAAAUCGAAGAUUUCUCCGGUCGUACCCCACAUCGACUGCGCGGUUAAUCA'
p967
aS'GAAUUUAUAGGUAGAUGCAUUCACUAGGGAGGCUUGAAGGGGUCACAUGGUCGUAUUUGACGUAGUAAAUGGGAUAGUAAAAGCUCCUUGCUGUCAAAUC'
p968
aS'UAAUACUUUUAAGAGGCGCGAAGAAAUAGAGAGUUAUUUUCACGUGCAUCUUGGGAGUAUAACGUGCGGUCCCGAGUCUUGUGAGAGGCCCGCAGACCGC'
p969
aS'AUGGUCAUUGCUCCGGGCAAACCCUUCUUCCCGUGUAAGGUGAGCGACUCUCCAGGUGAUCCGCUUCCCUCAUUGACGGCAUUGGAGUGUUCAAGUACUU'
p970
aS'GACGGGGAGGGCCGUAUCCGGUAAAGAAUCGCUUCACUGCAGCCCUUACCCUUGAUUAUUGCGUUAACCACGAAGGACGAUACCGACGAAUGGUCAUCGG'
p971
aS'GCUACUAGAUGACCGGAUCAUGUUGGCGCGCGACUUCCGUCGCAACUUUGCCGGAGCGGUCGUCAUGAGAGCCCGACGGUUGGUAUAGACUUGCAUUAAA'
p972
aS'UCGUCCACAAAUCGUGCAGCAUACAGUCAAGGGACCAAAGUACUGGCCUUGCACCGACACGUCGGAUUCCACUCCUCUGUGACUUGACCCCACGCACAAC'
p973
aS'CCUAGCAUCCAUGUAGAGGCUGCUACAAAAUUGUCUGACGAUUUGAUUGCUGACUUUUACUUCAGCGACGAGGCCGGAUAAGCAUUUCGUCCCAAUUUAG'
p974
aS'GGCAUCGAAGACAGGUCAGACACCGUCAAGAGUACCAAGCCAACUUCAACAUCGAAUAUCAGGCAUCCGGAAGCGAGUGGAGGCUAGAUUCCACGGACGG'
p975
aS'GCUUGCUGAGUGGCCUAGGCACUAGCAUUAUCCCUGAGGCAGCAGCAAUUCUGAUGGCUUAGCAGUAUAAAAAGUCACUUGGCACUGUUAACUAGGAAGA'
p976
aS'CCCUGGUUGAUAUAUCGAUGGGGCCGGCGCUACGGUGUCAACCUAAACGGGGCUAUAUCCCGUCAGGGACCUGACGGGCUCCCUCGUCCCGCAUUCACUU'
p977
aS'UGUGAUAUAUGCAGCGCUAGUCCUUUGCUUAAAGACAAUAAAUUUAAGGUGCCGUACCCGAUGACUUAUACUGGGCGGGAUCUCUCACUGGGUAUCGUUC'
p978
aS'GGUCUACAGGGCCAUCUCAGGACUCCCACUUCCGAGAAUGCUAGCGUGUCCGGCAGAUGCACUACCCGCGACUUGUUCAGACGCUAUCAGGCGAGGGCUU'
p979
aS'AGACUACGUGGCUCCGUACCGCCCAGCAGCUAAUAUACACACGUUGAGAUGUCGAGAAUGUCGAAUACGUGUACCAUAUACUCGUCACGUAGUGGGUCCU'
p980
aS'AGGUUGAUGGCCUUUAUACGGUAAUGCUAAACCUGAUCAGCAGGGGCACCCCUUACACGUACUUAUUCGCGGAUUGACCCACGGUUCGUGAUGUUUGGCG'
p981
aS'CCAUUCACUCCUCACCGCGAGACGUUCAGAGCUACCUCGCCGUUCAGUUCGGCGCUGUAUAGAUAGCGCAGUAACUCACCUCACGUCCCCUCGCCGGCGG'
p982
aS'UCCUAUUCAUUACUUCGAUGCACGAGUUUAAGCUAGAUCCUCCGCGGUAAUGUGGCCUACUAAUCUAUGGUCAUCUUUUCCGGACCUUCAAAGUGAACCG'
p983
aS'CCCUGAAAUUAGCGAAUGGAAUCUCUUGAGAUAAGGAUGAUUUUGUGCUCAGACUUCCAAUGAGGGCAAUGCAUAAGCCUGGGCAUAGCAAGAGUCGCUU'
p984
aS'GUCACCGUCCAUAUGCGGCUAGAUGCCCUGCUUCUCCGACGUGCAGCAUAUGUCGGCUUCCCUCCCGGUGAACACGUACAGAUUGAAGGCUUGGCACAUG'
p985
aS'UAGCCAGUACAGCCCCUUUCGCCCAUCCAUGGGGAAUGUGCAAUAUAUUAGUUCAAAAUGAAGACGCCGAAUCUGAUGAACAAACUUAUUGUAAGCUUGA'
p986
aS'UCCGGGUUUGGCUGCUCGGUCCUUAACCCUGGGGUGGUAUCACUUGGACUAUCCAUACAUAUGCUUGUUGGAACACAUAUAUACAGGACCUCAGAGUAAU'
p987
aS'AGAGAGAGACUUUUGCAACUAUAACUUACGGGUCAUGUUAUCGAAUAAAUGGUAAGCGGAUUGGCCAGCGGUUCCGCGCCCAUUAUAGGGAUCCUAACGA'
p988
aS'GUCGUGUUCAUUCGGCGGAUGAAACGCGUAGCCUCUCAAUUGAUGGCAACCUGAGCGAUGAGGGAUGCCUGGAUUAAUAGUAAGCGCCGUGUUUAAACCU'
p989
aS'AAUAUAAGGGAUGGCAAGUUUACAUGGCACACUCACAACUGUCCUCUUUUUAAUGCGGUCUUUUACUAGCGCACUCAGGGUAGGGCGAAUCAUUCGGUUC'
p990
aS'UCGGUGAGUUCCCUCCUCACAUUUUAGGUCUACACAGCGUCGAAGACGCCAGUAUCGUGAGUGCCAAAUACUACAGGCUCUAAUGCGGCCAUCCGCUCUA'
p991
aS'UAUACAGUUAUCGCCGCAGCUCAUGGAGGCUAAGUGGCCCUCCUUUCCUUGCCUAGGAUAUCCUAGCCUAUUUUCAGACCCGUCUGGUCAGACCCCUGAU'
p992
aS'UACUCGUUGUCCUAAGAUCAACGGUACUUAUCGAACCGCGGUUUUCCAACUACAGAGCUAGUCGCCGAGACGCCCUGUUAACAUCCCUCGUACACAAAGC'
p993
aS'CUGAGUACAUUGAACGGCGACGUAUCCGCGGUAACUGCUACGGUUCUGCUUCUAUCUAUCGGGUCUCGUUUGCGCAACCCUUAGUACACCUUCUCUUGCA'
p994
aS'UCUGAAAUCAUCAGAGCAUAACUAGUGUACUGGAGUUGUGGCUAUAUGCCGUGUAUCUAGGUAAGUCAAUAACUGCAGAGAUGAACAGACCUCUUCCGAG'
p995
aS'UAGGGGUCCCAAAACGAAUACAAGCAAGGGUAUGGGGGUGCCUUAGGAGCGUCUCCUCCGCUUACAGUCCACUUUCCGCUCACCUUAAAUAUUCCAUGAU'
p996
aS'CGGUCGCACUCCGAGUAUGAGUACAUGUGUCACUUACGCCUUCCAAAAGUCGAGGACAUGUAGUAAGUUAGUUUAAUAACCCCUACGUAGCAGUACAAAA'
p997
aS'CAUUAAGGAGGAUGGUCUCUCUCAUCCCGCCGGGCCUGUACCGGAUGCGCGACGAGCUGCGGUACGUCUUGUCUCAUGAUCAGAUUGCACCUCAUCUGCG'
p998
aS'CCAAGUCUAGUCCACAUCUGAGUGCUACAAAAAAACAGUUCCGAGGUAGCUAGAAACCCCGAUAUGACAUUGAGGCGUAAUUAGUAGACUUUCCUGCAAG'
p999
aS'CAUAGGCCCGACACGAAUAGUCAGACUUUGCCCGGACCAUCUACUCCAUGAGCUUCCGGACCCCAGGCCGGGCGCCACAUAAAUAACCGUUUUGGCCAUC'
p1000
a.