(lp0
S'UAGACUAUAAAGUACCGGGAUCUAUUGAAUGUUGGUACCCCUUUCGAGUGAUUGCGCCCCAGUCCGUGAACUAGGAUGCAUAUUUACCUAUUCAGAGGAU'
p1
aS'CGGGCAAUCUGGUGCAUCGUAACCUAAGCACUCACUUCAGCAGAAAAUCCUAUCUAACAACCUAUAGGGACCGUAUAUCAAGGCUCCGGUCAUGGAUGUA'
p2
aS'GCGUUGGAGGAGAAGAAAAUCCGCCGACUGGGUAUUGCUCCUUCUCCGAAAUCACAGGCCUAAUGUCGAUCGACUGUUAACUAGUGACUUUGUUGCGGGG'
p3
aS'UGUUUAUCUCUUCGAGGGCCACUCGUUAAGCAACUGCACUUGGGUCCCGCGGGACGGGAGAACGCUACUUAGUUUCCAACAACCUACGGUCUUCCACCUG'
p4
aS'ACUUAAUGCGUGGGUUAUGCAAAGAUGUGGAUCGUUAAAGAGAGUCUUUCGAUGGCACAUGAUCCGGUUUGUAGCCUUCAACGAUUACUCUGCGUAAGCA'
p5
aS'GGCGCCUGCUUUGACCAACAAUCAAGACAUAGAAAGUCUGAACACCCGUCACGCAGAAUCGGCCUUGUGUGAUUGAUAGGACGCUCAAUUACCAAAAUCA'
p6
aS'GGAGCAUCAUACUGCUAGGUAACAUGGGUCGUCCACAGUGAGGCUAGAAAUCAAUGCGCGUGUACUACCCAUUGAUACUAAGGGAUAGCCAAUGACGCUG'
p7
aS'UCGAGUCCGGACUCCGGUUGUCGCGCACUAGCAGGGGAUUUAACCUAUUCAGCUAUGCGUCCGAGAGUUGUGGCUAGUCCCUGGACGGCUGUAUAGGAUG'
p8
aS'CUAUGGAAAUUUCUCUGUCGGAGUCGUUAAGUACCACUGUUGUAAUCACUGCCGAAGGAUAGCUUAGAUACGAAUCUUGUAGCAUGCUUCGGUACUGUUA'
p9
aS'CAUUUUUAGCCGCGCCAUAGGCAGUCUAAUAGCUGAGGCUGGACGUUUGCCCUCCGCAUGCGACCGGGGUGUUUCGUUCCGUCCUCGACGAACACAAAAU'
p10
aS'CGUGUGCUUGCUCUCUGGUGUUUGUGUCGUGCAAGGAAUUCCUAUUGACAUGUAUUCCUUCGUUAUAAAGAGUCAUCAGCCGAUUUUGAAAGGUUGUCCG'
p11
aS'CUCGCUUAACACUCGCUCCAGUACACCAGUUCCUACUCGGAAUGGGGGUGGGCCUCCAGAAAAUAGCAGCGUAGAUAUGGAAAAUGAUGGUAUUUUCUUC'
p12
aS'UUUUCCGCCCCUUAAGUAUCGUUACUCAAUCCCUAAACAACGUGGUGUAGCGGUCCCAUUUCAAUCGACAGGUGUUGCCGCAUGUAUCUGUGCUGAUCGC'
p13
aS'UGUACCUAUCACGGCUUGGAACUGAAUAUUGUUGCUUUCAAUUUAUAGAAGGAUACGUUUAUGCGGCCGUUCAUCGGGCUAUAUUGAUGAAAUAGGCCAU'
p14
aS'GAGCGACUUGCAGACAGACGGUGCAGCAAGAUUGACUGGGCGUAAACCUCAGGGUGGGCCUCCAGUUGCAUGCUCGAACGUAAGAACACAAAUCCAUUAG'
p15
aS'UGAGAGACCUAAGUCUGACUCGCUCAUUUCAAGAGGGUGUUGGCGGACUCUUAUUACCCUUGUUACUACAUGUAUGAUAAUGUCGGUAGACGGGGAUGUU'
p16
aS'AAGCGGUGUCAGUGACGACGAGCUUGAGCGUGUCCGACUCAAGACCCGAAGGAGUCAUAAGACGCGAACGCUACGAAUCCUCCAGGGGUUCUGUCAUAGU'
p17
aS'UGAUGGUCCAUGCCUUGGCCCAGCCCCCUCCUGUUUGGCGUGCUUAGCUGUCAAUGAUCUUCCGUAGACCCCGAAUUCCACUCUUACUGAACUUCUACAC'
p18
aS'AACGAUAGGAUGCGAUUCGUACGACCUUCGACCACAUUGGAGAUCUUCCCAAGUCGAAUCUUGGACGCCUCCCAUAUGCGACAACGUUCAUGCUGGAGUU'
p19
aS'GUGUGGAUUGUUGUCUAGGCUUAGGUACGUGCUCGAGUAGAAUGUCAAACGCCACAUAGAGGCUGGUUGAUCCCAUAGGGGCCGCCCCAGAUCCUUCGUU'
p20
aS'GUGGCCUCUGGAAAAGUACAGGGGCAAAGUAUCUUCCUGUUCCUCGAUGUUCACGCCGUAGCUGGUUGAAAUAGACUGAGGUCACCGCGGAGGAGACCAC'
p21
aS'UGAUUGCAGAUACUAACCUUUGAACAAGAACCCUAACAGGGUAGGAUCCACAGAGACGGCGAACCUUUGCAUUAUUAGUUCAUCCCCGCCAGUGCUGGCG'
p22
aS'AACCGAAUGCGUCUGGGUGACCUUAAGGUGACACUACAGCGUCUUCAGCGCGAGGUUUCGAAGAAAUAGGCCUCGUGUGAAAAGAUCUCAACAUAAGGUA'
p23
aS'AGGAGGUAGAAACCGUCCAGACUGCUGGUCUAGUCUUCGGCCCCCUUACGUGUGACCGCUACUACCAGUACCCCAGUAUUCGCUGUAGCCCUCUUAAUGA'
p24
aS'CGAUGGCGACUGACAACAUCGGUCCGACACUUAUAGGGUUUGGGGAGUAGCAGUUCGGCUGAUCUUGGAUAGCACCGACUCUCGUUUCGUAUCCCCUCUG'
p25
aS'AUUAGUCCUACGGCUGCGGGCUCAUCAAGGUACCCACAAUAGACUUGGUGAUAAGGCUGUAGGUUCCAGCCCGUCCCCCCGUGAAGGUUUAUAUUGGAUC'
p26
aS'UGCGCAGCAACGUCAACUAAGAUUUUACAGGUAGGAAAGCUGUCCAUGGUGAUACCAAUAUAUUCUGCUACUGCCAAGGAUACGUAUCGUGCCUUGUUAA'
p27
aS'AGUAAAAGUAAUGAUGUCUUCAGUGAAUUCAGAACAAGCCUCAACGAGUUCAGACUGUGCGGCCGGUCCGGUACCCGAGCGUUCUUCAAAGGCGUGGGUC'
p28
aS'AGCCGGGCGUAGUAGGGGAGUUAAGUAGCCGAAGAGCUGAACGAUCAAGCUGGAAUCUCUAUGUCUAGCAAUAUCUCACUGCUUUUGACCCUUGACCGCC'
p29
aS'UGAGCAUUAGCACUCUCGGGGAUUCAUGUCCCGGUUAAAACGAUCUGUAAGCGGAGCCGUUCUUCGAACUCAUCCAACGUGUAAUGAGGACGUUCGCCGA'
p30
aS'AUCGACACGAUGCGAAAUUCAUCCAGAGGUGGCGCUUCUGUCCUUCUACGAUCACGAGGCGUGCAGUUCUAUCGAGUCUUAUAUUGACAAGGAGGUAUGU'
p31
aS'GGGCUGUACGGGGUACCUAGCUGCGUAUCUGGUGUUCGAGGUUUUUACUGAGCACAAUCCAACCACACACGACCAGCCAUGGGAUCUCCAUCCGUUACAA'
p32
aS'ACACAGACAACUCGAGAGGGAUGUUCACGGGCACGUUUCUUAGCCCGCCAGAACAACUCAUAAGCCUAAACCUGGUCGGAUUGACGCGGCGUGCCGAGUG'
p33
aS'UAAUUAACCCGAACGUAACCAACCAGUUGAAUUUGCACGCCUACCCAUUACGGUGACAAAACUAGUGUCUCUAUACCCCAAGAGUAUGGGGGGAUCCGUU'
p34
aS'CUUCGAGAACAUGCCUCUGGGUCACGCCGGACUGGGAUACGGUAGUAUAGUCCCGGCUCUAAUACGCUUGUCCUCAUUUUCCGAACCUCUAGCGCCGUAC'
p35
aS'AGCAUAACCCAACGCCGUCAAGCCUUUGCCAAAUUCAAUGUGCCUGCUUUUCCGUUCUUAGUUAAAGGGCGGAGGUUCGUAUUACCGACCUACCCCUGCU'
p36
aS'UUCUGAGGCCUAUACGAAUUCUCUAUCUUUUUUUUACAGUUGAAUUCUUCUAAUCAGCAUACGGUUUCUGAGCCCAUUCUUAUUGAGGAAGAAGGAAGCA'
p37
aS'GCACGAACAAGUUAGGGUGCCACUAAAAGUAAUGGAGUCAGAAGCGCAUCCUGAUGACAAAGCCACGCAUUACAGACCAGGAAGAAUCGAUGGUACCAGU'
p38
aS'CGUCUGUCUCCGCCAAUGCAGGUGGAGCCAAUCCAUGGAGUGGAAAUACAAACUUCGACGGCACGCGGAACUGUUUCCAUACCACUCCUUGUUCGAGACU'
p39
aS'CCACGGCCUACGAAAAGGGGAAGUGGCCCCAAAGUCCUCCGGGAUCAGGCCGAACAGUGGGAGGUAAACCUAACUUGCAGCAGAAGCAGGAGCGAGCAAC'
p40
aS'UUGUGUGAACGAUCCAAACUCAGAAACCGCAAGCCGAAAUUACUCCUAGUACCGCCUCGGUGCGUAGAAUUCCACUGCGAGUGAUUCGGUCAUUUCCCCA'
p41
aS'UCAUUUUAUGCUCGUUGAAGCGUUCGUCACCGCUAAACAGGCGCGGGUGUUUGAGAUGCGUCAGGCCUGUAAAAGUAGUUAGUUCCGGCCUUCCACGGAC'
p42
aS'CUCUUGAUGAGAAGGAUGUUACAGAAAGUACAGGGCUGUCGCCACUUCAAAUAGUACGAGCAAAAAAUCGGACGUCGGGGAACCCUUUGUCACCGCGUCG'
p43
aS'GUGUAUGUAUUUAUGUUUACGUUGAGUGCCUUGACUUGGCUUUAUUAAGGGUUUAAUCCAUGUUCGGUGACUGGUAGCUAUCGGGGCUCGCUCCCAAGAA'
p44
aS'AGACAUCGGUCUUCGGAGAUUUGAUGAACAUAAGCAAUGUCGCCUCGGAGAAAAUCACCUCUUUAGUCAAGGUGCACCCCCCCGAGACUAGGUCCACUCA'
p45
aS'UGACAUCGAACGAAUACAAUGCUAGCGGUUGUGACAACUGGAUACGCCUUGCCCAUGACCAUCGUACCGGGGCCCAGGAAAAAUACCGAUAACUAUACCG'
p46
aS'GCCAUUCUCAUGUAACGCGGUCUGGGCUGAUUUACACACAAGCGGUGCGCAAAUGAGACUUCUUCAGUAAUUUGAGCGUGUGUACUUCAUCUCGGCUUGU'
p47
aS'ACGGGUUGGGUACAGGAGUAGGUCAUCGGACUCAUUCAAGUUGUAAUUCGCAAUUCCUCCUUGUCGGGCCGUGCGCACCACGAACCAAUUGAUUUCUCAC'
p48
aS'CCGGUCUAGAAUGUCCCGGUGCAGCUAGGUACUAUAUAGUGUCGUGAAGAUCUAGAAAAGUUAUCGUCCUGACGUCUAUAAUGCGCGCGGUAGUCACUUC'
p49
aS'GCACCUUCUCAGAUUCUGCCUUGAAUCGAAGCCCGUGGAAACACGCCGCUCGCGUGUCGGCUUACGGAGUGUAUUGGCACGAGCUCGAAAGCCCUAGGAC'
p50
aS'UGGCUCCCAGGUGGCGAGAUCUCUGCACAGGUAGCGGAUCUGGCGAAAGCCCAUGUAAUAGCAUGGUCCACCCCUUAAUAUAUCGCUAUUCACCGUGGUG'
p51
aS'GAAUCGUGUUUUGUCACGAACUGGGCCGAUCAGUCAACAACGCACAUCGCGGGUAUAAGCCCUGGUUUGUGUAACAACGUUAGUACAUGCAGGCAAGUUC'
p52
aS'GUGGCGUUCAGAUUGCUGCAACGACGUUCAUAGUGGAAAAAAUCCCUAAUCACCGUGAAUCCCUCUACCGCUUAGCAUCGUCCGGGUUCUAUUAGGGAAC'
p53
aS'CGGUAAGAAGUUAAAGGUCAAGUAGAGCGAUUGGGAAACUCGUACCGGAUCCUACAGGCUCCCCGACAGGAGCUGAUAGCGUCAAAAUUGAUUCAACUAC'
p54
aS'GGGAUCGAACUCCUCUGCCAAGCGGCAGUUCCUGCCGAUAGGUGUGCAGCGAUUAUACCCAGUCCGUUCCGUAGAGAUUGGUCCAGUUGACUGGCACAUG'
p55
aS'UUGUUAAGUCCCAGCUUUUUAUGCCACCACCCGGGCCACUCAGAUCCAUUUUCCUCGGGCUAAUCCAUUGCAUCCCUUAAUCAUGCGAUGGAAGUAUCGU'
p56
aS'GUUCUCACUUAUCUUACUGAUAGACCCUAUAAUAGACCGGCAUGACUGGGACCGUAUGUGAUUGCCCUAGGCUCUUGAAUCCUAUCAGAUUUGCCUGAGU'
p57
aS'UUAAGUCGGCCUAGCGCCGUCUUGCGCGUCUCUUCAAUGCUAUUCAACUGGCCCCGCACUAUAUAGGUAGAUCCUGGUAUACUAUACUGAAGAAUAACAA'
p58
aS'ACCCUGGUCGCGUCGACGGGGCUAAGGAUUGAUUAGGUGGGUCCCCGUUCGGCGCGUCGAAUAUAUGCGUGCCUGAGCUGAUCGUGAGUCGGCACCCCCU'
p59
aS'CGUUAUACACCGCCCUUGGCAAUGAUAAGACCCUGGAUUUGAACAUCAAUAUGGCAAGGCGGAUUUACGAUCCCAUGGCGCAUGGUCCUGAUGUACAAAU'
p60
aS'AAAUAAAAAUUAGGGCGUAGGGUUAGCCGACUUGAAGCCUAAAGCUGAUCACCACCUUAACUGUUUAUCAGGAACCGACCAACGGCGGAGUUGGAGAGCG'
p61
aS'UCCACUUUCACCCCCUACAACUCAAUCACAGUUUUCCAUUGAUUAUACAAUGUUGCUACGUGCCCUGGAGUUGAGUUUUCUAUAUCUACACCUCGUCUCG'
p62
aS'UCAAUUAUCUGCAGGGAGGGUUACUCAGGCAGUGAUAACUGCGCCCUUUAGGUCGGCUUAUGGUCAAUGCGUUAUGGUAAAUCACUGUCGGUACUUAAAC'
p63
aS'UAUUGUUACGUUUUGAGGCGUGCGGCGGACGGUCGCAUAGGAACUUUGAUAUGGAUGAUGAAACCUUCAAGCCCCUCGAAACGGAAUAGGGGGGAGGUUC'
p64
aS'CGUUAAGGACCUACCCGUAGCUUACUGUUCGCUGAAUUAAUAGAGUCCUCUGUUCGCUGGACGACAGGACUCUUGAACGGGUAGGCAAGACGAUCUGGCG'
p65
aS'CUUACUUCCGGUGUCUUCAAAACCCUAUAAUGCAUGGACGUAGGCGAGGCGGCCGUUAAGAUUCGUUAGGAUAGGAGUACCAGUAUUAGUACUUAAUGUU'
p66
aS'CCUGCUAGUCUGCUUACCUGCAACGUCUCAAUCCGUGGCAUACAACUUAGUCGAUUGUAGGGUCCCUCCGCCGUAGUCUCCCCGUCCUCCCGGUGCUAAG'
p67
aS'CUGAUGGAUUCUGAUGCAGACGAAGAGAGUAGCCCUGAAAUCUCGGUCGGCAUGGUCGGUGUUAAUGGCUAGAUUUGCUCCCUCCGACCGUGGUAUCCUU'
p68
aS'CUCCGGUGACGUAACUAUUCUCCGGGCUUGGUUAGCUACUUAAUUCGUGCUCGGUUGUGGCAACAUUGCCCCUUAACUGUCCCUGACUUCGCACUCGAUU'
p69
aS'AUCACAACUGAGAACGACCCUGAAACCUCUAUCCCAAAGACUACAAGCAUGUCUAACCGGACUUAUACGAAACAUACUCAAGAUGGCACCUCUCCGCGUG'
p70
aS'ACGAGACAUUAAGCGGGUCCUCGUGUCAUCGAGGUGCCCGCGAAAUGGGUCGGUCUGUAGUGGCCUCAGCGACCCCGCAGUGUCUCACAGUAGGCUCGGA'
p71
aS'AACAAACAGGCUUCGCAUGCUUGAACUCUUUGGCAACAAUAUUCAAAAGGCUACUUGGUACAAAAGGCUUUCGAAGUUUUCUCGGUAGCAACUUGAGCCC'
p72
aS'UAAUGCCGCUGCGCAGGCCCGGGCCAGCUAAUUCGUUAUUAUAACUGGACCCGGCGUCAAAACGGUGGCCACUCAAUGAGUACAGGAUCGACCGGGGGUG'
p73
aS'GUGACACGGGCACGAGCAAUGACGUUCACACUUCACAGUCGACAGUUACGCACAGGCGUAUUAGGUAACAUACCACGAGCGUAUUAUGGCUAGGACACUG'
p74
aS'UAAGGUUCGUCCAGAAGAGUUGAGUGAUGCAAUCAUGCGUAAGAGAGCUGUGAACCACUAGACUGCGUGCUGAGCGUAGAGCAGCCAAGUUGUUGUUUCU'
p75
aS'GAGUUUACUAAUCUUUUUGAGGAUCAUAGCCCAAAAAACGUGCCAAGACAGGUUUCCGCCACAGAAAUUGACACCCGUAGUCCUCUGGUUCUGAGGCCUG'
p76
aS'CUGCGCGAACUCAAGGAUGUAAGUGGUCCGUUUAAGAAACCGCGAGGAUGUUUGUACUGCCGGGCGAGGGUCACCGAAAGAAGAAUCGUACCUUAGGGCU'
p77
aS'GCCCGCAUCACAUAGCCGAGAACCUCUAUGGUACCAUCGCCAAUCCGCCUGCCAUCAGUCCCGAUCUGGGGUAAAGCUUUUCGGUGGUUUAGCUCCUCGG'
p78
aS'GGCCGUAGACAAAUUCAAAAUGUUCUGAGCGCGAAGUGUCCAAGCUUAGACUAUUUAGCAAGAUCGGCCCACCCUCGGCGGUUACGGGGUUUAUACGUUC'
p79
aS'UGAGGGCUCGGAUUGAGUUACACCCCUGUAGCCAUUUCUCAGGGAGGUCAAAAAGCUUCUGACGCCAACAGACUAGUCAGAUAAACAAAACAUAUGGUGA'
p80
aS'UUUGGCUACCAUCCCGCCACACGUACAAAAAGCUAUGAAACCCACAUGAAGCGACUAUUGGUAGUUCCCCCACAUUUCGCCGUAGUUUGCAACUAGUGAG'
p81
aS'CGAGCCCUACUACCACCCCCCGAGCGUCUCCCGCCGAAGGACUAGAUUACCAACUGUCAAGGGGUACCCAUAUCAAGUAUCUAAAGGACCGUCGCGAUCG'
p82
aS'ACUCACGGCUCUUUCAGAUCCACACAAACUGCCUGUCCAGCUAAGGUCCUAAUAGACUAUCGACAAGCAACUGCCUGUAUCGGAGGAUACUCUGAAAAAU'
p83
aS'GCCUCUGCGUUGCCUUCUUGGGUGCUUCUGAUUAUCGACGCUUUCAAAUAUGGACGUCAUACCCGGUCUACUGAGUAGCUUUGCAGGUGGGAGACUCAGC'
p84
aS'GACCCGCCUGUUGGAGGGACCCCUGGUAGCGUAGGAGGAGCGAUGCGGGGGGCAGCCGGGUCGCAUCUGAUCAACAGCGCCCACAGUGCUUGGUGCCCAC'
p85
aS'GAGUUCAAAUGAUAUGGUCGAGGUCUUGAGUGACUGUCUGAACAUACCUGAAGAUCCCCAUUGUCGAGCUUUCUAUGCCAACCUGUAAGUGCACCGGGAG'
p86
aS'CACUGAUCUAUCCAGUGAUAGUGAUCUUACUGUACGGAUGUAGGAGCUGCCCGGAAUUGUAUUGAGGGAACACGGGUUUGGGCGAUUGGGGAAGUGUGCG'
p87
aS'CCUUUAAAGGCAUGUUCGCUCAAUAGGCCUAUUGAUCUUCAGAAUCCAGCCUAAUUUCCUAAGGCUGAGCUGCCAAUGACUUAGCUUCAUUCACUCUAGG'
p88
aS'CGAUGCUGGCAUUAAGCGAGCCAGUGUGGGCUUAGUCCUCUGGCCACGGGGAUGACUAAGAGUACACUGUCUAUGGGUCUGCGAAACGUUGUGUAAGUGA'
p89
aS'AUCAGGACUCUAAGCUACCGACUUCACAUACCGGAUCAAAGUAAAUGUACUCCCACUGAGUUGCGGCUUUUCUCCAAGAUCAGUCGAUCGUUCUGGGGCA'
p90
aS'ACACGAAUUACCCAACUUAUGAUGGAUAAGCGGGCAUGUUAACCGCAAAUGCGGCUACUAUAGAGGUCAAAUGGCCUGUCCUAAAAAACCCUCCUGUGAC'
p91
aS'CCUUAAGUGGCCGCUGCUUGCGCUGGUGCGCUCAUAUAAAAUGCGGAACAAUCUUUUAGAGAGUCAAAUUACUGGAAUUUAUAAUCCCCGGUUGUGCGCC'
p92
aS'CAGGUUAGAUGUUGGUAGGGCGGUUAUACAAGACGCGAGUAUGGAAUCUUAAAGCUAUGAAGGAGGAGAUACGAUUAAUGAAAUAUUUAGUUUAGACCUU'
p93
aS'GUGUAGCUUCUCGCAGGGGCUGUGCACAGGACAUCUUGAGGACGAAAACAGAGUGCAGGUAAAAUUAUCGUCGGGGUCUCAUAUAAGGAAGUUAACUACU'
p94
aS'AUCAGUUAUUGGGUUGGAACUGGGCAAGAAAGAACAUGUUUCUAGUCGACGAUCCUGCGUAAUUUCACCUAACAAAUAAUGCGUGAGAGAGAACGCCCCU'
p95
aS'AUCUUGGAGGCGGUAAUACGGGGCAAAAUUUAGUCGCAGCUGAGUGGAGUGACCAAUACGUCCCAAUCUACUUAAACCUGCUAAUAUUGGGCACCGUUGU'
p96
aS'AUUAGCCCCCCCCCAUCAGCGUGGUAGCACUCGCACGGAGCCGCGAGCACCGUUCACUGAAAUUGUACUAGACAGAACUGUCAGGCGCCCCUAUACCUUC'
p97
aS'GGAGCAGGAACUGCUCGAUCAAUAGUCGCCUGCCUGCUAAAGAAGUAUAUCUCCCUGACCAUAACAAGGGCUCACUUAAACCAUGUCGGGUGCACUGGUA'
p98
aS'AGUUUCAGCGCUGCCAAGCCAAAGAUAUGUGACUUGAAAUAACCUCCAUUGUUUAUUAUGAUCCUAAGUGUCGCGUUCCUUGGUUCGAAACAGGUCUACU'
p99
aS'GUUUUACGAAGCCCCAUGCAUCUCGAAGAUUUGCAUCGGACCCGAUGUGUGACAAAGUGUGAGCUACCACUGCUUGUUAGUAGAAGCUUGGAGAUAAGAU'
p100
aS'AUCUAGGCCAGCCACCCUUCUGUAUCGAACAUGAAUAUGAGUCGUAUCUCCUGUCUAUGUACCAAUCUAAACGGUCACUUAGCUACGACCGGAUCAUAUA'
p101
aS'CACUGUAGUAGAGGCAGUGAGAGGUGCAGACGAGGUGAUGUACGAAAACAACCGUCAAUUCUUAAUAAGUGGAACACUACUACGGGCCAACACCUGGGCU'
p102
aS'GCCCCGGCCAGGAGUGUUAGCCCCGCAUUAGAGUGUGAGUCUGUAUGGAAACGGGAAUGCAGUACACAUCCGAUCGUCGUGAGUUGUUUUUUCUGAUUAA'
p103
aS'UUCGUUCUUAGCUCGUAUCUUCCUUAAACUGCGACUCGGUCUUAUAGGUGUUGAUGGGUUUACCCAGGUCGCACCAUAUAACUCAGAUGUGGUAAUAUCU'
p104
aS'GAACCCAGGUAGAGUCUCCCUGGCAUAUUGUGUUGCCCUGUAUGACAGGAAUAGGUCAGUAUUUCUGCGUUGCGCUUGUGAUAAAAGUUCAGCGUGGAGA'
p105
aS'UCGUACUCAUACCGGAUCAUAUGAAGGGAAUCGACCAAAACGAUCCCAUGUCUACUUGGAACGGAUACGCAGUAGGCGGCGGUGCUCUCAUCCCAUCGAU'
p106
aS'GGCGAAUAGGGCCGCGGCAGUCUUCAUAACACGGAAUCGCGACAGCGCCUCGUUGCCCGCAUCACGUGGCAUAUUCAAAACUAGCGAAGUUGUACCAGGU'
p107
aS'AAUCGCUGCCAGGAGACGGACUUUCCGUAGGACGCCUCUGGAGGUCGCAUCGUAUGGCCAUCAGCUCGACAAGUCAAUUUAAGCAACGCAACGGUCCCAA'
p108
aS'GCAAGGGUAUGGAGAGAGGUAUUGCAAUCUGAUGUAGGUAUUUAUAGCAUAUAUUUGCGCGCGGAGCCUGAUAGCUCCGCUAUCAGGUUCCUAGGUUAUA'
p109
aS'CGGCGAAACCUAUGUACUUGGGCACCCCAGAGUUUGGCGAAAACCCUAUCAGGAGCGCAGGGACAGCAUUGCCAACAUGCAGAGAGAGAGUACAAUCCCC'
p110
aS'GUGCCGUGGGCAUAGCAGAUCACAGAGUUAUAGUCUGGGUAGCGGUACCAUAUGUGCCGAUCCCCGCUUGUGAAACUGUUGACACUCUCCCCCGUACUUA'
p111
aS'UCGUCUAAACAUCUUAUCAGGAAGAUCAACGGGACUAGGUCAGUCGUGUAGAAGAUGCAGCCGGAGAGGGGGCGUCGAGCCCAGUGCCUACCAAAAAGGA'
p112
aS'UAGCGGACGAGUAUUCCGUGAAUGAAUUCACGUUCAAGUAAUGGACUUUCUUAACCCAGAGGCAUGGAGGCGAAACACUUAGGUACGCUAUGCUGUAAAG'
p113
aS'AGUAACACUCUUUUUGGGCUUCGCACCGUUACCUUUGUAUGCUUGCUCUAUAUUGAUCGACUAUUUAGCACAAAUCACGUAGAAGUUUUUCCAUCGGCAG'
p114
aS'AGAGUAAUCUGAAUAUGUGUUAAAUACUAAAGCUUCAUCGACGAUAGCCAGUGCUACUAUCUACCCAUACUGACGCAUACCGUUCUUGUUGGGUGCGAGA'
p115
aS'AGGGUAACAACUUCAUAAAUUCAGCAAGGCAACACCCACGGAGCCAAUGACGGAGGUUCCCCUUGUAUGUGUAGAUGGUUUGCUAGUCGUUCAAGAUAUG'
p116
aS'UGAUCGAAGGGACGACGAGUAGCAGUUUCCUGACAAUGAGAGUCACGCCGGCUGGCCAGGCGAAGUUGCUCCCAACGAUCCCCAUGCGGCCUCUUCUGGU'
p117
aS'CGGAUUGCGGGCACUAAAGCUUUAGUGGCGCUAUAAGCCCCGGGUCCCUACACAAAUAUCGCAAUGAGUCGGUUCGGGCGCGGGAACACUACGUAGAAGG'
p118
aS'UAAGGCCGACGUGAGAAAAAUCCUGAAAAUUCCCAACCAACAUCGUCGACUAGCAGGGGUGGGAUCCUCAGCUAACCAUAAAGCCCUAGACUCUCGGGAU'
p119
aS'GCCCCAGCAAAGGGCGAUAAAGAGGAUCACUUGCAAGGUCGUCUAGUUAGUAUGUGUACAAAGUCUUCGUCCAGGAGAGUUCAUCACUGCAGUCUCUUAC'
p120
aS'AGGCACUUAGUAUAGCUGCGUGGUGAAGGAGUGGCGGAAUCCAAGGAUCACUUCGAGAAUAUGAGACUGCGGUGUAAAGCAGUGUCUACAGGAGAGAGCC'
p121
aS'AGCGGUAUGCUUGACUCAAAUGCUAUGGUACGGAUCGAUAUAAUCCUACUCUAAACUUCCAGACUCUCUUCAGCUUAUAGCACUAAGACUGUCUAAGGAA'
p122
aS'ACGUAACAUUAGACUGAUAAACGGGACAGAUUUGUCUUCCUAGAGCCAGUGGAAUAGCGCCUGUGCCAAUGAGCGGUUACGAGGAUACCCCUGUUACAUA'
p123
aS'AAUCAUUAAGUUUCGUACUGUCAUUGGAUGAAGUUAGCACCGUGUGGGCUCCCCUCAGGAUAAUCAGGAAGAUAUAAAUUAUAGUGCGCCGCGUUGUCUC'
p124
aS'GCUCCAGGACGUUACCGAUUUUGAUAUGAAUAGAAGGUUUUUGGACGUACACUGAAUGCCCACCGCUGUGGCGACAGAGGUAAUUCAGCGGCAGUUAAGA'
p125
aS'CUUAGUCCCGAGCACAAAUAUGUGUAUUAGCCCUUUGCAAAGUAGUAGAGACAGCACUCGAACGAUAUGGGGGUAAGUCAAAACGAGUGUCAACAGCCAG'
p126
aS'ACUAAAUUCCUAAAUAUGGGCAGGCCCGCAACUUAAGAGCUGGGAUUCUGAAUUCGGCAUUAGGUUCUGCCUGUUCUGGCACAGUCUAGAUGAUCCGCGA'
p127
aS'GUCAACAGCCGAGUGCGCAGGGUUACCAUAGGCAACAGAGAAGGUGCAUCUGAUUCGUCGCAUUCAAAUUAAGGGGUAACGACAGAUAAGUCUGGCCAAU'
p128
aS'GGCAGUGCCUUUUAGACCCAGCCCAUGACCUGGAAAUCUUGAUGCUAUCGCAGUGAUUCAAGGACCCCCGAUCUUUUCAUGCCGUCUCGCAGGCCAUGCG'
p129
aS'AGGCAUCGAACGUCCUGCCGUCGUGGACCAUCGAAGGACGCUUUACCUUGGAUUGGCUACGGCUAGAAUACAGAGGAGUAACUUCCUCCCCCACUCUCAG'
p130
aS'CUCCAACGUGAACCGAUGGCGUUGAUCACCCUAAGGGUUCCUACACCUCCCGAGCUAAAACUCGUUUCCCCUGUCCGUUGCGACCAUCCGCACCACCGCG'
p131
aS'CACCACGCGGACUAUAUCUAAGCCGUAUCCCGGAUGACUUCAAAUGAUUGUAUUUGUGGUUAGGAGGCAGAGUUUAAUAUGGGUCGAUAACGUGGGCAUA'
p132
aS'AGUCACGGCUUAUAUGGGGGACCGCAGAGAUUAAGCGCAUUAUUUUUUUGACAUGGCCUUUUGACGCACCGCUUAUCUUAACUAGGGGGGCCAUGAUUCG'
p133
aS'ACCAGAAUCCUGGGUAUAAGUUAACAGUGAAAUAGAGCUUACUCUAAAUAGGUAGGCUAAAUGCUGGAAACAUCGCGAUGCGUAGGGACUAUGCGUAUCG'
p134
aS'UACACCCGUAGUGACUCCUUGGUCUCGAUUGCGAUGUCUACCACGAAGACGGUUCUUCCGUUAUAAAAGUAAAGCUUAGACACCCCGAUAAUCCUCCGUA'
p135
aS'UCAUCGCUUUAGCCCGCGAUCUACCCGCAUCCCAUCUUAGAACGGUGGGAAGAGUAGACGGUACGCAGCGCGAUGGAUGUCUAGUCUUACGACCGUCAGA'
p136
aS'ACUCACACAGGCCCAUUCGCUUUCAGAGCCUUUGGGGUCAGAGAUUGGAGAAGUUAUCAACAUUGUCAGGUUACCCCUGCUGAAAAUGUGUACGUGAUCG'
p137
aS'AUAAAUUAGACUACGUUUACUCAACAACUGGAAAGUUAUAAUGGCAGCCCUUGUGAUGCCAAAUCAGUCACCCAAUGCAUAUUUAGUCGACAUCUAACUC'
p138
aS'GGCAUACAUCGUGCGCAGACCUUGCGAUCGGGAUUAUUCUUAGACUAAACCGAUACGAUCCCGCGUGCAAGUACGGCGUGAAUCGCCUCUAUCUUAGAUG'
p139
aS'GAUAUCAGAGUCGGCAUAGGUCGAGUUGACGUAUUCCCAAGGGUGAUCAGGUCCGGGCAACUCGAAGUGAUAUUUGUUCUACCGUGUGCGAUUAUGGUAC'
p140
aS'GCAAUAUUGCGGCGUUUGUACAUACGAUGCGGCCUAAUCGGCAAUGUAAACGCGUCGUAUUGUAACGCUGGGACAUCUAAGAUGAUACUUACUAACCUUG'
p141
aS'GUUGUUUAGGCGUUGGCGGUUUACAUGAUUUCUCGGUCCAGACUUCGCCCAAGUCUCUGUUGUCGACAUGGAGUCCUUCGGACGGGUAUGUACCUGAUAC'
p142
aS'UCUGUCAUUGACCAGGUUUCGGUAGCACACACAGAAUGCCAUUAAUCGCACCCGCCGUCUCUUGGGUAAACCUCCCAUUGUGUUCCUGUGCGCUCCGAUU'
p143
aS'GCUUAGACGGAUCGAUCGCUUGAGGCCGGGCUGAUAAAGCGUAGCAGAUUACGAGUCAGAGGCAAGGAUACUCCGAACAGGAUUUCAUGGCUAACUCAAU'
p144
aS'CUAAUACCUGUCUCCGUCUGCCUUGAUUGAGGACCGCACCAGCCGUUUCUAGCCGGCACAAUUUGGCCCAUCAUAACCGGAUUUCCCAGGCUUUAUCGCA'
p145
aS'CGCUUAACUCUGACGUGUCAGAACGUCUCGUGGAUGCAUCCUUGACACAGGAAAGUGGGGUGACAGCUACACUCAACAAACCGGGGAGCACUAACGUAAU'
p146
aS'CAAAGCUGUGACCUCGGUACACAAAUAAUUGGCUCGAUAUGGGUCUUGUGCGUGACCACGUAUCCAAAGCUUGGGUGCUGCCUAGUGUUCAAGAGCCCGG'
p147
aS'AGCCAGAGCACUUGAUAGUGUUGAAGCCGGUACCGCAAACAACCAGGAUAUAUAGCGAGCUCCUCUUCUAUGCUCCGAUUGGACGCGGGGUCGGCACUGA'
p148
aS'GCGUGACCGUGUAGCACGCUCCUAUGAAGAUUGUCUGCCUACUAAAGUUGAAGCCUCUGUCAAACUCUGGGUAGUGUGUUAGGAGUGAAGUUUGAUGCUC'
p149
aS'GGCACGUUCAGGGUCUAGAAAAUCCUGAUGGCUUGGAUACGGGGAUCAUUAUGCUCCGGCUAAGUCCUGGAUGAUAUUCGAAACGACAUACCAGAUUCUG'
p150
aS'CCCGCCUUUGUCCAUGAACCCAUGAUUGAAUAUCCAGCUUAUAUUCAAUCUACCUAGACGCAGAGUCAGCCUUCACCGACUUACGCAGAUGAACGAUCCC'
p151
aS'GUAAUAUCAGGUUAGAGCCUGAGUUUACUUCACCCAUCAUCUCAGAUUGGUUCCACCGCAUACACUGGCGUUAGGGUAUCAAGUUACUAGGUGUGCAAUC'
p152
aS'UCUCCGAUGUACGGACACGCAAGUUGAUCUUUUUAACUAUAAUAUACAGAUGCGGUUGGAUCUAAUAGCGUCAAAAAACACGAAUGCCUAUGUGGCUCCG'
p153
aS'AGUGUUGGCGCCUGUACCGGCAUCUACGUAUGCCAUGAGUCGCCUUUAACCAUCUAAUGCUCCCAAGUAGAACUACCACAACGCAUUUGUAACGUCCUCA'
p154
aS'UCCGGUUGGAGCAGAGAAUAAGUGCAAGAUAUACGAAGGGCCUAGAUACCAUACGGGCUAUAUCUAUAAUCCUGUGACAACAGCUCUGGUUCCGUCGAAU'
p155
aS'AGUCGCUCAUUCUCUUCAUCCUUGCUGUCUGCUUUACCGUGCCACAACAGCGUACAACUACUGUAAGCAAGCCGCGCGAGAUUUUAUCCAGCCUCGCUCU'
p156
aS'AAUGGUCGAUGAUUAAUCAACGUUCACGAUCGAAUCAGACACUCCGACGAGGACGGCGAGUACUGGACAGGAAGUAAAGGUGCAGCAGACUGACAAAAUC'
p157
aS'AAUUCCGCCUUCCCAAAAUAGCUGGACGUAGGUUGGUCAAUAGGCUAUAAGCGGGGUCAACUCGUCCCUUACCUCGCGAACAAACACCCUGGUAAAUGAA'
p158
aS'GGGGCGGUGGACCUAAGGUCAACUCUGGAUUAGAAAAGGGUACUUUAUAUACAAAUAGUAACACUCGGGCGCAUAAAUGGGACCUGGACGGGUUUACACU'
p159
aS'GUGACGCAGGAGGUGUUUAUUCGAGCGAUGACCCAGAAACCUAAAAUAAUUACGAUUGUAGAAACGAUGCUAAUAGUAUUCCAGCUGCGACUUCAAACGA'
p160
aS'AGGUUCCACCUCAAACGAUCAAUAGAAGUUGAACUACCGUACGUGAUGAUCCUCGGAUAAAUUCAAAGGGGAUAGAACGACUCGCGGUUGAGCGCAUCGG'
p161
aS'GCCUUUAUCUGACAAGCCGCGCUCUGUACCAGGAAGUCACGGGAGGGGCCAGUGUAGUGUAUGUUACUGGGUGUGGGGGGCUUCUUUUUUGCACUACUAA'
p162
aS'AUGUUACACGACCCGCAUUCAAUAUCUCUCGUUUAUAUUUAUCUUAUCUUAGCGUCUUCCUCCCAAACACCUCGGCGUGACUUUUACUGAGAUACCCCUU'
p163
aS'CAAUAGAGCUCUGGGCUCCAUCACCGCUGCUACAACUUACCAGAUCUUACUCCAAUCAGGCUUCGCAUAGGUCGCGGGUAGCAGGUCAGGGUGAUCAAGU'
p164
aS'ACGCUAUGGCCUAGCGCAACGCGCUGGUGUUUCUUAGGCACAUGGUAGCACCUAAGCUAGAACACAGGGCUUGGGAUGCUAACCAAGAAAUUUUGCGUGC'
p165
aS'GUACUAAUGGAAGUUUUUAUAGCCUGUCGCCACCAGUAUAGGUCUGAGAUAACAAUUUUGAGUUCCCAGAACAAGGCCCGAGUGAGGUCUGUGACUGUGA'
p166
aS'GAGAUAUCAUCUUCUAUUUCCACGACAUAUAUUACCGGAUAACUCCUCAAUCCUGUCAACGCUAAAGUCCCUGGCGGUGAUUGCGCACUGAGAGCUGAUC'
p167
aS'GGAGUCGCGUUGUACCACGCGACAUAUUUAUCGAGCACCCCAUGGGAGGUACACGGGAACGCUGAUAGACAUUACACCCUAGUUAAUCCCGAUAGCACAA'
p168
aS'GCCCAGGGGUGCAUAUCGAGUCCACGGGUUUUUACGAGGGUUGUUUCCCGCGUAGCACGAGUCCGCACAAACUAGUUUCUCUACGAGGAUUUACUAAUAG'
p169
aS'CUGUCAAACCUCGGAGACAUCACGCGGCCUCCUUGUUGCCAACUAGUCGGAGACGGUUUUGCCUUCGCUUUCUAGAAAAUACGCCCUGCUGGAUUAGCGG'
p170
aS'GCUAGAGGGACGUGUGGUACGGAUUUGGAUUAGCGCAGGCGAAGCAUGGGCGGCGAGGUUGAACUAUAUAAUUUGGUUAUUAGUUUGGGACUAUGCAUAC'
p171
aS'GGGACUAUGACAGUACCUGAAGUCUAAUACAAAACCACGGCUCGCUGUGCACCUGGAGGCUUAGAAAGCCUGUUGUACCGUUAGCACUAAGUCUACUGUG'
p172
aS'UUGAUAGUGGAUACCUAGGUGUCGCCAUCCGCGCCGGUUUAAACAACCGCGGACUGAGAUUUGCAUUCAGUAAUCUCACGUUUUAGGCGGAGCACCCGGG'
p173
aS'GCAGACAAGGAAAGGGGUUGAGCGCACCAGGCUAAGGUCUUGCAGCAACAAAUGCCAGAUGACAUCAAUGACUGCUCUACUCCUAUCCAGGCUCACCCUA'
p174
aS'CCGGUCUGAGCGCCCAGGCCAAUCCGAAGUGCCCGAACGGCACCCAGGGGAAACACACUGCCAGCACCAGUAGGGUUCUAACGGGGGAAUAGCCGGGAGA'
p175
aS'UUAUGGAUAUCUUUAGGGAAUCUGUAUACAUCUGUGGUGAUGCCCCUAAUACAUCCGACAAUUGCACUGACCACCUAAUUGCCUAUGUAUGUAGGGGCUU'
p176
aS'ACCGUACACAGUUGUACCUUAUUGCGGUAAUGUUGAUGCAGAUGGCCAUUUUACGACCGAGCGGAUAAAAACUGGCGCAGAGUAACAAGUGGGCGUCCGG'
p177
aS'CGUAGGAGGCUAUUACGCGUGUCGGUGUAUUGAGGUUCUUGUAGGAGCCUACUGGUGCAGCGAGGAGAUAUAGGAACGCUUGCGCUCGUUAGGCGAUUUG'
p178
aS'UACCACCCGUUAAAAGUCAACGCGUUACAGAACUGUGUGGGUCCUGGGCGAUAAUCCAGAUGGGGCGCUAUCAGUCUCCACCUUCUACCAAGUUUUCCGG'
p179
aS'UGCCCCCAUGUCACUGAGACUUUAAUGUUCAUUCUGGGAUGUCCUAGGGCCCACAUUGUAAAUAUCUGCGCCGACACAGCGGGUACUCAAACCCGAAAUU'
p180
aS'CACCACAGCCGCUGUUGGGAGAGCGGUGAUUAAACAUAUAUGUCUGUUCUCAGCGGACACAUUACCGAGUAACGCAACAUUGUGAAGUGUAGUGUAACAU'
p181
aS'CUAUGGAGUUGCUCUAAGAUCAUAUUCAGUCAAUUGAGGUAAGACCGCUUUCUGCUAUGACAGUUACUUAGUUAGGAUAGUGACAGCAAUCAGGCAACGA'
p182
aS'UUUGUCUCUGAACCUUACGGACAACAUAGGAGUUCACCGUAGCUGAAGACCCUCUGAGAAGUGGCCGCGCUAGGUCUCCCUACGUUCAAGGUAAGGAUGC'
p183
aS'UACCUCCCGACACGCAACCGUGCAUGCCUGCCACGCCGAUGUUUCUUGUGGUAUGUUAUAUAUAUAGCGAGUCGCCACAUAAAGGCACUAGAGCAAUAGC'
p184
aS'AGAGGCAGGCUUGCGGCCCACACGGCCCCCCGUUCGCAGGUGCGAGAAAGCAAGUGUACAUUCCAACACCCUCGCCGGCCGGUUUUACACCGAACUUUAA'
p185
aS'CGACGAAUGAUUAGGACCCUACCCCAACCAAAACCAACAGAUCACACUGAAUCAUAAUGCCCUACCUUAUUAUGAAAUUGCGACUCAUAGUAGCAGUAAC'
p186
aS'UUCAAGGUAGCGUGAGAAGCAAAACGCAUUCCUUUGUUUACACCACCGUCCUAUUAGAGAUGAGCAUUGCAACGAGCUAUAGCCUCGACAAACCAGUGCA'
p187
aS'UGCUCUGCGUUGGACAUCCCAUAGUAGGAUGAAGCAAAGUGUUCAGCGAGUCAUAAGUAAUCUAUCUCACUCACAAGAAACAGCGUCCGUUAGGCACCGG'
p188
aS'AGCUUAAGGCCCCUCACUUAUCAACCAUGUCCCGCUUCAGAUCGAGGUGUUGCAAGAGGGGUCAUCAGCCGGUUAUGCACAUACAUCUGUGAGCUGGAAC'
p189
aS'GUUACCGCAAAGAGCGUGGCGGGCCGGACCUUGCGAGUAAUCGGGCCGGUACUAUGGGGUUGAGACGUGUGCUGUAAGUUUUUCAUAACCGACCUCCCCA'
p190
aS'CCGGCUCCCAAGUCCCCCGCGUCAUCUUGACGAGUCAUCCGUCAGGGAGAGUAGCAUGAGUCUAUCAGUCCCGAUCGAGAAGCUACGAGGACAGAGUGCG'
p191
aS'UAGACGGUUUUCACUAACCUACCCGCUCUCCUUGAGUACAUACGGGUGACUAAACGGUGCGUUAAAAUGGUGCAUAAGCUUUGUGAGAUUAACAACUCGC'
p192
aS'CGGCCCACCUGACGCUGGAAAUUGCAAGACGAAGACGCGGAGUUCUUAUAUUCCUGGUUGCUUAUGUAUGGGUUCCACCCAUCACCUGGGUCAUACUUAA'
p193
aS'CUAACGGUUACCGAUAGUGAAUAGGGAUUGGCAGUAACAACAUGGUAACCAAGCAAUGUCGCAGCGUCCGUCAAUUAUUACAGCAUUCAGUUGAACAUGG'
p194
aS'GGUCCAAAGUUGCUCGGCCAACCUACGCGAGUCCCACAAUUCAGAUAUCCGAGGGUGGCCUAAGUGGGCUCGAUACCGCAAAAUGCCCUAGCCUAACACA'
p195
aS'CUCUAAGCUACGAUGAAAUCGGGGUCAGCUCAGGGCAUCGGGGUCCACUAUAAGUACUACGGACUCGCAGACGAAGCCUCCCUAUGCAUCCGAACGAGAG'
p196
aS'GCAUACAUUAAGGUGACGCCUCUACGGCAAAAUAUAUUCACGUGUGUCGCUUCGACUAUGUCGUAACGAGUCUUUGCUGACUCAGCGGGCACUCGGAACU'
p197
aS'GUGAUAUCUCGCAAGAGGUGGUCGAACAGAUGGUGUAGGACUUAAGAAGGUUCCGCACCGAGCCAUACACAAUGACCGUUGCAGGCCCGAUCCCAAGUUA'
p198
aS'GUACCUGAACCGGUCUUAGAGUGAAAUGUGUGGUGUUUUCUUUUACAGCUACCGCCAACCCAAGUGCAUAAGUAUUCGAUAUGGUAUGGGAGGACGAGUC'
p199
aS'GGGCUCCAUGGGUCAAAACGAGGGUCCAAGCUCCCGCAGUUCGUCAACGGACUUGCCCUAGUACUAUACCUCGCCCGCUACUAUGGGACAGUAAACUUGA'
p200
aS'CCCUGCCCCGUACGAUGGACGGCUAUGAAAGAGUCCCCUGACCCUGAAACCCGAAGAGCCGGGCGAUACCCCCGACCCGUACGCAUUGUAACAAGACGGC'
p201
aS'UGCGGUAGAGGAUAAUCGGUUCUUUCCUGGGUGUUUUUAACCUCAGUCGAAGUCGGGAUACCACUUGUUUUAGUUUGUGUGCAGGCUAAUUACUGGGACU'
p202
aS'GGCUACUAUAUGUAUGGGUACGCUAUCAGCUACCCGUUACCACAUAAAUCUAAAAAUAAUAGUCCCUGACGUUAAUGGUGGUAUAACUCCCUCCCCGAUG'
p203
aS'GGUACGUUGUAAUUGUCGGCUGUAAAGUUAGUAUACGCUUAACAGGGGCCCGAACUUGCGGAGAAAAGGCCCGAGACGAGAACCGACAGUGUGGUAGAGU'
p204
aS'GUUCAUUCUCCAGUAGACAGAAUGUUUUCGUAGUCCCCCGCCGAAAGCCGUACAGAUAGAGACUGUGGUCUCUGAUGAACGUUCUGCAACCGCACUCUAU'
p205
aS'UCGUUGCUUCGCCAGCUAACCCCGUCACAUGCGGCUGCAGACUAUCCAUGGUAGACCUAACUUACGCCACCUUGUGCGCUAUUUUCUGCCAAAAUAUGGG'
p206
aS'GGACUCAAACAAGCGCGAAUGCGUAUUGCACACAGUGACCACUAUCGGAGAGUACCACUAAUGGAGCACUAGUUGGGGAUCAUGGAUCCCGAGAUUUCGG'
p207
aS'CGUCAUCGUGGGUUAAAGUCUAUUACCCCCAGAGUAGAGAGGAUGUGUAAGUCACUUAAUCACAGAUACUAAGCCUUGGGAUGACUCAAGAAGCACUUGG'
p208
aS'UCUUGUGAGACCAGUCAGCCUGGUCCUAACUGUUUGACUAAUUCGACUACGUAUUGUCGGAUGGCACAGAUGAUAAACUCCGAGAAGCGCCUUUACAGAG'
p209
aS'CUUUUAGGGUUGUGCCCUACGGAUAAUCUCGCUGAAAACAAACAGGCCGACGCAGAUAGAGCCAGUUCCCUCGGUUAUACCUUCAAGUUCUUAGCGUGGC'
p210
aS'ACGUGCUGAUAAUGGAGCGUUCUUAUAAUUAAGGGGCUCACAGUCUGAUCCCACAUCGAAAACAGUAUUACUGUUUGCCUGUUAAGUAGCAUGCGGAGAG'
p211
aS'CCCCGGUUGCUCAAGAGAUCUAUCUAGCGCCCUUGUUCUCAUUUGUUCUAAUAGACACGCCCCCGACUAUUUGUCCUGUAUGUACUCCGAGUCGUGAACC'
p212
aS'CCCCCUAGGCCGGUAAUGCCGUCCGCCAUUGAACCGGGUACUGAUAAGCUACAAUAAAAGUUGUGUGAUAGCAUGGUUUACGCUUUACAGCCUGUUAAAG'
p213
aS'UAUCGUCUCCCAACAACCCGUUCUGAUCCGUGAAUGCGUUCUUCUCGAUUUAGGUGUAGUCUAGGGUCAACGGACAUGUGAACACUAAACUAGGGAAUCG'
p214
aS'CUACGGUCUACACGACACUACGCUGAUACAAGCGUGUCAGCGCGCUUAUGGCAGGGGAUCUUAUGUAAGGCGUGAUACGCCCCUACGGAACACCGGGUCA'
p215
aS'UCGGCACGAAUCAAACGACAAUCAGUCAUUUUCACCGAGCAAGCGGUAGCUUUACGCCCGCCAUGAACGCGCGGACGGGCUCUAUGCCGCAUAAAAACCA'
p216
aS'CCCGAGUAGUGCUUGCCGCUUAGCCUGGUCGAUAUCGUCCUGCCUACAAAGCUGGAAUUGUGACACAGCCGCUGUGGGGAGGCUCUGGGAAAGGAUAAUU'
p217
aS'AGUGGAGUAUCACCACCACUGAUUGUCCCGUAAUCACCGGUAUCCCUUUACCCUUCGACACUAUUGGAGGUAUGUAUCUGCCGCCGGCUAAAUGGCGUCG'
p218
aS'CUCCUAUGUGAACUUUAUACGACUCGAUUUAUGGGUACGGGACCCACAAGUGCUGCUGAUCCGUAGCCGAAGCAUAGGCACACACAAGACUCGUGUUUAU'
p219
aS'UCUAGAAGACAGGGCUACUUGAUGGGCUGCACGAAGCAGCAUCGUCCUACGGAGUACUAGUGGAUGAGUCAUACUGGCUUUAUCGAUGCCUUAGAGCAAU'
p220
aS'GUUGAUUUCACGACAUCAAAGGGGAUGUCGGCGUCAGUGACCCUACGGAGAAUAGCUUCCCUCCGGAACAGUAGUCAGCAAAUAGCCAAGAAUGAUUGUU'
p221
aS'GCCAUUCCUUCCUUAGGAACUAGUGGUGCAACAAUCCGUUCAAGAUGCUUGAACUCCUCCCAUCGACAAGAAUUACGGUAAUGGAAACUGACAGCUUACA'
p222
aS'CCACGAAAGACACGUUCCACUGUACUUACUCUGUUCGGAGGAGAAGUAUAAAACCGCGCAUGCUUGCCCAGCUCGAAAGGACCGGCGUUCUGAGAUAAUU'
p223
aS'CAAUCACACGGAAGGUCGCUCUCCUUCGGCCCAUACUUUGCCCAGUAAGAUUAGUCUAUCAAGUUUUUCAAUAGCAGUCUAGGACUUUCUAUUGCUUUUG'
p224
aS'AGGCAUUCCGUUACGUACAAUAGGAGGCCAGCAUGAAGUAGAGGAGGCGUUUUACCGGCACUGGGCUCGGAUUGGAACUCUUGUACCGACGUUGCCCUCA'
p225
aS'CUGGAUACUGUGUGGGAGCCUGUAACAGCUCGCCUGGGAUUGGCUGCGGGCGCGUCACCACCACACUCCCACAUUGCUGAUUGAAUUUUGGGACACACGG'
p226
aS'CAUCGGCCCGAGGUGAGAGUACCCCCUAAUUUCCAUCGAAAAUUCGAUGGGGUUUACGCCGGCAGGAGACCUGACGACAAUGUGACGCACCCCCGACGGG'
p227
aS'UUAUGCACACGAUGUGAUUGGUCAGCACGGUCGAGUCCUUGUGAUGCCCUCGGCGAAUCGACUCACCGCCCGGACUACCUACUUGGGAAAUGACUGCACG'
p228
aS'CUUGCUGCCUCUAUCAAGGUGGGUGAAGACUGUAAUCUCCCACCGGAACGUUCGUAAUUCUAGGCCAUCUAAUAAAUCAACGCGGUGAGACCGUUGCAGA'
p229
aS'UACGAGUGGACCUGCACAUGGGACCCGAUAUUUCCCUGCGGUAUACGGCUUAAAAUGUCCACAAUACCGCGAUUCAAUUAUGAAAAAUGUCCGAGCUGUC'
p230
aS'AACGUUCUUAUCUGAUCGUCCAGCGCUGCAGCACCAGGACUUUCAGGAUCGUCAGGUCUUCCUCCAUAAACUGUUUAAUUGCGAUGCCAGCUAGCAGGGC'
p231
aS'AUAAUCGUAAGUACAUAAUGAGAUGGGUACGUAACCCCCGAAGUAAGAUCAGUAGCGAUGUCGCUCGAAGGGAAUGUCCACGGAGGAAGUCAAACCACGG'
p232
aS'AGCUGUUAUUGGGUACGACUGUGUGUUCCUUCAAUCAACUUGUGUAUGGUGCACUUCGCUACUAUACUGGUACGUAUGCUUCUGGCGAUGUACGAGUCGC'
p233
aS'UAGCUAGCUCCAUAUAAUGGCGAGCGUAACAAAGUGUCGGCAUCAGGAGGAAUUAGCAUGGAGUCGCGUCUAUAUCGCCUUCUCGUAGCUCGGUAUAACU'
p234
aS'CAUAAUAUCAAAUGCCCACUUAGGAUCUAACUCAAUAGCACCAUUUGCCGGCUAAGCGCGGUUCACGUUAAGAGUCUAUAGCUGUAAUCUAAGAAGAGCU'
p235
aS'GCGCUCCACCAGCCUAGACCCCGUAGCGUAACUGCCCCUCCGGCACUUGUCGGUAUUGACCUUUUGUAGUAAGGUCGGAAGACAAAGGAGGACCCUCGCC'
p236
aS'GACUUGGCUUGUGGCUUAUACUGAAAACAUGCGACAAAGCAGGCUAUGGAAUUGUACAACACACGCAGCAUCAGGCCGAUCACUUCCCUCAACAUAUUUC'
p237
aS'GUACCGGGCAUCGGCCACGGACUCAUGGACCAUUUGCCAAAUUAGCAAGUUCAAGUAGCUGUACCAUAAUUCUAUUCAUGGCAGCAUUUGUUAUUGAAGG'
p238
aS'GCGGACCACCUAGCUUUGCUGUUUCUUGGCUUUAGCAAGAUUGGCCAAAGCUAGAAGUGGCUCAGCUAUCCUCGACCGAGCAAUGAAAAGUCUACGCGUC'
p239
aS'UCGAGACUCCGUUCUCCUUGGGUGACUAUCAGCCUAAUUUAUUAUCGACGCUGAGAUCAGAUCCCCUUUGUGCUCUAAGUGAUGAGCUCAACGACUUACG'
p240
aS'ACUACGCACUUAUCGCGACCCCUCUAAUCCUGGCCCUGGAACACAUAGGGGGAACUUUGAAAGUUAGCGUCCAAAACAUCUUGAAUAGUUAAAACGUUGC'
p241
aS'UAACCUAACUGUGGACAGGCGCGUCUAAGCGUUCAUCCUAACCCCGAUCGACCGGUCAAAACGACAUGGACCCCUCUAGGUCAAACAGUAAUGCCCCGAA'
p242
aS'CCUAGUUGGCAACAUAGCCUCAAAUGACACUUGGAGCAGCCCACUUGGACUUACCAAUACAGAUCGCCAGGAACGAAGAGGCGAGCUUUAAGAUCGUAUC'
p243
aS'GUCUGUAAGGGGAAGAAAGAGGCACGAUUUUAGUUAUGUAUCCGUGAUUGAUGAAUGGGGAUAAAGCUUUCCCAUUCGUUACGUAUCAACGCCCGUCUUA'
p244
aS'CAUCGCUCCGACAAGUAACCCGGUAGCCUAGCUUUAGCAGAGGGGCUUCGUUCUUAAAACCAUGCUCACUUCUGCACUCCGGCGACCCAGUGGUGACACG'
p245
aS'UGUAACGAUGUUGACACUGAAGCUCGGAAUGCAUAACGCUCUGCCGGCGAGGGAACUUCAAAACGGAUGUCACUGAGGACAACUUGUUGUAAACGACCCU'
p246
aS'GGAAUAGGACAAACAUGUUUCAGGUGCACCCUACCAACGGAUAUAGAUGUUUGUUCUGGCACGGGGCCCUAGGGACAGAUAAGUUCGCCGGUGCCUCUAG'
p247
aS'CCAACAAUGUGGGCGGUGGAUAGAAAUCGCGUGUUUUACGCGUUAACACCUGUGUUGGGAAUGAAGAAAUGGUCUGCCAAAGUACGGAUCUCAGCGAGGA'
p248
aS'CGAGGUAAUGCCUCCAACACUGAAUCGGCCGCACUCUCAGUGAUUAAAAGUCCAGGUGCCCCGUAAUAAGCCAGUGGCAAGUCGCAGACAAAGAGUACAC'
p249
aS'AAUUAAGAAUACGCGCCCAAGCACCUGGACGUCUUACGCCUCCCCACUAGUACGACGUUGGUAGGAAAGUUGAGGGUUGCGAUGCCAGGCCGGAAAACUA'
p250
aS'UCAUUUUGCGGAGGAGUCAACGGGAUCUUCCUCUAUCUCCACCGGUACAGAACCUGUCAAUAGCAACAGCCGGGAUUGUCGUAUCGACUGUCUGGCUAAA'
p251
aS'GUAUUACCCAGCAGCAAAUCGCUACAACAGACCAAUCUUCUUUGUGCUGUGAGUGAUUAGUAUCCAGAUACCUAAGUUCUAGGCUAAUCAUAUGAACGUA'
p252
aS'GCCCGCUAGCCCACGUUGUCGAAAGGCUAGUCUUUGAGUGGAAAGGGGGCAGACAACGCACUUGGCAACGGGGGCAGGACGCCUCAACACGAUGAGCGCG'
p253
aS'CCUCGAACAGGCCCUGAUACUCCAUCCAUACUUGUAGUGCGUCGAGAUUCUUGAUGAUAAGACUGAAGUAGGGCCCCCUCCUAUUCCCUGCUACCAAUCG'
p254
aS'CUACCGCACUCUGCAAGCGGCCAAGAUUUUUCAAUAGUUACCCCGGGGGGACCACAAUGGAGGUGUUGGGUUACCCGCACACUAUUGGUUUACUGGAAAU'
p255
aS'GGACUCCAAAAAUGUAGACGCCAUCAUGGGUGAUUAAUCGCACUCGAAAUGCUUAUUAUGCCAACAGCUAUCCUGUUGGUUGAAAGUCUGAGUAACCCAU'
p256
aS'UAGCUACGCCGGCAGUCUUGGUAUGCACGCACUGACUCUACCCUGGACGGCCUCACCUGAGUAACUCGUAAGGUGCUUCGAGGAUGAACAACUGCCCACA'
p257
aS'UGGGUCGACGCUCGCGCACCUUCACUUGAAAUCGCUGGCCAUGUGAACGCCAGGUCGCUCGGUGUCGUUGCGACAGAGCUGGUACCCCCUAAGUUCACAA'
p258
aS'GAAACCCCCUAGGUAGUCUUGGACUCGUUCGAUAGUUUUGGUAUCACGGAUUGCAAAUAUCUCGAUCGGGACCUACCUGUAUUCAGGAUCUUCCAUUGUU'
p259
aS'AUAUACCCUGUUACGCAAGCUGAUAUUCUAAAGGCAAGUGCGGAGUCCCGCCCAUUGCAACUACAUUAAUAGCCCAGCAUUUACUCGUGUCGGUAGCCUU'
p260
aS'GACGACGCUCGGUCAUUCUUAACUUUUACACCGGUGUUGACACUCGAAAAUAACGUCGAAUCUAUAAGUGUAUUCCUUCGGUCAAACGGUCCAACAGAUG'
p261
aS'GCGUUGGUUCGCGAUAUAUAUUGAGUGACAAUUCGCCGCAAAUAUCGAACUGAAGUCGCGCCAAAUAGUAGCCGGGAAGUGUGUCUGCGUCCGUAGGGCA'
p262
aS'CCCAGGUCCGAGCGCUUUAAGAGAAACAACGUAAGAGACGAAUUUGACAUUCUUACCGCACCGCGGUCAAACGCUUCCCUUGGGUUCGCAACGCCUUGUU'
p263
aS'GCGACCGACCAGGUAAAGGAAAGCAUCAUGAAUUCGGCGGAUUGCCACUCGUUUGCUGCAUACUGUGAAGCACCCAUGGUACCCUAAGGGCUCUAUGGCG'
p264
aS'CGUUACAACGUCGUGACGCUCACAGAAGGGUCAUGAACCACCCCUAGACGGCCGUACCCGUAUUUUCUUUGUCGCGGGCACGUAGCGUAAUGACCAAGUG'
p265
aS'CCACCUUAAAUCCCCAUUCCAUCGCCAUGGCGCAUGCUAUGCCGCUUAGACAUAAAUCUGAGGACUUGGCAAGGUGGGGGCAGAUGCCAUUCCUAGCGAA'
p266
aS'AUGAUCGUACCGUCCCGGCUUACAGAUGCCCCAGAGAGGCGAGCCGCAUAAGGAUUGUUGCUGCGGAUGCGGGUGAUUAAGAUCCUUAACGUCGGAGGCC'
p267
aS'UUAAUCGGAUUGAGAAGCCCUCCAAACUAGUCAAAUUCGCUAUACACACCCUUGCAACGUACCCAUUUAAAGACUUGGCCCCUCAAAAAUUCGUUUUUGG'
p268
aS'CACUUUACUACGACACUCGAGUGCAAGUUCGCUAACAGAGUUAGCCCAACAUGGUACCACUCGCUCAAUCUGGGCGCGGGGCAGAUGGACAGUAAUCACU'
p269
aS'AUUUCGAGAUGUCUGCUUCUGGAUAGAGGAGGACAUAACCGACACGCGUAAGCGGUGCCGCGAAAGCGUACCUUGUAUGUAUUAAGAAGGCCAGUGACUU'
p270
aS'GUGCCCGCCUGUAACUACCCAGUCCGUUGCAAUCUAUACUGUGUGCAGAGUCCUGGGAGUAUAGGACAAUACAGUGACUAUAGAUAGGGUACCCCUUAGA'
p271
aS'AGGAUUAGUGUACCGACUGUGCGUAACGAGAAAGUCUGCUCGUAAGUAUGAUUCUAGACUUGAUAGGCGAAGUCUAAUUCCCGGAAGAGCAUACCUUGAA'
p272
aS'GAUGUGUGGUUGCCCCUCCUGUACCUAACCCUGGGAGCCUAGACUCACAUCCCAUACCCUUAUCCUGCAAUAAAGACGUCAAGAUUCGAAAUUUAGACAU'
p273
aS'UUCUUUAGGAUACCGCGCCCAUGUGCGCACACACGUUUUAGCCAGCUGACUCGUUCUCUGAAUAAGGUCACCAACGAAGCGUUAACUGAGAGAGUGCUGA'
p274
aS'UUUGCCUUAUACUCCUCCGUCCAAUUACCAGAUAGGCUUAUAUACAACGACGCCCGGGGGGGGACAAUCAGAAGUACGAAGUUGAAUGCCCAGAAGUCAU'
p275
aS'CAGUUCUCCUGCCGGUCAUGACCACCUCAUCACAAGCCAGCUUUGUUUAGUUGUACCGGAUGUAAUCCUUAGCAGUCGAAAUGUCUGGUCGAGUCUAAGA'
p276
aS'CAAGGCAUGAUGAUCCGUGCAUUUACAAAGUUGAGUAUGGCGUUAUCAAAGAACAUAGGUCGGGUGCGCUCCAGUAGGUAUCGGUACUACAUACAUAUUC'
p277
aS'AGGUGGCUCACGGCGACCAACGGUGGUAUAAACUCGAAGCUAGCUACGGCGGCCUAUGUAUUCUGGCUCCUACGACAAAGUCCUCUGUCUCCUGACUAGU'
p278
aS'AAUUAUUAUGUCUAGUUGCUAUUCCAUUUUUUAAUUCUACCAUUUCCACUUUUUUCUGUAGAUCACUGUUGUAGAGUUACUUUAUGGUUAUCCUGAGUAU'
p279
aS'CAAUACAGGCCUUUAUAGUGCGAGCGGUGCGGCUCCCCGCUUCUGUGCUGCUCAUGAGGUGUGGGCGAUUACGACCUUAUAAGCAAAUCGUUAUGGUGGA'
p280
aS'ACUCGCGCGAGGAGUACCACCGCACUAUUGAGAAUUGGUGCUGGGAACACCGCCGCAUACACUUCGGGAAUGCACUUGUCCCGUGGUAGAAGCAAUACAU'
p281
aS'GAUGAAGACCACCCGUGCCUGUACCAGUGUAUCACGUUUUUAGCAAAUAGCUUAAGUAAGUCCAGUUUGUCUUUCCCUUUGUGGCCGUGGCGGACGUUUG'
p282
aS'UUACGCGAUGUGCUCAUAGCACUCGGAGCCUUGUACGUUAUCAAAUGUUCCAUCGAAAACUGGGAUUGACUCUUCGUGGGUCUUUUACUCCCGCGGAGAC'
p283
aS'CGGCAUUCGCCCAACCGCAUGGCGGUCCCUAUGUAUAGGAAAGCAAUUAGUAGAUAGUCUUAGCACCAGAAAACGCUAUUAUGGGGCAUGAGAGCCCCAC'
p284
aS'GUGUAGUAUGAUAGGGUGUCUUGUCUUAAGAGCAAUAAAGUCUAAACGUCGCGAGUUAAUAACGACUAGUGCCAAUGAUUUCUAGGAUGACCUCCCAACC'
p285
aS'GCUUACUCGGGAUGGAGCCGCGAAUUCUAACCGGCUAUCACAUUCGACGCGGCCCAAGUGUGAUCCUGAUGACGUCUGAUGCAGGAUUAUACCUUCCCCU'
p286
aS'CUGCGCAAAGACCGGAGAGUAUACAAUGUAGUCAGUCGAGCUAUCUUUCAGUGGGAACUAUACCAAGUAGAGUCCCCAGAGUGUGUAAGCAGAGCGCGUC'
p287
aS'CACCUUGGCUGGGGCGAUAGUAAUUUGCACAUUAGCGGCAGGCUUAGGUUAUAAGAGAGUAAAGUCUCGAUUGCUCAUAAACCUGGCGUCAAGGGGCUAG'
p288
aS'GUUAUAAGGGUUUGUUUCGUCAUUAUUCUUUGCCUAGAUUAUUAUUUCGGAAAGCGUAAUCAGGCGUCCAGGAGCACAGGCUACUGGCUAAUCUCCUGAA'
p289
aS'CCACCUUGUUAUGAACCGAAAUACCAAGCUGCUUCUGCCGCCGUUGGCUCGCAAAAGUACGUUUCCAACUAGACCGUGGUGUUGAGUAUUGUCGGUUCUC'
p290
aS'CAAUGACACCUGCAGCACUAUCCACAACGCCAUGAUCAUCAGGUUGGCAAGCGGAGCCAAGGCUCCCCGCGGGCGCCCGACUCGGCCGUUGGUGGUGAGU'
p291
aS'AAACUCUAAGGUAUCCUUCGGGGACAAUGGUUGGUUAUAACCCUUCGAGUAUAGUCUUAGUAGAACGUACUCGUGUGUGAUCUAAUGUUGGGCGCCCGGG'
p292
aS'UUACUAUGAGAAUAAUGAACCGGUACUUAGUCAACCAACAAAGAAAGCUUGCAUGAUGCGUAAGUCUAAAGGGCUAGAUUAAACCACGUUACUGUCCCGC'
p293
aS'GUCGUGCUGCUUGCGUAUCCCCCAGAAACGACGUGAAAAACCCUCACAUGUGGCCAAUUUGUCGACUGGCGGAGUUGACCGGCCCGUAUCCGCAUGGAAG'
p294
aS'GCGCAAGGCCAACCGUAUUUGUUGGGUAAUAUGAAAGUAUCGGUGGGUUUUCAGAUUGUUGGAUAGUAGCUAAAGUGCAUGGCAUGUGCGACCAACGCGG'
p295
aS'UAGUGGUCGGUUUGUUCUGGCCGCGUGCAGUUACCUAAAUGUGUAGAGAGAAGUCGGCAGUACAGGCCGCGACCCUCAACGUUAGACGGUGUUAUCCGGC'
p296
aS'UGGAACUAAACCAACCACUCUGCCCUCGCCAGGCGAAUGCGGGGUCAGCCUGCUUGCCUGACUAAAACUGACAUCCUCAUGAUAAUUUGUAGCGGUCUUC'
p297
aS'CGUGGCUCGCCUAAUGUAAAACAAAUUAGAAUUAAAGGCUAUUGUAUUCCCAGUUGAGUCGCCUCAUGGGAGUUCACACGGUAAGCGUCGUCUCGUUUGU'
p298
aS'UCGUGGUCGGCAACCGAGACUACAUAUCCAGCUGUCUACACGAAGAGACGUGGUUACAGGUCUUUGCUUCCCCAGGGUGUUCCGUGUAGAUUUCCGCCGA'
p299
aS'GACAAUAGAAGGAUGCCAAUACCUUCUUACACGAUGAUCCCGGUGACGUUAGGUAACCUCCGGUAUACGUGAUGCAAGAGACCAGUGGUGUUAACUCACG'
p300
aS'UAACUACGAAUGUUCCAUCUAAAGGUGCGAUUAACCUUACAGGAAGGUCCAAUCCCCAGCCGCGUAGGCUAUGUCCCAGAUGAAAGUGUUCUCAACAUCC'
p301
aS'UUCGUUUUGCGCAGGGGUCAUAUGGCCACCAGGUCGCCCGUCUCCAAGCUAAGCAUACUGGCGGCGUCGCGGGUGACUCACAACUAAGUGCAAGAUGCCA'
p302
aS'AAGCUACUAUGGAUCACGGGCGCGAGAUAACCUGCUUUUAGUUCUAAUGACGCUUAGCGCUGCAACAUUGUAGAGAGCACAAAAAUCACGCACGGUGAAA'
p303
aS'CUCCCCGCCCUCUCCUACGUGCAGCUUUUGAAUGUUGUGUAAUCGCCCAAAAAAGAUAGGUCAUCCCCCGGCGCGUUACUUACUUUUCGUGGCCCUUUGG'
p304
aS'AUUCAAGAACUCUGGGUGUGGACAUCUUUCUCUCCGUCGACGCUGGGCACUACACGACUCUUAAAUAAUCAGUCCUGUGGGCCUAUCCCCCCACCGCACC'
p305
aS'CUCGUCUGAGACUCGGCUUAUCCUACACGCGGGACAAGACCACAGUGUAUAUCAAGUCCGCGGUAGGCGUGAUUGUGCGCGAGAUCGAAAAUGAAUUCGU'
p306
aS'CACUGUUCAUCAUCCCACUGCAACCAUAUGACAGUAGACGUCGUGCGCGCAGGACGAGGUGGUGGUCCCAUUCGUCAGUAACACAGGCUUCCUUCGACAA'
p307
aS'CAUCGUGCUUAUGUUUCAGUACAUCUUUAUUCGACUCAUGAGUAGGCCGCUGUCGCGGAGUCACGGUGAACCCAUAACGACAGCCUCGCGCAAUGGGGUA'
p308
aS'CGCCCAAGGGAAGCUGGUCGUGAAUAACCUGGAAGGGCAUUCCCGAUCAUUGCACUCCCCAGCAUGUAAAGGUGGUCCUGGUGUCAUUACUCUGGCGCAG'
p309
aS'CGGAAAUUUGCGGGAAGUCUAGUCCGAUAUCAAUUAGAGAAGUACCCCGGCGACUCUAAACUUCGGGUCACAUCCCCUGAAACACAUCCAGGACUCCUUA'
p310
aS'AGUCUGCAGAGACGCUGGGGGCACUGGGGCACACCUUAGGAAGAGCUAGGGUCUAUACCUGUACGCUACGUUCUGUGAAGGUGCAAAUAUCAUUAGUACC'
p311
aS'GCGCUCGUAAAGAGACCAUCUGCCUACGAGUGGAUAAGUUCCAUAAUUGAAGGUAGCAAAGGCCGAAUGGUGCAAUGGCACAGAGGAGCAACUCACUCAC'
p312
aS'GGCAGGGUCACAUUCCUCGAAUGCGCUAGUCUUAUUCGCAGAGCAAGGACGACUGGACUCCUCUUGGAUCGUUCGGAGGACCUUGCUACGUAGAUUUAUC'
p313
aS'GAAUCUCAGCGCUUAUCGGGGGACCGUUGAGCGCGCGACCGAGGCGCGCAUGUCGCAACAUAUCAACCUACUUUGCGUCUAUCAGGACGACUACCUAGGA'
p314
aS'UACUAGGUGCCUGGUCUGUGUGGCUUGAUGUCCGCAACCCCAUGCGAAGUGGAAGCCGCCAGCUUCACGGCUCAACAGAGAUCGAAUUAGCGGUCGACGA'
p315
aS'UUUGGCGAACCUAGCUCUAAGACCUGUCCGGUUAGGAUGGGAGGAAGGCCUAUCCGACUAACGUCACGUAAUGGUCUUAGUGGGGUCGCUUACUACUACC'
p316
aS'CCGUUAGCAGGGCUAUGGUAACCACCCGUCUGACACCUGCAAACCGAUGGUCUGACUAUUUAAUUAUGCGAUUGUUGGCUCUAAGAGCUCCAGGAAGGCU'
p317
aS'CAUGACACCGACCAGCCGCUAGCGGACGCAUGGGUAUCCAAAGAUUGGGGUGACCAACUGCUUACUGCAGACUAUCUUUAACGUUAACGUAGGCCCGCAU'
p318
aS'AACAUUGCGUUUUUAAUAGCUAUUGGCGAUUCUCAUAGUUGCCUGUUCGCCCACCCCCUAUUGUGCACACGUUGUUAGGCGCCGUUUUGAUGUUCCCAUG'
p319
aS'UUUAGAUGUGAGGCAGAGGGUGAUUAAAACGCACAAACCAGCGGGGUUAGAGAUAUACGGCUGAUUGCGUCUUCAAGGCCGUGGUUAUGUCGGUUUUCUG'
p320
aS'ACCGCAGGAGAUUGGAGACAUGUAAUACAUGGAGUGCCUCGGGCAGCUCCAUAUAUAUCACAUGCAAGACUUAAAUGUGUCUUAAUGACGCAUGGCAUUU'
p321
aS'UUUUGUGGGAAGGUGAUCUGUGCGUUGUACGAUAGCAACAAACCCAUCCGUAGCUCUUCCGAUUAUUUGUCCGCUCUUUGAAGACUGGACACUCUAGGCA'
p322
aS'AAGUCAAUCGUCUUAGACGCGUACUACUAACUAGGUUGUUAAUCGCCCCGUACGACUCGUUUGUGGAACGUUCGGCGGAAGUGCGUUCGAGGACACCGCG'
p323
aS'UGCAGUGGUGGCCUUCACCGUCCAAGAGCUAUACUUUACCCGCCUUAAAGGUCCCCAGCCUCUGUGUGCUCGCCGGGGUUCUAUAGCGUACCUACUUACU'
p324
aS'GGAGAGCCCGUCGGUACGACCGCUCAGGCCGUACGAGCUUAUCGGGAGGAGGAAUCGUCGUUCUGCUCCGACGGGCUAACCACAAGCGGAUUGCUAGUCG'
p325
aS'UUUUGGAGAGAGGCACAGAUUAUGAUAUCUUUCUCGAGGAACAAAGCGCGGGUGGAUUAGGAAAGAAGUAUAACCCCAUAGAAGCGUGAACACCUGCCUU'
p326
aS'GCGCACUGCUGCAAAGCUAUGCUAGGAGUAAAAGUCAUAGCGCCCGUCAUUUAGAAGCAUCAAGGGGUUUUGUACACUUCACCCUAAAGUAAUACUCCGC'
p327
aS'CGAAGCAAGCCGGAUACUAUCCGACGGUACCUGAAUUCCGUGAAUUCCCUAUAGGUUUCUUUCCAAUUGAGCCUAUCCCACACUGGCCCCGACGUAGGCU'
p328
aS'GGCGCCCAGUUGAACUGCAAUGCUACGAGUGCCGACAAGUUGGUUGCAGAAGCCUCGGACGAGAAUUGCCCUUCACAGACCGAUCAGAAAAGAGUCCACA'
p329
aS'GGAGGAGUGUGCUACGAUAUAGCGAGUACUUAACCAUAUAGUUCUGCGGACUCAAGGGGUAUGGAGGCCUGUUGCCAAGGACCGCUACUUUCUUCGCGCC'
p330
aS'AUGCGCGACUACGAAGGGGAGAGGUUCGGGGUGCAUCAGUAUGGGAUGAUACCACACUCUUUCCAGUAUUUAUCUGCCUCAGUAUGGUGAGCUACUACGA'
p331
aS'AAUUACUGAUUUUUGGCGGACAUCAUUCGAAAAGUGGCGCUUCACAUAGGGCAUAACCCGAUUGAGGGCAGCACGAGGAAGUGUGUCAACUCGAGUGGGA'
p332
aS'CCCCGAAAAGUGAACUGGAGCCACGCUAACAUUAGGCCACGGUAAAAUCUAUGCUUGACUUAAUCUUGUGGAGAGAUCUGUUAGACACCGGUACACGGCC'
p333
aS'AAGUCCCGUAGGGCGAUCAAGUUAUCAGCCCCCACUCAGAGACCCACGACACAUAGAAUUCCUUUGCACUCUAAAAGUUUGCAAAUAUCUGCCUGAACGA'
p334
aS'CGCGCGGAAACCAACGAUCUUCUAGUCGAAACCACGUAGCUUAUAGGGUGAAGGGAAGGGCUUAUAAAAAGUUUGGUACGUAAAAUCUUUCCAUAACCAG'
p335
aS'CACCUGAUAUAUCUUAAAUAGCUAUUCGUUCUCCGACGUAAGGUGCCAUCUAACAUUCGAUAGCGAGCUGUAAUAAGCAAUACGUCGGUCACAUGGCUAC'
p336
aS'ACAAUCGAUCAAACAGCCCAUUUUGGAGAGAUGGCAAAAACCGCCUCACCCACCGAGUGGUGAGAUGUAUUCCGCAGCCAGGGUUGUAUAGUCAAGGACC'
p337
aS'UACAGCGAACUAAAGAUGACCCCAUGAUAUGCUGCGAGUCCACGACCCGAUAAGGUCCGUGGGCAACAUGCUUGCGGAUGAAUUUGCGCUCCCAGAGCAA'
p338
aS'AACGGGCAUAGGAGGCGGCUCUUAGUCUGUGAUCGGUCGAGACGGGUGGAAUUGCCCUCGUUACAACCCGGGCGAACUACGUGUAACGGCCUGCUACACU'
p339
aS'CCAUUCAUCGGAGUCUGCGUCAUGCUGUCAAGCUUGAGUACCGCAGACGCGACAAUGUGACUGAUCGGUGAAGUGACAAGCGAGACUGUUAGUUUCAUAA'
p340
aS'AACCGGGAACGGGCGGCUUGGUGGUCUUUCCCUAACAAUCAAGUGAGUCAAUGAAAGAACAGGUCUGUUCAGUUAUAAAUUGUAACGGUUACCAGAUCGU'
p341
aS'AAUGGGCAUGGCUCACGCGGGGGCCUUAUCCACUUCCGGUCUUGUCCCAAUCAUCGCCGUCAUACGAUAAUCACUGGGUGACUUAGACAUCCGAGUGCCC'
p342
aS'ACGCAGUCAAUGCGAACGCCACAAUCCUGUAGUAGACCUCAACUAACCGGCUUCAGACUACUUAUCGAGUUGGUGCUUCCGGGGCAGCGGAUUCUUGCGG'
p343
aS'UCAAAAGUGCCGACUAAUAAACCCGCUUACGGACUUUAUCGAACGGUCAUACCUUAUAGACGCCGGGCCCAUGCCGGCUUCAGUAGGAUUCAUUAUUCAA'
p344
aS'CUGAGCCACCCCUUGCAAUGAAACUCGCGUGGAUCGGAAUCAAAUUGUAACGCUGGCCGCACUAAAUGCGGCAACAUUUCUCACGUUUUCACUCGCUGGU'
p345
aS'GGGGAGCUGUCGCGUCGUCUGCGAACGAAGAUGUGCCGUUACUUGCCGUAUACUUACCGUUAGACUAUAAUUACAGCGAGAAGGCGGCAUCAUGCCUAAA'
p346
aS'UCGUUGUGGUUUCCCUCUAGUCUACAUGGAUCCUGGGCAAGUAAAUUGCACACCGGCAUAAGGAACUGCUAGACUCAACGAGUGUUGUAGUACAUUUCAU'
p347
aS'CUCUCGAAUUUGUACAGCUGUUGGUCUGAAGGGUGGCAAGCGACAAGUACAAGUGGGCCGACGCGUACUGAUUCCACGUUGAGAGGCAGCACAACAGGAA'
p348
aS'UUCGCACCCCCGUCACCCCCGACGUUUUUUUCACAUACAAAUUUCUACCCACUCAUCCAAAACCGCCUUGAGUCGUCAGAAUUUGCCAAAAGCUGUGACG'
p349
aS'UGCGCAAGCGACUAAACACCCCUUUUACACCCCGUAUGCCUAGUGUACAACUACGGCUGCUAACACAGGUAAGUAAGGAGUGUAACCUGGUUCGGUCACU'
p350
aS'CCUUAUUUCGAAACGUUGAGGACUGAGAGUUUCGAUUCGGUCAUCAACGACCAGAGGAGUGGGAGCUCAGUGCCGCCUGGUCAUUAUGGGAACGACUUGU'
p351
aS'CCUCGAUGUCAGGAUCUAAGCACAAGGCAUUCUAAACCAGGCUAAUGAUGGAUACGCAGAGUAACAAAGAGUCUCCAUGGAUUUGGUGUCGCUAGGCCUA'
p352
aS'GGCCCGGAUUGAGGGCACGGGUCAUUCAUAAAUGUCAACUAGCUCGCGGCAAUCCUAUGAAACUGCCAGGCAUUUGCAGACUCUGCAUAUCUUGAAAUGA'
p353
aS'CAUUACAAGGGAUAUUAAAACUGGGCGGCAACACUGAAGGUGACGAUGAGUAUUUCAUAGUAGACACAACUCCGCAAAUAGUUUGAGAGUUAAUGAGGAC'
p354
aS'UAACAUUGGAGGACCCCCUCGUAUCGUAAGACACGACUUGUUAGUAGAAAUGAGUUACUAGCCCUCAGCGCUGUUUGCCGAUUAUGCAGUUCUUGUCCGG'
p355
aS'CAUAGAUUAUGGCGCGAAACUGAAUCGAAGCUAAGGUUACUACGGGGGAACAUAUGUCUAUAUAAUACUAGGGGAAGACGAUUCCGAUUUGAAAUAGCAG'
p356
aS'CAUAGUCAGGUUGGCGCAGUUAGAUGGACGUUCUCAAAAGCAGAUUCCACGGUCUUAACUCGACCCAGUUGCCGCUAUCCUCGGGGCGGCCGGCCUCCCU'
p357
aS'UCCCCAAAUACCUUCAUACUGGACGUGCAUGCGCUCGGAGGGCCAUCGGGCGGGAACGACUCCUCUGAAUUCUUAGCUCAUCCAAGCGCACUGACGGAGG'
p358
aS'GGAUUGCCCACAUUGAUUAUUUCCUCGCGAAAGACGUAUGUUCGCUGAAGGAAUAAUCCAAAAUCAAAGUGCUGGCGGUUUUCUAUUCCAUUGGGCAAGU'
p359
aS'CCGGAUCCAAUACGCCAUUGAAGCGUCAACGUAACUGGCUUGAAGAGUUUUGCUGCAACAAAUCAGGAAUCGUUAGAAUGCUGAGCAUCAGCGAUCACAG'
p360
aS'GAAUGAUAGCCAGGCCUCAUUUCACCUUUAGCUGAUAACCAGUGGGAUAAAAACAACGACUAUGAAGGGGAAAGACAUGUGCAACCAACUUCAGCGUGAG'
p361
aS'AUGUUGUAAUAAAGCGGAGGGAGCCAUCCUCGUGGAAGCCACACAGGUGUGGAGCGGGAAUCCGUAUUUACACGUCUUCUACCUGAAUGUGAGUCGCGCC'
p362
aS'UAACUAGUUCUUCAGUCAGCAAAUUUUAUCACUUAGACAUCACGAGAAUAUGGCAACAUGCGUGCUUUUCCAGCCCGAGCAUCAAAGUGUUCCAUGGGAC'
p363
aS'AAUGGGAUUUGCAGACGAAUAACUCCCUUCAAUAAAGGGCCUCCGCGAAUAGGAUUCCUUCUGACUGACAACUGUAUUGUCCUAACACGCCCUCGUCGAC'
p364
aS'UAUGUUAAACGUCACCUAUAAAGGGGUUAAUCGAUGGUAAGGGGUUGAGCAGUACAGCAUAUGUGCGCAACGCGAACUUGCAGAUUCGAAAAAAACGUAU'
p365
aS'GACGAAAGCAUCAAAAUCCUGGUCCGUCAUGUGGGCCCGCUCCUAGACAUACAGAUAGCAACAGUCAAUGCACCUUAGCGAAGUCGAAACGGGCGUACAC'
p366
aS'UCUCCGGCGGUUUGGACCGACUUUGCCCCCCGUACCUGUGGCUGAGGUACGUUAUAUCGCUUACAUUCCUUUCUUCUAUUUAAUUAAAAUAUAACCAGAG'
p367
aS'GAAAAGCUAUCCCCCUAUAAACGCUAAUUCGACAACCAGGGUUUCGGUCAGUGGACUAGACGCUUUAUAGGUCAUCGCAACAUAAGGGAAUAUAGCGUGC'
p368
aS'AGGGGCACUCAGGCCCCAAACAUACGUUGCCCUUCUAGUCAGGGGUCUAACUUCGACUUUAAAGGAGUCGUUGCGAACGUCGCUGUAUUCGGAGACGAUG'
p369
aS'AGAUCGCUAAGGCAUCGAGGACUGUGUGAAACUCGUGGAGACGUCGUAUAAGAUUGGCCUUUAUAACCCUAUCCUUAAGCUGAACGACCAAACCGCUAAU'
p370
aS'CUGCAGAUGUGGCCCUGCGCGGCCCUUAUGACAGCAACGGCAAACAAUGUACACAUCAGGGAACGGUCGGACGCAUAUGCGGAAUGGGAGUACGGAAGUA'
p371
aS'CCCUCACCUCGAAUCAAACCGGUACUAAAGCCAUUCGGUCCGUCCUCUAGACUGCGGUAUCCCCUCGUUAAGUAGGGUCCAUUUCCAAGUACGCGUACGA'
p372
aS'CAUUGAUCGGCGAGUCAAAUGUUAUACGAAGUAGACGAUCCUUUAUCUGUUCCGCGGCUUAGAAAGUUUCGACUAUCUUUAUGUGUAACGACCAUACUGA'
p373
aS'CUUAGCUCAAUAGCAUUAGACUCGCGAUUCUAUGUCCUUCUCAGUUCCAGGUCAAACGCGCGGUACCUCUAGGAAUGCGAUGUGCUCUUAAGGAGUCGCC'
p374
aS'CUGACCUGCACACGCAAGUUCGGUUUUCGCUUUUUUAGCAAGGACGGCUUAGAGAGCCGAUUCCCCUGUCGACAGGUGCGUGGAUAAAACAAAUUUGUCG'
p375
aS'ACCGGCACCUAGGUCUUCAACCGAUCUCGACGCGGACCGGGGAAAUUGUGCUAUCGGUAUUGCGACAGCGUUAAUGAGGGCCCCCACCAUUGCUAAAGUG'
p376
aS'GAGGCAAAGGUCCCCGGUUUUAUGGUCACUUCGUCCGUAUUAUUACUCCGGUAGCCGGAGUUCACUGACGCCAAGGAAGACGGACCCUGCCCUCAGCAAC'
p377
aS'CAUAGAGAGGUCUUGUCAGUCUCCUAAGCUAUUACGACUUCAACGUCCAUUUACAGUUGUGAUUCUCCGCCUAGAAGAGCGUUUAAAUCGUAAACCAGCA'
p378
aS'GAUCCAGUGCCAGAUGUUGCUAUUAACACGUCACCGAUUACGUCACGGGGGUCUAAGUCUGCGCCCCACGUAAGUCGGAACUUACACGCCCUAUCUGCCA'
p379
aS'CCGUUUAGAGGAUAGUGCAAUGAGGUGACCAGAAGUGCAAGGAUAAAGAUACAAGCUUUGGACGCGAGGUGAGCGUUUAAUAAUGGCAGACAGCGUCACG'
p380
aS'UGCAGAAUGGUACUCGGCGCUCUCGCGGGUCGUGCGACCGGGGUAUGAACCAAAUUCACCGGUCCGAGGGAGCUAAGCGUAGGUUCGGAAUUAAGUGAAG'
p381
aS'UCUACCCCUUAUGGGCGGGCGAUGCGGGUUGGCCAAAGGGUACUUAAAUAGUAGGUGUUUGAGUGGUGUUAUAUCUUGAAGUGGUAGGAGGAGGUAAAGG'
p382
aS'GGUGAAAUUUAAGAUGAUUUGAAACGAACGCCGUCCAAGGUGGGUAGCUACAGUUUCUGAUUGUCCAGCACAGCUGCCAGUGAUUUGCGGAAUUUUCAUU'
p383
aS'UAUAAUGCAGUCGUCCGGUAUCGGGGGUCAUUCUCUGUGUCCGGUCCGCGUCUAGUGUGAGAAAGCGGCUGUACCUCUGGAAGUCCGUUUAGCAAUCUCU'
p384
aS'UCCACUCGCUGCAGCAUGACCUGACGACUUGCAGUGGACCCUCUGUCUAUCCGUGAUGCCUCCUUAAAAAUUUAAGUCAGUUUUCAGGGACUCGUAAGGU'
p385
aS'GUUUGUAAUCUUAGUCCAGCUCUGCCAGGAGCCAUUAUUCUGAAAUGCGGCCCUAAUCGGUUCCGUCUAAAUCGCAGGACAACAUCCUGUGCUCAACGGC'
p386
aS'AACAUUCGAGCGUCCUACAACUAGUAGUAGUGUUAUUCACGGUGUUAUAGUACUAGCUGCUGCUCCAGGGAAAAUAGGCAGCCCAAAGGAUUCGCCCCUA'
p387
aS'UUAGCACUGUGUUGGGUAGGCUCGACCCCAUCACAAACGCGUUCCCCGCUCACGGAGCGUACGGAUUAUUGAGAGCGACCGCCGGCAGAAGAUUGCCCCG'
p388
aS'ACACCUUUGUUCGGUCGAAUACCGCCCCAUCGCGAAGAAUCUUACAGCAAUGCAAAGACAGAUCACAAGUGAAUUGGUUCUGCACAGAUACCGGGAUGCC'
p389
aS'UCGCUAUGGAGACUGGCAGCCUAUCCCGCUAGUAUCACAAACGGAAGAAAGCAAAGGUCAAGUUAAUCCGGGCGUUGAGAUACGGGCAAUCAACUCCCCU'
p390
aS'GAACAUCCAAUUUUGGGAUUUAUUCGUCCAACCAUUGUUUCCGCUGGCCGCGAACCCGGCGCGGUCGACUGGAGGUUAUUCAAAUUGAUACACAAUGCCG'
p391
aS'CAACAGUAUAGCUUCACGCUCCAUAGCUUGGGUUGUUCACUUGACGAUGCAAGGUCUUACCACGCCCUAGAGUCGUCAGAGUUUCGUCCCUGAUUCGGUC'
p392
aS'CCCCUCUGGGAUCCUCAGAUGACAAUGCUCCACUGUUAUAAUCAUCAACUGUAUACACUGUCAACCACGUUUGGGCCCAUUCAGACGGUCCUUACGCAUG'
p393
aS'CCGCUAAGCGAUUUGGCGGAUGCGAUACGACAUCUAAUGAUGGGUCAUCAUUAUAUCCGCCAUAGGGCACUUAUUGAGCUGGCCUCGCCACGUCAAUCAA'
p394
aS'AAAAUAGUCAAUCCGAUUAAUGAGAUGGGUGACCGGAAUCACACUGCUAGUCCUCACUGACUGCCGGCGCCUAAAGCCUGGUAGAGAUCGAGCCUACAGC'
p395
aS'UGAAAGUCCAGCUGCCCACCAGUGACUUACUCACUCUCUCACCAGCGUAAAGUGAAUCCAUCUUCACUUGCCGUUAACGUCGCUUCUGGGGCGGAUUAAU'
p396
aS'GCGGGGCAAUUAAGCCAAAGUCUGCCAUGGCAAUGCAGCGUCAUAUCUGCUCCUGCUUUCUGUUGCCGGCUAGAGCAUGACUCUAGCACCCUUAGAUGCG'
p397
aS'CCUUCCCGAUACAUUAUGUCCCCCAUCUCGUUAGUUUGUGACUCAGGUUAGUCGCUGUGAGCGGUGGUUUAUUCAUGUCCAGGAGAGACAUUAAGGAUGC'
p398
aS'UGGAAAGAGACUAAAUGGACAUCUCUCAACGCGGCCCAUUCGUGUUCAAGCCGGGUAGUCGUUCCCUCUUGGAUAAGAGGUUCGCUAGCAACAGCCAGAG'
p399
aS'GAGCUAAGCACGAUGUGUGUCAGUUGUGAACUAAGCUCUAACAAAACUCGACAAAGUUUUUGGUAGAGGAACCGUCCCCCUGUCCGGAAGCCUUGGCAAC'
p400
aS'CCUAAACUUGAGUUUCGUUGCCUCGUCAGGCCCGGGAGUUGUGAAUUCGCUGUGCGAACGGAACAACUGAGCAUGGGCGCGUCCAUUAAGAUUGAAACGG'
p401
aS'CGCCCUCCCUGAUGCUUAUCUGCACGAGCCCUCGUUGACAACAGUCGUAGACCAAUGCUUCUUGCAAAGACCUCCGAUCCCCGUGCUGCCCAGACUGGAC'
p402
aS'GUAAAAGGACAGGUGUGGAGAAGAUCCAGAGGAAGCGGAGUCCGCCUAUUCUCGGGAGAAUACGGAAACCUUAUUGAGUCUUACCAUCGGUGCACGAGGC'
p403
aS'GAAGAGUGAUACAGAUCCGUGUGACCCUAUGGAUUUUUGGCUUAUCGGGAGUAGCCAGAGCUGAUUAGAUGAAUAGUCGGAAAGUCGGAAAAGGAUUCGA'
p404
aS'CUGUGUCAGCGAGGAAACAGCAUCCGUAUAGUCCUACAACAGUAAUCUCGCUGCUCAAGGAAGCCAUAUAGUGGGCAUCAUCAAUCGGUUCGUACAAUUC'
p405
aS'UUCCAGGUACAGGGGCGGAUAGACAUAGAAGUAUCAGUGUUACAUGAUGAGAUGUGUUUACCCAUUGUUCGUAUCGACGCCCAGGAUCUGCACGUUGAGU'
p406
aS'GAUACUCUAUCCCUCAUAACGCGGCCACGUGCUCCAAAUUGUUGCACCUAGCAUGUUAGCACGAUACUCAGCGCUCACGAUCAGGCAGGAUUAGGGAUCC'
p407
aS'CAAACUUGAAUCAUUUCAAACAUGGCUUUUGUCCACGGCAGUGUAGACAUAUAGUAGACUGGUAUAAUGGAAGUAUCCCUGGGUUGAAAGUGGUUAACUC'
p408
aS'UGUGAUUUCUCAGCAGAUUACGAACACCACGAACUCGGUUAGAACUUCCCUCGCUGCGUCAAGAAACUGGAGAUAGUUAUCGACAACCUGCCGGGACAUC'
p409
aS'CUUUUACAAAGGAGCACCGUAAGUUUCGUCGCCAGCGGUUACUAAGGAAAAGGCAGUCAUUGACAUCUUAAUAGAGGGACUCAGCACCAUUAUCAUUCCA'
p410
aS'AAUUAAAAGUCGUAGUAUGGGGUGAUUAGUUGGGGAUGCUUCUGUCAUGUACGCGAAUUUCGAACCUUACGUGUGAAGCGCACUGACAGCUAUGACAGCA'
p411
aS'CUGGUUCCAUGUAACAGAGAACGUACGUGCGCAGAUGUAUACUAGGACCGUGCCGGACCCGACCAAGUAGGCCAGUGACGACUCCGCGGGUAUAAACAAU'
p412
aS'AGGUCCUGAGCCAUAUUAGUAGCUUGAUACUACGGUGUGUUGACGACACGGUCAUACUUAAGCCAUCGGCGUUGCUGCAAAUGUAAGUUUCAGAAGUGCC'
p413
aS'GACCAAAUCGGGUGGUUGAUCGUGUAAGAUUCCCAGAGUGCAUGCUCGUGCAUACUGCCAGUCCGAGGUGUCCCUUAGGUUUCUGGGGAGGAAUUUCGGG'
p414
aS'AGUCGCACCGGCGACUUUCUAAUUGCAGCUCUGCGCUGGUACCCAUUGGACUGGUCGUGCCGUAAUGCUAUCUUCUGCAUCGUACGAGGGCGCGGACUUG'
p415
aS'AACGAUAUGUCGGUGUAUGCAGACCGCUCUCUAUGUACCAGGAUAGGCCCCCGUCCGGGGGGGUGCUAAAGCCAGAUGAUACCAGUACUUCCCGCACCAG'
p416
aS'GCGGCAGACCGGAUAAGUCUAUGCUCAGGGUCCCCAGUAUACCCGAGGAUCGAGUAGCUUUAUUACCGGCGUUCUAGAUAGGCUGUUCGUGUCGCCGACU'
p417
aS'UGUCGGAACAUCUCGAGUUACCGCGCGUGAGAACGUUCUCCUCAGCCUCGCCUGUUGGCGGGAGCAGAGGUUUAGGGGAAUCGAGUAUUACGUAGCUUGC'
p418
aS'GGGCCUAAAAAGGAGCAGAAGUACUCCUCGGGGUAGCCGACUUGGCGCCGCUCUGCUCGUUGUUGUCUCAUUCUAGGAUUACAGUGUGUGUGCCGUCGAA'
p419
aS'CGUUUGAUUUCCCGGUGCCCCACUCCUUGACCGUUCAUUGUUUGCUUACUGUCCGGGAUCCGUCUUGUACUCCGGAGCGCCGAAACAGCACGACCGGAGC'
p420
aS'CGUAUGAUGAGCUAGGUACAGCCCACUAAAACUGGGUACGUCGACAUAGUGUGACAAUUCUAACAUGCUGGUAUGCGCUGGGUCGUGGUGCAUAAGGGGA'
p421
aS'UGAUGUACAUCUUGGGCUCGACGGGUCCCGCCAUGAUCGUCGCUCGGAGGAGCUACGGUUUCACGCCGUUACCGUAAAUCUUCCGGGUCAUGAGAUCUUC'
p422
aS'CGCGAGGAUCACAUUCAAACGGACUUUGGGGGGGUUGCGUGAGAAAGUCUUAAAAGACCAAGAUUUAGAGCUAAUUGUAACACGCACCGGGUCUUCUCUG'
p423
aS'GAUGGGGGCAGAAUCGUUUAGGGUACUCAAUCCUGUUCUGAAUUGUAGAGCUAGAUGCCUUCAGACACCGCACUCAAACGAUACGAAUCGGUCCGGCCGG'
p424
aS'AGGUGGUCGGAUUAUAGUGAAUGAAAGACCGUAACAUAAUGGGUCCGUUAGGAGCUGUCACGCUCGAGCACUCAUGCCUGUUACCCUUCGGUUGCGCGCG'
p425
aS'CCCAACGUCGAGAGCAACCUGUCCUCGCGAUCGCGAGUACAAUUGAUGAAUGUGUCGAAUUUGACGCGGAGAGUUUAAACACAGGUAGGCGUUGUUUUGA'
p426
aS'GAUGCGUUUAGUUCUCCAUGACGCCUUAUGUAAUUUUGCAGAUCAAACGUGUUCGUCCUAGUUAUAUGUAUUUGGGGUCAGGGGGCCAAUUAGACGUCUC'
p427
aS'CAGCCGUACCUUUCGGAAACGGCUUAGCGCCUAUGCCGCUCUCCCUUCCCAUUCACACUGGGUUUACAAGUGAUUCAGAGCGUUCGAUCUAGAGGAUCGG'
p428
aS'GUGAGGGGUAUAGAAUCAUAAUUCAACUCGGCAACGCCAAGUGGUUAUAGGGAGAUGCGAACCCAAAUUUUUCGGGUCCGUACCCAAAUCACUCUGCGAU'
p429
aS'GAUACAUAGAUUCUACCGAGUCCAGCAAAGGAGCUGGCCAGUUCCAAGGAAGGGAACCUGGGACACUGUCUUAGACCGUAUUGGGAGGUUGAUCAACUUA'
p430
aS'UUCACAUCUCAUUUAAUUUUUCCCAACCUCGGUCUGCCUCGACAAUUCACCCGACACUUAAAAGCAUGCUUGACCGUGCACUGGUCGCCGCUCACUGCUC'
p431
aS'UCCUACUCGGGGCAUAUUCGACGGUAUGUGUGCCUGUUGGGACAAGACGAACUUUGUCAUUGACUAGGAUCUCCGCACUCUUUUAUCCUUGCGGGAAAUG'
p432
aS'AAGGAAAGCCGAUUUAAAAAGCGUUGACAUGCAGGCAUGGGAGUGAAUUUCGUGUCCUUCUAGGCAUCACACGUUACCUUCCUCGGUAGAGCUGGUCAAC'
p433
aS'AGCAUGGAAGUCGCCUACCGGACCUCGACGCAGAGGCUAACUCCCUAGAUACUGUAAGAUUCUCGCCGCAUACCUUAGGAGACUUGACAGACGAUGGUUU'
p434
aS'ACCACAUUCGCCCGCAGAGUUCCGUUAAGUUUUACUUUGACCUAUUGCGCUGAGGUUAGCGCGGAGACUGACUCAGGUAAGGCCAUUUUAACUGACCUUC'
p435
aS'UGUUACUCUGGCCAGCGAAAUGUCGAUUGUCGCGCACGGCUAACAGGGAGGCGUCUCAAUUGGGACUAUCGAAGACUGCCCAAUUCAUCUCAGGAACCUG'
p436
aS'CAGGUUUAACAACCUAGUGCACCGCAAGGAAGGAUCUGCACCAUCACUCUGGAAUCUUUCGGGGCUUCUUCUGAUAAAGCAAUACGACUUGCGGUCCAAA'
p437
aS'GCUCUAGUUACGGCCGGAGCCUCGAUGUUAAAAAAUACGGGUGGCCAGAGGUAUACUCCAGAGAAUGGCACUUUCUAGUCGUAUAGAGGGCCGUUGCCUG'
p438
aS'UAGAUCGCUUUUGAGCUUCUACGUAUCUCUGCAGUCUUUUGACAAUCAAGGUAACCCCAGGAUUUAGCGUCGUAGACAAAGGACAUCCUGCCUGCCUCGG'
p439
aS'ACCCCCUAAUGCCAAGCCUACAUCCGUUUGGCCGCUUCGGUGCGGAAUUCCUAACAGAUGGGCACUGUGUUAUCGCCUCGUUAAUGCUUCUUCUAAGACC'
p440
aS'CGCUUGCGAAUCGCUGAGAAUCUGUCUCCAAUUCAACCGGAAAAGCUUGCAACCACAAUUUGUCGCCCCACUGUGAGUAACGCUACCACAAAGGUAUUUC'
p441
aS'GCACUAGCGAAAGCACGCUGACCACGGCGUUUUGAAGGAUAAUGGAAGUCGGUGGCGCGGCUUGGAUAGUGUCCGUCAGGUUUGUGAAAAUUAGUCUUUC'
p442
aS'GGAGACCGGUGGCUCCCACGUCGGCCAACAGAUCGUCGUUUUUGCCCUACCCUAGCCAGGCGGGGUGACCCUGGAUCAGAACAUAUCUCUCUCGACGUCU'
p443
aS'AGAAACAGUGCACGUGUGCUUGCGCGCACCUGUAUUCUGACGUGGUGUAGUGCACAUUAUGCGUCUCACGACCCCCGUUUAUACCCCCGACCUUGGGGGG'
p444
aS'CGGACGCCUAAUUUCUGGGAUUGAAUGCGGUUAUCCAUCUAGCACCUCGCCUACUAGAUGUGGUCCAUCUCAUGGCUUCCCCCCCAGUUAUGUCGGGGCG'
p445
aS'CUAUCACGUCUAGUCCGGCGACCAUCUCGGUUUUGACUUUCUCAGCCAGGGAGCAUAUACGCGACAAACGCAGACUGAGAUGUCAUACCCUGACCACUGA'
p446
aS'AUGCUAUAUCUGGUCAGAGCCUCGCAGACGCUAUCCUUCUACUGUGCGACUGACAUUCUGAAUUUACACUGGUGACUACGGUCCUUUGGAUGCCGGAACA'
p447
aS'GGCUUAACAUCGGCCAUUGCUGAUUGCAUCAAGGUCGAUCCAGUCGAUUGACGCCAAUAGGCACCCCCAUGGGAUCUCGCUUGUCCUGAUGCGGUUUAGU'
p448
aS'GAGGAGCGUCCCCAGGUCCCUUCCUGGCUUACCCGUGGGUUCAGUCCAGGUCCCACGCGAGCCCUGCAUGGAUCCCGAACUCCUCACGGGCAGAAAAGGC'
p449
aS'GAAGGCUUUGCUUGUUCCGUUCCGCAAGAAACUACCGGGUCACCUCCGAUGCGUCGUGACAUUUUAUGAUCGCUGCCUACACGACUGGUUUGCCAAGAUG'
p450
aS'CGAACCCCACAGGGGCGCUUUUCCUGCAGCGCUAAAGGUAAUGGGUGCCACGGGGGACGUUGGAAGAUGACAGUGCAUACUUGAUGUUGCGGCGAGGGAA'
p451
aS'ACUAGAAAACAUAACUUGCGCCGCCCGAGCUCUCCCACCACUCCUUUAGUCUGCAUUCGCGUUAGCCAUAAGAUGUAGGACAUAGUGCCACCCUGGGAUU'
p452
aS'CCUUUAUUCUAUCCGUAAAGGCUUCACUAACCGAACAGGCACGCCGUGGUCUCUGUCGUGAUGGGGAUAUAAACCCAAACCAAGAGUAUCUGAUGGGUGA'
p453
aS'UGUGGAACGUUCAACGCCGGCGGGGCUCCUGGCCCGAGAGACCAUCCAGGCCAUAGGUUAAACGCAGAUAGGCCCGCCUGAUACGAUUCAAUGUGUGCUC'
p454
aS'GCGUCCGACAUAGUCUGAGGACGGUGCCACCUAUUUCGGGGGGAGUGUACGCGCCUCUACAGAUAUCCGGCACAUGGGACAAUUCUGUCCGGGGGCAACU'
p455
aS'CUUAUUGAGUGACUCAAUAACCUAUCUAAUUUUAUAUGUCCAAGCAUAUGUUCGAUACGUUGUGGGUCCGAUGCCUACACCUACUUAAGGGAAAGUUUGG'
p456
aS'UGCAACUUGUUAGUCGGAGAUUACUUUGCUCUGAGUGGAUGUACUCAAGUUACGUCAUAAUCUCACCCGUGCAGACGGACAGUCUCACACCCUAAGCGAG'
p457
aS'GCCGACUACCUACAUUUUAAAGGGCACCGGACCUUUAGUCAUGAUUCGUCUGGAAGAUCAGAGCCUUUUCAAUGGGCCAGGAACGAUGUCCGUCAUGUUC'
p458
aS'AUCCACUCAUUUCUUUAUAGGUCUGGCACUUAAAAGAGUAGACGGCUCGUCAAAUCAUCUUUGAGCGGCGUCCUGAGCUUCCGUUGUAUAAGAAGGCCUA'
p459
aS'GCCCCGCACGUCUGGGACUCUCACGACUUAAAGUAUCAUAAAUACGGGGCCUAGUAGUCCUACAAAAAGAUUUGAGCGGAAUCAUAGUUGGUCGCUACGC'
p460
aS'CGCCGCAGACCGGUGGGCUGAUAAAGCAGCUGUUAACCAAGUGGGAAUAUACAACUCGAAGAAUUACUUUCAAUGGGUAUUCAUUCGUAACUGGCCAGAG'
p461
aS'ACGCAGUUUAGAACCCGGAUCUGGUACCCCUGCGUUCUCAUGUUCGUUUGGUAUGAAUGGUGAGACGACAAUAACCAAUCUUCCUGUCCAUUGGUGGUUC'
p462
aS'AACGUGUGGCAGCCUGACCUUUCACCUAGGGCAACUGCCCGAUGGAUUGUUACGAAACCCCCACCCGCGAGUGCAGCCCUGUACGUACUCGUUGGCACUU'
p463
aS'AAACAGGUGCUUGGUAUUGAGAUAUCAACGCUUGCGUCUAUUAGCUAGCUUUGUUAUGCUAACUGCACUAACACUGACCAACAAUCAAGCUCUGUGGCAA'
p464
aS'AGGUUAAUUACGUGCGGAGGUACUGCUAUUGUAGUGUUACGAAGCGGAAACAGAUGUGAGAGAUAUUCUCUACACAAGAUAGGAGGGUUACUAAAAGUCG'
p465
aS'GAGCGUCUCCGUGUAGACCACUCGACGCCAGUCUAGGGUGAGGUCACGACAACAAGGACCACAAUGCUGAUAAGCAGCGUAGGGGGCAAAAUAUAUUGUA'
p466
aS'CAUCGCGAUUGAGUGUAAUAAACGCAGCCGGCAAAUGCACAAGAGGGGUGAUGUUGCGUCAUUUCAUCAGACUUUGUGUUGGGCGCUAAGGAUGGGGCUG'
p467
aS'UAGCCUUAGGCUACACGCGUUCAAAGGAGAAAGUUAACGCACUAGUAUGGGUGCUUUAACCUCUCGGGCUCCUAGUUUAAACACGUCUGCCCCUCGAGGG'
p468
aS'AAUUGCACCGGGACCGUUAAUUCUUACGUGCUUACUGACCGCGGCAGUUCAUAUAGCUACGAAUCCGGAUUUGGGGGCCAAUGUCUCUGUCCUGUUGUUA'
p469
aS'AGAAUGAGAGUCUGCAUAAUCGUCGCACCCGUCCGUGUCGAACGUGGUAAAGCCACGGUUCCCCGGAAGGUAUAAUUGACCUAUUACUAUUUCCUAUAAU'
p470
aS'UAUCCGUUGCCCCCGCGUGAUUAUUGCCCGAAGCUCCCGUUAAGCCCAGGUCUGAACACGGAGUAGGGACAAGACUUCGGAAGUAAGAUCGGAAGGGACG'
p471
aS'CUAAAGCCUGUUAUCAAAACACCGGUCCUUCCGUCCCUCGGAGCGCACGAUACAUGAUUACAGAUUACGACGUCGGGUCAGUUAUGAGGUCGAACUAGUA'
p472
aS'GCUGCGGUCGGAGAACGAUACUGCUAUGUUACCACAGCAGUGCAUGUACAGUUGCAUGUACACGCUAAGGUGACACUACCGGGAGAGUUUUAUACCCGCC'
p473
aS'GCCUCACUUGAAAAGGAUUUGCACUCGAAGCUUGCGCCUGCACUACGUUUAGUGCGCCCGAUUUGUAGACUUCUGAGCCAUGUACACUAAACAAUGCUCC'
p474
aS'UUGUAGCUUCGGUAGAUCGGGUAACCCAGGCAGGACACACGGUCAUGAAUUGAAUUAAGUAGGCUCUGACAUGUGAGGGCACCAAAUGAUCAAGUGGUUC'
p475
aS'UGUCUGCACCCGGGGUUCAGGGCACAAAUGGUGGGACUGGUCCUUUGGCGUGGGAGCAUGUCUUGCAGGCACCUUAAUUAAGUGCAGCUUGAUCGCGUAA'
p476
aS'AUUUUACAGUGUGAUGAUGCAUAUUUGAAGUUAAUGAUUCUUGAUCACCGGGGUCAGGAAUUAGCAUCCCGAUUGUUUGCCGGACCGAGAUAUGCCUAUA'
p477
aS'AGCUGACCGACGAGAGUGCAGCAUGGUGUGCUCUUUCACCCCCUCAUUCCCUUAGUUGUUUGACAAGAAACGGGGUUAAUCGAACUGAUCGUGUGGUGUA'
p478
aS'CGCGUGGCAAGAACUGUCCAAACCAAUCCGUGCAGACCUACACUGAUUCCGAAAUUUUUCUCCCCGCUCGGUUGCCUUGACAGCCUUAUCUGGUGCGAGG'
p479
aS'CACCUAGCCCACGUUAAGUCCCCUUCGCCUCAAGCUCUACGAUGUGAUUGUCUCACUCUAUGUAGGACUGUUAGACUUUCUACUCAGUGCUCAAAAACCC'
p480
aS'AUCGGGGGAUUUAAAAGGGGAUCCCGCACAAAGUGUUUGAGCUCAACAUAGCCGCGAAUGCAAAAGAUUCAGAUUGUCCUAUUAAAUUCUCGUUCAUGCA'
p481
aS'CCCCGCCUCACGUUGCCAUCUUCUACGGAGCGAGGACGCACCAGGGCUAAAGACAUGGCAAUUGAAGUUGUCUGGUUAGUAUCGUUGCGCUCGAUGAAGU'
p482
aS'GCGUCAACUAUGCCAUGUAUGGAAAAUUCGAGUCUCUCCACCUCCCUCUAAUGUAGAGCCUAUUGUCCAGCACGUGGGCCUCAAAUGUCAUGUAUUCUUG'
p483
aS'UUUCGAAUGCCUUUAACAGUACGAAUCGAGUUGUUCUCCAGUAGGAGUUCACGUUUAGAAUCGUAACGCCCGCAUUGUGGGCGAUGAAUUACUUCUCGGA'
p484
aS'GGUUACGCGCGAUGAAGGACAUCGCUUGUUUUCCAUGUGGUUUCAUGCACUAUCAGAGUAUAACGCAGUAAGAAGGUGCGUGCAUGUCAGCGCAUUACUA'
p485
aS'CGGAUCGUCUACCCGUUUGGUAAGAGCACCGCUUGCGUGUGUGUCUAUCAUGUGAGGGCAGUCCCUAACGAGAAAAAGGGUUACGGGAAGAUGAGGAAUG'
p486
aS'UGAAUGAAGCACCUACUUUACAUUUGUUCGGGAGUGUAAGACCAAGUAGCAUCAGAGUAACGGUUGUUCAUUCGAGAACAGACUUGCGGCGCCAGUGGUU'
p487
aS'CGAGACAUAGCUGAGCUCUCGCUGGAUAAGUACCUGGCUGAAUCAAUUCUCUGAAUCUCGCGUUACAUCGGCAUAUACCUGUUCGUGCCGUAUUACCUAC'
p488
aS'GUAUGUGACUUUGUAACGAACAGGUCUGUUUCUACUAGAUUCCGAUUGGACUGGUUUACCCCAAUGGACGGUGACCACGAUUUGUAACCCAGCCAUGGUC'
p489
aS'UGAACGACACUUAACCCACCGCAGGCGAUUGCGCCCAUCAUGUUAUUUGAGCUUGGAACCGAUACUUACCCCCAAACAGUGCACCAUUUCCUGAGUUCAU'
p490
aS'CGGAGUUAUGUAUACCAGCGAAUAAGAAACGGUACGGUCCGGUAAGGAAUGUGGCGGGUCACCAGAGAGCCGUAUUGGCAGACGCCCUUUCUCUCGGGAG'
p491
aS'CUAACGCAAUAAAGCGGAUGUGUUCUUAGUGAUAGCUUACUUGUUGGGACGUCCUCGACACAUAGGUGCAAUACUCUCCGCUGAUCAAUGUCCCAGAGUA'
p492
aS'GGACGAGUCCUAAGUAGUCCGAGGACUCACACAAUCGACACUCUGUCUAGGGUGCGGCGUCCGUAUUCCUACAAUUGGUUGAGUAUGAAUUUCUCAGUAC'
p493
aS'CGAUAGAGCCCUGCUCCUAUGUGUCCGCCAGGGUAAGAAUCAUUGCUCCUCGGCCCCUAUUUCCCAUCGGGAGCUUGUGGGCGUUAUGCUGUAUUAGAUU'
p494
aS'CCUCAGUAAGUUGCUGUGUCGAACCCGAAUUUGUCAUGUCUUAUGGAAACUCUACAGGAUUUCAGCGACUCGUAUGAGUUAAUUUCAGUCUUUCAUAUGU'
p495
aS'AGUAUGUGGGGCGGCCUAGCCCUCCUCACGUUUGGCGACAAGGGCGCUGUAGGCCCAAGUGUGUUACAACCUGCUGCUACCCCGCUGAUUAGAUGAGUCG'
p496
aS'UGUGCUGUCCCGGGUCUGGUAAUCUUAGAGAGUUUAAAGAAACGAGGCCCAUAUGCCUAGGAUGGGGACGAAGGAGAAAAACUGCGUAUAACCUAAUGAC'
p497
aS'UACGCCGGGUCAGCCGGAUUCGGAGCAGUUAUUACCAUCUCCCGAUCAAGCGAGACUCAAUACAUUUUUCGCUGCUCUCCCAGACGUCGGCGUGACCACA'
p498
aS'UAUAGGAAUUACGAGAUGGGGAUUUGGUCUAUGUAACUUCACUGUGGGAAUGUGUUGAGUUCCAUGCUAAACAAUGCAUGGGUCCGGGUAGAAUGAAAUG'
p499
aS'CAGUCCUCCAAAAACCCUAGUUCCCUUAAGUUGACCCAGCAAAGGUGAACCAACGUGCUAUUCAGCUUAUCUCCUCUUAGCCUUUUCCAUUCAGGGGCAU'
p500
aS'AGGGUGGCACAAAAAGCGUCAUUUUGGGCGGAAUGGUGUAGGGGAGGACUGGCCUGUUUGGGGUAAUGUGGGGCCGGUUCGAUAGGGCUUCAAGAACUGU'
p501
aS'AAAUCCUCACACCAAUUAGGCGCGGCCCACCACGUUGUUAACUGGAGAGCGACCCAAGGGGGCCUUCGAGAUGAAAGCUUAGCGCCGCCACCACAAGGGG'
p502
aS'GCGAGUCCUUUGGGACGAUCAAAAGAUAUAGCUUUUACCGGUUCACUACCCAGGCGCCAGGAUGGAUGGGGGGCGAUCAUAUAAGCUCUUACGAAAGGAU'
p503
aS'CGAGAGCUACAUUCAAUGCGGGGUGUGAACCGCGUGCCCGGCGUCUGAUAUGAGGGCGAGAACCGGGCGGGGCCUAAUCCAACAGUCCUCUGCUACGUAG'
p504
aS'GAAAAUGCACCACUUCACAUGGUCGUCCGAUCGCUACACCAUAUGGCAUCAGACCAUCUUCGAUUGAUCCCACCAAACCUCAUAAUGCAAAGUGCUGGUG'
p505
aS'CGGGACGGACGCUGGAGGAAGUAUCGCUUAGCCAUAAAUACCUGAGCACGUCGUCUUAGCGUCGCGGGGUGACUGCUGCCACCUUUCUCUAAUGUUCAAA'
p506
aS'AUUAGCCGAUUAGAGGUCUCUGUGAGGGUCCUGAAUGUGCUGUUGCCACUAAUUUUAUGAUACGAGGCACCUAACGUUUCCUCACUCCGCGCUGUCUUUA'
p507
aS'UCGACUCCAUCACCGACCACUGUCCUUCUUAGUGCGCGCACUCGCAUUGGAAGUCGCAUUGGAUCGCCGCCGCCACUUAAACGCUCGCGGAGAGACCCGG'
p508
aS'UUGUCUCCAGCUAUGGGACCGCCUCACGAAUAUCUCUCCUCUAAAGCCAGGGCAGCGGCUCACGCCCGAGGAAUUCUAAGUCCAGGAGAGACUCGCACGU'
p509
aS'CCGAGUAUAGGUACAUUGAUUUCAACUCUCCCCUGUUCGCGGGGCCGCGACACUACCGCUUGAAUAGCCCAGGACUCGGUUGGCGAGUCAAUUAGGGGGU'
p510
aS'UAUGUUGGGUAUUAGCCCCACCGCAGGGCCUCCCGUCCGGUAAUGUGGUCUAGGAUGAAGAUCACGUACUGCGGAAAGAGAUUUGUAAGUUUCUAUCGUG'
p511
aS'GCCUGAGAAUUCCGAUAUUUUAUAUCUGCGCCUUUAAGGGUGACUUAAUGAGCCACCCCCAAGACGUUACAGCAGCGUACGGAUAGAUUUAAACGUUGUG'
p512
aS'GAGUCAAAAGUCAUUGCCUACGAUUUACUAACCAAUCGGCAUUUAACGCUGCGGCUGGUCACAACCAUCACGACGUCACUGUCAUUUCGUAUUCAGAGAA'
p513
aS'UCCUGCAGCAGAGGCCCCUCAACUGGUGCCAACAUCUUUGGUGGCGGCUGUACGCCCCCCUUCUAAGAGUAUAACGUUCCCUUGCCCUAUCCAGCCCGAU'
p514
aS'GGCACAUGUUGCACCUUUUUCUCUACAAGGAACUGUAAAUGUUCUGCGGCAUAUCAGCCGCUUGGUGGAUCUAGUGGGGACCCAAUCUUAAAUUUCCGGA'
p515
aS'ACGUUCACGUGUCAUUCCUACAGAUCCGCCAGAACAGUCGUCAGCUUCAAUGCUGCCGUGGCGUGGAGGUACGGAGUGGUCCUUCUCCGGGUGACGGAUA'
p516
aS'CUAGAAGGAGUACGUAUGCUAGACGUUUACUGAAGUUACCCACGUGAAGCCUUGUAGGACUCUGAAGCAGGUACAGGAGUAAUGUCCCGUUGGGACUGCA'
p517
aS'UUGGUGUGUCGGUUGGUGAGACUUCACACCUAUAGCUUAACGGAUAACUCUUUUUAAUAGCUCACCCAGGACGUGGUCGUAGAAUUGACUUGUAAUGUGU'
p518
aS'GGAGCGUGCCCGGUUAUGGCCGCAGUACAAGCCCAAGAUAUCUGGAGAAUCUUUACUCCAGACCAGUCGACCCAUGACGAGCACAACAGAGCGCACAUGA'
p519
aS'AGAUUGGGUCACAUGUGCAAGGCGAACACCUUAACCAUUUAAACCGGGUUUACCCACACUCAGUUAGCACAGUGUUCCCCUGCAAUCAGGGAUCCACAGA'
p520
aS'CCACGACAGCAUAACUGUCCGAUUUAAUUGCGAACUAGCAACGAAGCACGUAGCGAAGCAGCGUCCAAUCCUCACACGUGAAUUGGCAGACAAUAACCGC'
p521
aS'UCGGACUCUCGAACCUUCCGACUAUAUAGCGCCACUGCGGGGACUUUACACAACACACAUUUAAGUACGGAAUUUUCUUCAUUCUUAGGCAGUGGAUGCA'
p522
aS'GCAAAUCGUUGCGUUACCACAACAUGCCCCAACUCUGAGGCUUAGUUUCGCGUGUAAUCGACCCCCGACACGUGCUACAUCGUCGGCCCUUCGAGAUUAC'
p523
aS'CCGCCCCGGUGGCAGGAGCGACAUUCUUGGAUGCGGCUAGAAACUGCUGAGCCAGGACCAUGCUUUUUCUGAGUCCUUCGACAAGAAGUUAUCUGCAACU'
p524
aS'GGACGCCCUGUGUGUGUCUUGGUGAACAGUUGACGAGCAGGCAUGACUUGACGCCUCUCGUCUAACGAUGAAGCCGCGCAGCGCGAUGCGCCUGCAAACU'
p525
aS'UGCAGCCUCCGUGCCACCGGCCUUUUCUAACUUCCUCCCGUCCGUUAGUGUGUGGAAAAGUAUUAUAGACAGGAUUCUUCGUCCACGAAAAUCCUGGAGC'
p526
aS'UCGAAGGGAUUGCACGACCCACGUACCACUUAUCAAUAUGUGGAAGUCAGUACAGAUUCAAAGGCAAAACAAUCUACAUUUGCCCAAAGGUCACAGGGAC'
p527
aS'UCAUGCACCCACUAAGGGGGACGGCCAGCUCGCUCAAUCGUUCGCGAACUAAAACUAACAAAUGCUUCGCGGCGGACUCUCCCCGCCAUACUCAUUGAAA'
p528
aS'GUAGGUACCUUGAGGAACGAUUCAUCGACAGGGUGUCUUAGCGUUCAAGGCAUAGGUGCCAAGCCGCUGUCUAUUAUAUCGGGUGCAACUUAUCACGAUA'
p529
aS'UACAAUGACCUGUCCGAAAGGCCUCCCUGAGUCCCCCCGUAGUUUAGCCAUGUCAACGGGAGGUGGGCGAUCGCUGCGGUUUAGGCAACGUUCUCACUCG'
p530
aS'GAACUACGGCGUGAGUAAAGCUCUUCACCUUAUGACACGUCCACUCAUAAAGCUUCAGCUCUCAGUUCACCCAAAUUGGCAACCUGGGGGCGAUGCACUU'
p531
aS'ACAGAUUGAAAUAGACAGAUCAUUGUGUCAAACCGUCACCGCCGAGAUUCUGCCCUAAACACACAUUGGCCCCAUUUUGGGCCACUUCGCCGGACUUGCG'
p532
aS'GACUAAACAUCCAGUAUCGGUCGUAACCCAUGACUUGAUGUAUUCAACUCAAAGCAUGCUUAUGUCUGUGCAAGGAGUAGGCGGACUCAGCAUGUAAUGU'
p533
aS'CCAUGUAAACCUGCAUUGGUUUCCCGUAUGGUACACGAGUGUAUGUAUCCUAUAAUGUGCAAUGUACCGUUAUAAGUGGGCCGAGUAGGAAGGCUUCUGG'
p534
aS'AAGCCCAGAGAAAUUACGAUACUUCAACUGUGAUCGUUUACGCUCCAGCAGUUUGACACCCGCCCGGCUUUUUUUUAGACGGAACAGGGAGCUUAUUAUA'
p535
aS'AGAUGAAUGGUAAGUCCACACCAAUAGAGGGUAUCCAGCGGACAUUGAUGAAGAAUAGCACUUAGACGAUCAGCAGGUGCACUAAAACGGCCAAUGCCGU'
p536
aS'UACAGAUGGGGUAUUCUAGGUUGAAAAAUUUUUGCGGGUACAAGACAUUUACCCGCAUGGGAGAUUCUUUGGUUUUUGCGCUUGAAAUCUUCCAUUGCAU'
p537
aS'GUUACCAUAAGAAAUGGCCGACGUUUCCGAUCUAGUUAGGCAAGGCCUUGUUGCAGGUAGUGUAUCGGUCUCACUCGCCUGCUAUAACACGCGUGCUAAA'
p538
aS'UCCGUCGAGGGGCGAACGUGUAACGGGACGUACGAAGAUGAGAUAGCGUAGCAACGUGUCCGCACAGUCCUAAACUAGCGAAUCGACAUGUUCUCGUACA'
p539
aS'GUUAUCUCAUUUGCUACCCACAAAAUACACGACUAUUCGCCUGCUCCUCGAAUUUCUCUAGCACAAAAGCCUAGAGGCGUACCGCGUCCGUUCGAGCCCA'
p540
aS'UGUCAUUGACUUAGGCUAUUUUCGUAGUUACCAUUCUAGAUCCAAUCGCCAGGUAUAACUAUAUGGGUCACUCCGUACACGACAGGUUACAUUCAUCGAU'
p541
aS'UAAACCUUUCACCGCCUUUCGUGUCACUGACCUUGUAUCCAAGACUAUGAGUUCAGGGAUCCCUAGGGGCGUAGCACCCGACUAGGUACGAGCAGCUGCC'
p542
aS'GGACGUCUCAACCCAUCAAGCUAAUGCCCUGUAGUAGUUGGUCUACUCCUGUGGCAAAUGACCCACACUAUGAGCAUAUACCGGACGUUAUUGGCGGGGU'
p543
aS'ACAGAGUUAAGAAGAGAGAAAACGGUUCGACUCCACAAAUUUCGACACGUGGUUGUGUUCUUUAAGCAGACACGCCGUUGCUAUGCGGGACAAAAUCCCG'
p544
aS'UCUCUGCCUAAUUGUAAAACGAUUCGCGGGUUGAGCAUCUGCAAAUAUUCAGUAGGUCAGCUGAUAAUCAAGGAAUGCUCUACACCAUCCCCGUUAAACA'
p545
aS'GGACGAUGGAAACACGGACUUCAUACUUGAGACGAGUAUGUCUCUGAUUGGAGAUUACACGUUUAAAGCGAAUUUACUAAUUAGUUAACAAGCUCGGAAU'
p546
aS'CACUGCCGGAGGUCCUUCGGCUCGCUGGGUAACCGCGAUCCACCACCAAUAAGAGCCGAACAUUUUGCCUGCGACCAUCAGUAUCUAUGGCAACCACCCG'
p547
aS'GCCUGGAAUCCGACACCAGUCGACCGCAGUGUUGCAACUGUCUGUACGAUUUAGCUAUAACCAAGGUGCGUCUCACGUGUGGUAACUUCUGUCCGGCCGG'
p548
aS'UUUAAUGCUUCCGCGAGACAAUGGCUUGCGAGCUACAUUGAGAACGAUGGAGCUGGCGAGCAUAGUCCCUGACAGUGGGCAACCUUCCGCAGCUACUGGA'
p549
aS'CGGAGGGGGUAUGCACCUUGUGUUCUGGACGCGGGCUCCAGUACCCGUCUGCGCGCCGCACAGAUUACAGCAUCAUUCGUAGAGAACGACCCAUGCCUGG'
p550
aS'CAAUCCGGGAGAUGAACGGAGUCGAUAGCUUCUUUAAACGCAAGCAGGCGAGAUUGGUGCUAAGGUACCUAAUUGAGCACUGCAAGCGGCGCAAAAAGGC'
p551
aS'UAUGUCACUUCUACCUCUGUAAAAAAACACGCGCCUAACUUACUACCCUAGAAUCUCCGGCCUCCUCGCAUCUCUAUGACUUCACCGCAAAGGAUAUCGA'
p552
aS'AUAGCCUAGAAGCUUAAACACGAGAAUUUCAGAGGACGUAUCGUAAGAUAGGACUUAACAGAGCCCAGUGACCAUUGUCUGCGCAAUAUAUUCCACCGCU'
p553
aS'UUACCCAGGGCAGUAUUAGUUGCCAUUGAGUAUUGCGUGAUUAAGUCGGUCCAUGAAUCCUUAUUCUAGCGUUUACCCGGUGCUAUACUCGGGCUCGCUC'
p554
aS'UGGCAAUAUCACUUCACCAUACAUUGGCACUACUGAAUGGGGGUCUUUUGCAAAACGGUUGGUGAUCGGGCCCCAAAGGUAUAGACCAGCCGGACUGCAA'
p555
aS'UUGGACUAAACUCCAAGCCCUCGAAUAAAGACGUGAGCGUCGUUAGUCGGCUUCGAAGAAUCCCUAGCGGACAGGGUUCAUCUUUGAAUCGUGUAAUGUC'
p556
aS'UUGACGGCUAGGCUCUGUGACCAACUCUAGUCAUCAUGGCCAGCCUGGACGCCGCCCUGGAGAUUUCACAACUCACGCUCACCUCUUCGUAUCGCGUACG'
p557
aS'CUCAGCGGCAGGACUCUCACAUCCCGCGAGCACUUGGUCGCACUAAAAACUGCCACUCCGGGGACCAAUGCACCCGUCUCGCUGUCUGAUCUGUUGUCCA'
p558
aS'UCGAAUGCAAGCGUUAGGUGUCAUAUUUUCCGACGGUUGCCAGGGUUAUACCGGUAGGCCUUAGGUAUCAAGGAUACAUCCAGCAGGUAGCGAUGUACAA'
p559
aS'GGGGCAUUCUAGACCUGCUAAGGCGGUAUAUAUCAGUGAGCGACAGGCAACAUGUUUGGAUGCAGGAGACUAUCGCUCCAUAUUUAACAUUAAGUGGACG'
p560
aS'ACCUAGAUAUCUUACGCGAUGGGAUGAAUGUACAAACAAGAAGAUAGUGAUUUUUGACACCAGUAAAUUGAAUAUGUUCGCCGACCUUUCUCAUAGUAUC'
p561
aS'CCAGCAGGCUUCUAUUAUGAACCUGACCUGGACACCUGCGAGCUUUUAUUAUUUGCACCCCUCUAAAUGACGUCAAUUCGCCAGCAUUUAGCUACCUUCU'
p562
aS'ACCACUGGAACUUCUAACGGCCUCCUUCAAUUUAGUUAAGACCAAUUGACUCAAUAUUCAGCACUGGACUGCGACGCUUAUUAGAAAGUUGCAGCUUGCU'
p563
aS'CUGCGUUACCUCCUUGGUCCACGCAAGGCCGUGACCGCGGCCUUUGUAGUGAGUACCUUCUUCUGCACGAGCAACCUAAAGGGGCUAAUAUUUGGUUCUA'
p564
aS'AGUAGUGUUUCUGAAUAUAAGAAUGGAUGACCAGUCACCUCGCCCAUGCGAAGCUCAUUUCAAUAUAAGUGGUAACUACGUCACUACAGUCAUAAAAGCG'
p565
aS'CGCACUUGGUGUUCGACUUAAACCAGUCUCCAAUAAAGAUGCGUCUGUCUCUCCAAAUUGAUGAGGACCAGCGGUAACACAAAGUGAGCAUGACGUGCAC'
p566
aS'CCUGAUACACACUCACAAUACAUCGCCAGGAGUUUGCGGGACAUAGGGACGGUGAAGGUCUGUGGCACCAAUGUUCGUCAACUCUACCCGACCCACGAAC'
p567
aS'AGCUUGAAGUGGUACACAGCGGUUUGUAGUUCAUUCGCUCAGUACUUUCAUACGAAAAGUACUGGGGAAACACCUGAUCGAAAUCCCUUCUGCAAGAAAU'
p568
aS'CUGGCAUUGGUCUGCCGUUGCUGACCAUAGUGUGCGAUGGGGGUCCAAACCUGCCACGAGAGAGGGAGAUAGGCUGCUACGGACCGACGUGCCCACAUGU'
p569
aS'CGUACUCUGUGGCCACUGCACGGCAGGAAUACGGACUAGCGUAAUGCAGACUUUGAGCAAAUAGCAUACCCCUGGCGCGGAAAAAGACGGGCCUACGGUU'
p570
aS'UGAGCAUGCAAGCACGUGUAUUAGUCUGCGGCCUUCACUGCGCGCUAACUAUGGGGCCCCACUAUCAGCACACCGUCUCGGCUCUUGGCUGUCAUAUACA'
p571
aS'AACGUCUCACCCCCCCUCCCCCCAUUAUAGCUUGACGUGCGAUUAUUCUAUGUUACGCUAGCUGUCUGGCGUAGUUCUUUCUGUGCGCCGGACCGGACCG'
p572
aS'UUCAACCGUUGCAGUGUGUGAUAGAUUUGCGUGGAGCGUAGACAUCUUGGUCGCUACGAGAGGCCCCAGGACAUCUGGGGAAGUCAACCUUGUCCUAGGA'
p573
aS'GCUCCCCGGUAUACAACAAGAUUAGAAGUGCGUCAGAAGUCGUAUCCCGAGCCAUGGUUGUAGCUUUAAUGGAACGGUUGCAUUCUAUCGGUCCGGAACA'
p574
aS'GGGCUUAUUCACUUUGGCGCGUUAGGCUGGGACGGGUCCGUGGGUUCCAAUGACAGAAACGUGCUGCUGACUGUAUGAUUACGAUGCUAUCGACCAUAGG'
p575
aS'AAGAUUCUCGAUUGUGGCCUCUAGAGCACUUACAGCCCCCAUUACAUUACCUAGUCGUAAGUCACUAGAACUUCAGUGCCAUAACUUCGUUAUACUAUGC'
p576
aS'UCAGGCUUACCACAAGUUCGAGGCCCGUUUGUGCUGUAUGAGGUUAUCGUCCACUCACCUUAAUAUCCAGCCAAACGUACAGUCUUAGAUGCUUUGCCUC'
p577
aS'CGGGUCCCAGCAUGACCGGGGCAGUUGCCCGCUAGUCGUGCUAGGUGGAUUGGAUUUCGAUCGGUCGAGACCCACAGCCACUAGAGUUCAUCGAGAGACG'
p578
aS'AUUUGCCACAAGGGAAGCAAGAAACUGCUUAGCAUCGGGUCAGGGACGGAUGAGGCCGUUGGGGUGUGAUUCGCUAUGCGAGUCUGUAGCGAGUUAUUUA'
p579
aS'ACAUCCAAGCGUGGAUUCGCGACUUAUCAAAACCAAAUAAACGGGCUACCGAUGUAUCGGGGCUAAAGAAGAACUAAGCUUUUACUCAGCGCACUUUUGA'
p580
aS'CGCGACAGCGUCUAGGGAGCAGACCAGACAACCCAUCACCGCGAAGUUGACACACACUCCGUUAGGGACCCCUCAAUUGACUUCUCACCAGGGUUAUCGU'
p581
aS'AACGAGUUUGCCACAAUUCAAUGUAUUGUUAAUUCAGGCGUCACGUUAUUUACCGGGAGCGUUACACUUUGAUCCAACACAGAACGACAGGUAUCUUUGA'
p582
aS'GUUUGAUGAACUGACGGGAACAUCGGAAUAGAGAUCUCACAACUGCUCGAGUUUAGCUUCGUAGCACCCCCCAGUUAUCAUGCAUGUUCCAAUGAGAAAA'
p583
aS'AAUUCUUGCGAGCAGGCAAUCCCCCAUUAUCCGAUGUAAGGAUUGUAAUCAACGAAGCCGUGGGUUGAUUAAGCUCUGCUGACCGCGGGACCGUUCUGGC'
p584
aS'UUCCCUUCACAACGCGUUUCUCGAGUGCCCGCGGAUUGGCCUCUUAAGGCAGAAUUCUUCCGUCUGAGGGAUUAACGUAGCCAUGCGCUCAAACCAGUGC'
p585
aS'UUAGCCACAAGGUAGCUACGUACUGCAGCAUUGAAACGGCCUUGACAUGCGAUGUCCCCCGCGUCUACCCGUAAAAGAAUCCUUCGACAUUAUCGCCAUC'
p586
aS'AAAUAGCCCCGUUAUAAGAAUGGUCGGGGUCACCGGGUGCUGGUAUCUGGAGUAAGAGCUCCAUCGCUGUCCUACUAAUCCUACACGGAAAAAUGCACUC'
p587
aS'AACCGGAUAAACUGAUCUAAACCUCAACAAGCGUCAACGCUCAAGUCCGUCCUACCUUAGAGGUCAAGCUGACUCCAUUAGCAGGAGAAUAACAACACUA'
p588
aS'GCCGCGUCCCGGAAGGCUAGUACUGUCUACGACUCGUACACCGAGAACUCCAAACAACGACAGCAUUGCCUUUUUUUAUGCCCGUGCAACCCGUAAAGUC'
p589
aS'GUACGCUCCGUUCGAUACGCUCGCGCCUCCGUUUUGGGAGGCGAGAGACAAGGCCUAAGAUCUAGAUCUGACGUAUCUAAGAGACAACAGGAGCCUUCUA'
p590
aS'CACUACAAACACAAGCGAAUUUUGAUUAUCGGGUUCUCGAUUUGCAUUACCGUUGAGUUAUCGACGCAUUAGGAGAAGCCUGCGUGCAUGAUGUGGAGGG'
p591
aS'CUUUCAUCGCGGUGCCUAAAUGGUCAUACCACUAAGGCACGCUCGAAAACUCUCGUGGUGCGACAGCCUAACUACGGAUCCGAAAGGCAAGACUCUACUG'
p592
aS'UAUCAUGUUAAUCACCACACAUCCCCUCACCCCCAGAAGACCUGUCUACAGAAAGCGGUGCUAUGACUUAAGUGGCUGACAGUCGCUGUGUUCGCUGGGA'
p593
aS'GCCGCCCCACGUAACUGAUCUCCCAUGAGUCAUUACUUCUGCGGCCUGGUGGUGAGAAUCGUAGCUUCAAGGUAUUGCUGCAAACGACCCGGCGGGCCCA'
p594
aS'GUACUACGAGUUUCUGGGCACCCCGAGACAAAGAUCAGUUCUACUACCACCCUCUAUCAAUAGGACACAGAUAUGCCCGUGUCGCGGGAAUUCAUAUAGU'
p595
aS'CCGAUAUACAUGCCCGUGAUUUGCGAAAGCAUCCGGACUUCGAUCUUGAUAUGACUCAGAUACAUCAAUGUGAUGUUCGUGACGGUGAGCCUACCAAUCU'
p596
aS'UAUCUCAACCACCAAUGCUCCAGCGAUCGCCGCCAGGAAAGCCCUUCAUUCGCCCUCCCUGCAAGGUGCGCUAGGGUUCGUGACUUAUCUCCACGGGAUU'
p597
aS'UUCAGCCACGACUAACGUGCCCCUAGUCCAGCAACGACAUCAUAGCCGUGACGCCACGUCGUCUAGUGCGCAACUGCCCAGGUACUUCCCCUAAAGGCAA'
p598
aS'CUUGACUAGAAUAUUACUCACACGCACUUUGUUGGAAAUCCCGGUCUACGCCCUACCACUCUUUGUUCAGGAUUUCCCUCACUGUGCGACUCCGAUUUCU'
p599
aS'UCUGAAAAAUCAAUAUGCCCCCAUCCGCACUUCUAAGGCAGCUCGAGAAUUGAAACGAACCUUGCAAUUUGUAAGUUAUAUCACGCACACAUUGCGGCCG'
p600
aS'UUCGGCUCCGGUAAGAACUGUGCGGGUCUCCUCCAUCAUCCGCAUCGGUGGUGUCUGACCAAUUCGCUAUUUGCAGUGUUCCGAACAACACGGGCGAUAC'
p601
aS'GUCUCGCCAAUUGUCACGGAUAAUUUUAGUAGCAUACAUAUUAUCAAACAGACGUUGCAUCACACUGACUACAACCAUACCCUCUCCCGCGGUCCGGGCG'
p602
aS'UUAUAUGUAGAGUCAAACCGCGCAUGGGAAUGACUUUCACCUUUUCUCCCUGAGGAUAAACUUGGCUCUAUGUUACGUGGACAUACCCACGUCGACAUCU'
p603
aS'GUCCGGGAUAGGGAUCAGCUCGGAGUUAUGACAUAUUAAAUUACCCUAGCGCAAAGUAUUCACCCUACUCGUAGCCUUACGCUCGAGGGUGUGAAACGGA'
p604
aS'CAGAGGAGCGGACGAUCCUUCCCCGAUCGUACCAAAAGCUGAUUCCGUAUAACCGUACCGGUUACUGUAGUAACGAACUACGGAGAUCGAGAGUAUUAAC'
p605
aS'UCAUUUUCAUUGUUAUGCGCGUUGUUUUUAAGUUUGGGUUACACCGUAGUGGGUCAUGCUGAGCCUGCGCACGAAGCCGCGUGAUGGCAUAGAGGGGGAG'
p606
aS'ACACGAAGAAUAAGGGGAUUCUACCUAGGUACGUCCGCCUUUUUGUAGUUCUAACGUCACCACUCUCCGACUGCUAUGCCGUGGCCAUCCCAAACUACUC'
p607
aS'GCAGUUUGGACGGUUCUAUGAUAAGCUUCCGGAUUGAGGAUCCCGCAGGAUCAGGGGAGGAUUAUAAGGUAGUCUGGAUGCUGGGAGAGACUCCUCGGGA'
p608
aS'CCCCUAUUUAUCAACAGUAAAUGAGUUGAGUGGCAACCGGCUAUGGCUGCUGCCUCCCAUAGACACGUGACUGCUCAACGUCUUUGACCGCACUCCGCUG'
p609
aS'UAGUCAGCGCGUUGACAAACACAUGAACUCACAUCGCAGAAUUGAAUGAAGUUGUAUCGGGACAAGCGCGUGAAGCUGGGGGACCUCUCUUAUUCGAGAA'
p610
aS'UAUUUCGACAACCCGCCGAAACAAUUGUUGGUGGGCGUACCGAUCUAGCAGGAAUAUAGAAGCCUUAAUUGCUUCAGCUAGUAGUGCGCUCAAUUGGGGG'
p611
aS'UUGAAUGUCCGAUUCAGUAACGAUCACCGUGAUGAUAAGCAGAAUUUUCCCUGGGUCUCAUGUUAUAUUGAGCCCCUCUUUUGGCUCAACCCUGGGCGGU'
p612
aS'CCCUCCCACGCCCAUAUUGGCUUGAGCAAAUCCUGAUAGCUCGUCUCACCGGCGCUACGUGCAUUUUGCUCAGUACUCGGAUGACAAGGUGUCGUGGUAU'
p613
aS'UCCGGCUCUCUCACCAACUAGAAUGGAGACAGGAGAGUCGAAUAAGUGAAACCGCGCCCUGAUCAAUUAGCAUACUUGACUUAAACUCCUAAAGCUUGUG'
p614
aS'UCUUUGCGCGCUGUAGUCGAGCAACGGGGGGUGGAUGGUAGCAAAGGUCCCUUAUAUUGGGUUCUCGGUUAUCGGCAGAAAGAAGAGGGCCCCCGACGUU'
p615
aS'AAGCAGUGCACCGUGUGAACCAAUCACUUCAUUCUUUUUCUUCGGGCGUUGAAGAUCGCUGUGGGGUGGAAGUGAACGUGUAAUAGUCGACUGCAGCUUA'
p616
aS'UUCAGAUUCACUUCCGGUACACAUCACCAAUCCAUUGGAAGUGGAGUGCGCCGAGCGGUCGCUGUAAUAUGCUUCGCGAUUGCUACAGCUGAGUGCUAGA'
p617
aS'CACUCCCUAUACUUGUUAGUAGUGACCUCGCGCCACAAGUUAUAUGGGAGAGUCAUAAAGGCUUCCCAUGGAUAAUAGAAUCCCCAAGGGCUGAUACAAG'
p618
aS'GCACACCCCAAAAACUUGGGGGACAGGCCCUCCGAAACUAAAGAAUCCGGGGCCGCGACACGUUCUCCUUUUUAUAUCAUCAUGUCGAAGGGUUUAAAAU'
p619
aS'UUUAUCUACUAAUAAGGAUUUAGCGCUAACAUACUGGCUGGCGCCGAUAUCGUGAACUACAGCAUGGAUCCUCCAUAAGUAGCGAUUCCUCCUUCGUUCG'
p620
aS'UCCGGGAUGGGAAGGCGUCUGGUUGCGCCCUUUCUGUGUGGAGAAUUUAUGCGGGUCUGACCUUUUUAUUAGAUCAAGGUGGAGUCCAUAAUGUGAAACU'
p621
aS'UUCCGGCCGCUUGUCAUAAACCAAGUUCAUUAAGGUUUGGGAGGACCGUCACCAUGAUUUGGCAUAAUAUUUAGCGGCCUUUCGUUUUUAAAGUUGUGGA'
p622
aS'AAUAUUCCCAUGGGCGACGACCAAAAACCCAGCACUAGGUCUCCUCGGAUUCGUCUCCCGAUGUGUACCAGUCUGUUAAACUAACCGUUACCUCGGAAAC'
p623
aS'CGGCAGCAGGAGACAAAUGGUGUGAGUAUGGUUUCAUCCCUUAAGCGUUAUAGCCGAGGAACUUAGGGCCGUUGAUGGCAAUUAGCUUGUCGCACAAGUG'
p624
aS'AGACCACCAACCUAUUGGUUCCGAUUCGGCAUUCUAUACUUUGGCGGUGAUUGACGCGGCGAACCCCUAGACGUGUUUUUGAUGUUCAAUGAAAAUGAAA'
p625
aS'CCACGUCGUGUGUGCGUCUACGAUAAUUGCCCUUGACAUCCAAAGCGUCUACUGGCGAAGCGCCCCUACCACUAAGAAGUACUUCAUGCACGGAAUGCCC'
p626
aS'GUGCAACGAGGCGUCGUUAACCUCUCCGAAAAACUUGCAGGGUGCGGAAUUUGAUCAUCUCUAUGUGGGUGCUGUGUGUCAAUAACUCACUUGACAAGCG'
p627
aS'UAAUCAGGCCAGAGGAUGGUUGAUCGGUGCAAAUUAGGCAUAGAGGUGUCCCUCUCCCAUGCGGCUCGCGGGUCGCCCCAGCAGACGCCAUAUACGCAAC'
p628
aS'UAGGACUACAUCCAAUUGGGAAGGCGGCAUAUGAAGGUAGACUGUCCGGCUCGGAGUUAGGGAGUAUAAGGGGCGACUCCUAGGGCUAUAAGAGCACGAA'
p629
aS'CUAUAUUAAAUGGUAACACAUGAAUUUUAGACGUCGGAUCAGGAAAAGUGGACGGAAUGAUCCGAAGUAUAUCAAUAACCAACCCUGGUAAGUUGCCACG'
p630
aS'UGCGGGAUCGCUGUGAAUCGGCCUUUGACAGUGUUCAACCGCUCUCAGUACAACGGCGCGGUCUACGAGCGCGCGCCGAGUACUUAACGUCAGACCGCGG'
p631
aS'UUAGAAUCGUCGCCACCUAGCAGAUUGCAAAUAGCUGAGAACGCCCAGAGUUUAGAGUCCCUCGGCCCCGAAAUCUCGCCAUCCGGUAACCGAAGAUGAA'
p632
aS'UUUUCCGCCCGUACACUACACAAUUUCCAUGGUUUUACUCGACCACUUUGCGUAUACGCAACAACAGCACCCCCUGUAAUGUAUAACCGUCAAUCGGUUC'
p633
aS'UAGGUCAGCGGCCAGAGUCCUUGCCGGAUUUGUCGUUAUCGUAAACCCGCCGCCGGGCGCCAGGUUCCGUGAGUCCCCGUGAGGACCGGUUGAGAUUUCC'
p634
aS'CCCGAGGGGGCAAUGUUUACUAUCAAUCACCUCCUUGGCUAAGAAGAUUCUACAACAGACCCCAAUAGACGUUCACGGGGGUAUGUAGUCACCAGUUACG'
p635
aS'GACAGUUUCUGAGGUGCACGGAUGGGCCCAUGCACAAAGGUCCCUGCUCAGCAUAUAAAAUACCUCUGGUCCAGAGCUUUACGUCACUUCAGGGGGUGCC'
p636
aS'UACCUACGGAAAUAUUGGUUAGUGGGCAUUCGAGCCUAGUUGUGCCGCAUUGAGUAAACACAAACUAGUUGGCACAACCGCGGGGGAGCGGACCCUGUAC'
p637
aS'AUCUAUAAUCUCCAGUACCCGCCAAAAAACAGCAGUCACUUAGCUUCCGCUCGCAACCUCAACAUUUCAACUCAGACCUCACUCUAGACCGGCGUCAUGG'
p638
aS'CCGCACAACUGUGAUCAUUUCAAACGUCCCACAUGCCCGCCAGAUACAUAAUCCUACCGUUCCCCCGAGAGGAGCUAGAUCUACGGUGCUUUAGGAAAUA'
p639
aS'CUACCUGACUAUUCGGACGGCGUCCUUUAUAAUAUGUCGGCACGUACCCGGAUGAGACGUCACACAAGCGUCUAUAAUACCGUGCUAUCCGUCCCUCAGA'
p640
aS'CUGGGACCACCCCCUGAGCCUAAUCGAUUCGCAUGUUGAAGGAGAGUGUCCAGAUGCCAAAUGAAAGAUUCUUCAAUUCUCAUUAUAGCGGAAGAAGCCA'
p641
aS'UAACUGGAGCCCCUUAUCAAGUGUUAGUUCCACUCCUACAGGGUAACCGAGGCUCGGUCUUACAUUAGCCUUGUGUAGUGGGUGUUGGAGAAGGCGGAAC'
p642
aS'GGGAUCUAAGCCCCAAGAGCGGUUCUAACAUGUCUGGCCAUGGCACCUCCAAUCACCAAUAAGUAAGGGACAGUGUGCGGGAGGACAGACUCGCGUGGAA'
p643
aS'CUUCUACCAGUGUUUAGACUCAAUGUUAGUCUGUCCACACCCAAGUAAAGAGAGACACAGCACGCGGGGACUACCUCUUGGCCUCGCGUUGCAUUGUUUG'
p644
aS'AUUCGCGCUGUCAUCACAGGGCGACCAGCCUGCCGGAUCCAUAUGAGCCCAUAAUGUAUGACUGCUAAAUGGGUAUCGUUGCAUCUGUCGCACGGUCCGU'
p645
aS'UUGCUAUUGUGAACCGGAAAACCCAGCGUUAUAGGGUCUCGAAUUGCUUUGUGAUUGCGUACCUCGCUUACGGGAUUAUAACACAAUCACUAGAGCGAGU'
p646
aS'AGGGGCAGCACCUACAUGUUUCGGUCAACCUUUUGUCCCGUUCUGUUGUGAGGUGUAAUUAUGGGGUAGGGGUUCGUCCAUCUCUUCAUGAAAGUGUUUC'
p647
aS'GCCCGCCGCGUAUUUGCCUUCUUCUUUCGAUGUGACUUGUAAGCAUCGUAGUAGCUGCGGCGCGAGUCCAAAAAUAGGGCGCCCUGGUCUAGCUUCCAGA'
p648
aS'CUCGCGUCUGGGGUAUCCCAAUCUUUAUCCGUGUGCCAACAUGGAAAGAGUGUUUGACCGUUCGACAAAAGAGCCCUACCUCAGGUCAGCCACCAAGCAA'
p649
aS'GCGCGCCACAGAAAGUACGCUAGAAACAUCCUCUCAGUUAUACUUUCGCCGCUGCGAACAAAAUAAACCCUGUAACGCGUGCUUGUAUAACCGACCAGUU'
p650
aS'UAGGGAAACAUGUUUGAGUGAUCGGACCUGGCAUGGCACCGUGUUGACCGUGGGUACAACGGAACCAUAAUAUGGCACGAAAUAAUUCAUUCGAGAUUUG'
p651
aS'AUGCUCUCAUAUACCUUUUGCCAGCGGGUUUGGGACAACUGAACUCUAGUUAUCCGUCAGUAUAACCGCAACACCAAUAGAACGUAAACAUCAAAGAGCA'
p652
aS'AAUGUGUGAGCUAAUGAAAUUGAGCUGUCUGCCAAUUCUUGCUCUGUCUUGUCAUCUAUUUCUACGUCUCACCAGAUUCUUCGGAGGCGCUAACAAGUGA'
p653
aS'ACUGACCGCUCAACUGAUAAUGGCUCAUGAAUUCGUAGGCGUAUCUGAGAAUCAGGCAGCCUCGAAUUGCAUCGGCAGUUUUUGGAUGAGCAGGAAUGGC'
p654
aS'UCAAGGUCAGUUGAUAGCCGCCAUCCCAGCAUCUCGGAUACUAGCUAAGUUGACACCUAAUGUCAACCAGGUUUGCUACGGUUCUUCGGGGUGACAGUAA'
p655
aS'CAUACAUCUUUUCGUCGGGAUAUAAAAUGUAAUGGGGUUCAAUCAAAGUAGAAGGACCAAGUUGAGCCCUUAAGUGGACUUUCGUACACAGAAUUCACGG'
p656
aS'GAACCACAUUGUAGGUUUAAAUGGACGGUCACUUGCAGUCUCUGGAUGUCAACGCACGCUACUCUGGUCGGUAAACGUUGAUAAAGUGGACUAUAGCCAU'
p657
aS'CCCCCCAUUAUAACGCCAAGCUACUUUUCUUUCCGGGUGAUACACGCUUUCGUAAGGAAUGAGGCUAGCAGUGGUAAUAAAGUUCUUUCUUCCUUGUGGA'
p658
aS'GACCACCCAGGUUAGCAGGAUACCGACCUAGAACUUGUUCGGUCAUCGACAAUGAUGUCGAGUACGGUGCCGAUUUGCCGAGCAUCACGAUCUUUCCCAC'
p659
aS'UGCCAGCGUGUACUCCUCCGGCGACCAUCAGUCCGGAAGUAGCUAAUGUAGGUACAGCACGAGAUUCCUACACCGACUGGGAUGGUUUGAUAACCAUGCA'
p660
aS'UCUGUAUGACUUUACAAUAGGUUAACCGGUGAUUCAGCCCGCUGGUACGAAAAACCAUGACGCCGGCCCGCCGGAGUAAGAGGUAUUAUGCACCUUGUCA'
p661
aS'AAGUAAUGUCUAUCCUACAAGCGUCAGGUAAGUCCAGACACCUAGAACGACGAUACAGGUGGCAUGUCGCUACGCCUAUCGCUACGAGGGGUUAUUAUCC'
p662
aS'UGAGGAGAGCACGCGAGCUACUGGCUAUGGUGGCAGGACUUGCACUGAUCUGAAUGGUCGUUAUGUGAAGCACGUGACAUACGGACACACAUUACCGGCC'
p663
aS'AAACUAGAAGGCGUACAUAAGUGCACCUUGGCUCAACUAUCGCCUACGAAACAUUGACGAUAACGCUUGCGCAGGAGCCUACGUGGCAACACUAGAUUCG'
p664
aS'UGUUGAACCCUCUAGCGCAACAAAUCUUUUGCCGAACCCAGUACGCCCACUCUGAGACAAAUAGGCCCCGUCGUACGUAUGCUACCGAUCUGCGUCAGUA'
p665
aS'CAGUUAAUCUAGUGCAGAAAUGUAUCUCGGUAAGACCCCGGACGCCAGAAAGUGAAAAAUUUAUUGUACAGUAUCAGAUACGCUUAGUACUCAAUUUAGG'
p666
aS'AAUACACUAGAGUAUUCCAUAUAUUGCAUAAGUCACAACACUGGGGCAAAAUACUAGCUAGAGUGAGAUUUGCAUGCAGGUCUCGCCCACGUGAGCUUAG'
p667
aS'CGCAGUUUUAAAUGGUACAAGCAAGGUAAUUAUUAUCGUUUAUGCCUGGUCUCCGGUGCUUGUGGCGAUAACUCUUAAUGAGCACGCUUGGUAGGAGCCA'
p668
aS'ACCUUCCCGUGUUCUCUGGCAUGUCGCACCGGCUAUGAAGUCCGCUGCAAUGUACCGGCCCGAGUAUUGAUAUCCCGCCCCUCUUCCAGUCUUCAGGCAU'
p669
aS'AUACUCCGUUAGAUGGCUCACGUUGUCUGAAGUAAGGUUCGGUAAGCGCUUAUUGGUACAAUACCCGUGAGCUGUGAAUCUCUCAGGUCAACUGCCACCU'
p670
aS'CUCGCAGUGACGUAGGCUUGGAGGCUUUAUGAAGCCCCUCUCCGUCGACAUUUUAAAUUAUAUCAUAAAAAGGGAGUAUUGACUCCUCUGCGUUCGCCCC'
p671
aS'UCUUCGGCGGUGAUACGGCUGAGUAGCUCCUCCCUUGCGAGUACUCUCCCUACCAGCUGUUGGGUGGUUGGUAGCCUAUAAAUCCUUGGUCAGUGUCGCG'
p672
aS'GCAUGCGACGAAAGGACCUUUGACCUUUUGAUAGAAUCGAACGGACAGUCCCACUAAGCAUUCAGCUAACGCAGCCGACCAAAAAUUGAAACCAGACAUC'
p673
aS'GGCGAUUUUGCCGUUGGGAGCGUCCCUCCAAUGAGACAAAUGCGUAGCAGUACCUGAUGGCAUAAUAGAUGGAUACACCAAGGGGCAGGCGGUUUGACUG'
p674
aS'GGUAGAUCGUCAGAAUUGUACGAAAGCAUUAGCGCACCGAGCCCACGCGUUCCGUUCUCCAUCGUGGUUGUCAAUAAUCCUCCACGUCAUUUCUUCAGAC'
p675
aS'UGUUAAUGUAGACGUUAGCGACCUAUAAUUUCGGAGAUGCGCUCAUUACGCACUGCGCAGACCUGAACGGGGAACACGCCUAUCCUAUGAAGCGAAAUUC'
p676
aS'AGAAUUAGUUAAUGUCGGACUCCUGCCUGACGACGAAGAAGAGUCGGGCUCUGGUAGCGCGCAGCCAGCGAAGAGUUAAGCUUCUAGACUUCACAGAUGU'
p677
aS'CCGUAUGGCAUAUAGGCAGACUUCAGACCCGUUCUGGGGGUGAUGUUCUGACCUCCCCGGAAACUAAGUUCGCCCUUUCUCGGCCAUAGACAGCGACGUU'
p678
aS'ACCUCGCAACACCUGAACGAGCUCUAUGCAACAUAUUCAGGUCGCGACUCACUCAUAACGCUGCAAGAUGAAACCGGGAGGGUGAGUUCCGCAACAUAGU'
p679
aS'AUAGCGAUCGGCUAGUCUCAAAUGUCCUGAGUUGUUUUAGAAGCUCUAGUGGACUAAAUCCUGGGGUCAAUGGUUUCCAUUUUCGAGUGAACCUGUGAAC'
p680
aS'CGUAAGGCAGGACAAUGAAGUGAGUAGUGCCGGUGGUGUUGACCUAGAGGAUUCUAAUAAGCGUUAGUUUACAUGAUGAAAAACUCCGAUCCGUAUUCCC'
p681
aS'CAUCACCGUGUCAACGACCUACCCUCGGAUCCGAAAGCGUCUGUAUGAGGUUAAUGACGGGAUUUAAGAAUGGAGUUACCUACAGCACGAGAGGGGAGUA'
p682
aS'CAUAAGUAGGUCAGGUCAGUAGUGUAGCAACAGCUUGUUAGAAUUCAUUUCUAACAGGCAUAAGGGCUGCUUGUUCGCUCUUCUCUGGCCCGACCUAUAU'
p683
aS'UACAUUCGGACUUCAUCUUGUGUGGCUACUCGGCAGUUCGUGUACGGGGCACGGUCCAUAUCAUUGAGACUUACAUCCACCUAAAACGCCUUGACGCACG'
p684
aS'AAGACUCACGCUCUGUAGUAAUUUUCAGUAGCAGAGCCAUAGAUUACCCUCCUGAUGCUGGCUGAUUAUGGAAAUCGUUUAUGGUAACGCGUCGUCAUUU'
p685
aS'AGCCGUUAUUCUCCCUAUGUGGCCUAGCGCUGGAAGCGCGCUACCAUCCUCAGUACACGAGCUCGAGCCACUCUGAAAUUGCACAAACGGACGGGAUUCA'
p686
aS'UACGAGUCUCGUACCGCCCCAUCGCGUACUAAUACGGAGUAGAGGAUAUAGUCACUCAACUUCGCCUCUUGUCGCCAACAACCUCGUUUCGACAACCUCU'
p687
aS'CGGUUUUGCCGGGUGAGAACGCGCCCGCUCAGUACACCAUACGCCAGCUUAGUUUGUUUAGCGCGAUAAUUUAAAGGUCCCGACUAAGAGCUGUAUUGGA'
p688
aS'AAGAGAACGUCACGCCAGACUUAGGCACGUGGGUAAUUUGGCCAACGGAGAAUGGUAAAAGAGCCACCAUGAUAUGUUUCGGAGCAGUACACUUGUGCGA'
p689
aS'AUCUUCGGGCUCAGAAUGUCAAGCGCUCAACCUCGUGGAUGCGCGCCUAAGCGUACAUCGGGGAACUACGAGCGGCGGCAUUUAGGCGUGGUCAGGCACC'
p690
aS'GUGACUGGCAGCGCAUGAACAUCAACCUAUCCUCAUAUCGCAGUGUACUACGAUUGAGUUUCCGCGGCGUCCGUACGAAUAAAAUUUCCUAAGAUCGGUC'
p691
aS'UCGUUUCACAUAAAAAUAUGCCGGCUUGCCGGGACGCAGGAAGGCGUCGGAGACUGGGUCAAUGGAACGAGAAGCAAGGAUCUUCCCCCACACGGCGACU'
p692
aS'GCUGUUGUGCCCACCUAUUCAACGAGCUAGGCCACCAUUCAUCGCUUAUGCCACUAUGGUUCCUGUAGUCGCCAUUAACCGUACACCCGCUAUAUUACUU'
p693
aS'GCUGUGGGGUCACUCUAGACAGCCGAGUUGCUGCUGUAAUCAUGGUUCCACCGCGUGAGAUUUAUCUUCCCGUAUGGAGCCCUGAAACUAGCGGCGGAGA'
p694
aS'AUGCCACACUUUCCUUUUGGCUUGUACGUGAAACAAAUAGGAGGUUCCGAUAAAAUCUAGGAACUAACGGUACCCACAGAGUUACUUCACCGACUGAUGC'
p695
aS'UAUCCAUUUGUAACUCAACAUACGGACGUCAUUAUUUAUUGUAUACUGCAGUGCGGACGCCUCUUAAUCUACAACCUGAAACCAAAUAACCCCUAACGUU'
p696
aS'AACUUCGCUUGUGACGGGAUGGGUCUCUCCAUCUAUAUACAAAAAACUUAAUAAGUGGACCGCUUCAUUUCCCAGGUCUGAGUGCACGCUGAUCGUUUAG'
p697
aS'AUUGAAGAAGUUGAAGUCAUGUAGUGGGUUAGGAUGAAAAGGUAGAUGGUAUUGUUGCUAGUGACACUCCAGCACUGGGCAGUCGUGAUUUUGAUGUUGA'
p698
aS'ACGGUUGUCUUUCCGAUAGUCUUACAUGGCCGCUACGAUCAUACACGACGACAAGAACGCAUAACAAAGCGCGAAUUCACGAAAGGCGACGCGUCGACGG'
p699
aS'CGUUCAGUAAAGCUCGUAUGGUUGAAUCCUUCGUAGUGCAACUACGAGAAUGACACGCGGCUUCAUCGUAUGUCCACGUGAUGAUAGAUGAGGCGGGAGA'
p700
aS'UGCCGUGGUCGGGAUGAUCGUCGGCCUCGCUAGAGCUGACGUAAAUGUUGGGAUAAGCUGUCGCCGAAAAUUUUAGUAUCAUAAGAGAUUCUCUUGGUCA'
p701
aS'CGUCUGGGCUUCUGCGUAACACCAGGCGGCUACCCGUCAAGUUAAAAAGACGCCGCGGGAGCGUUAUUUUGACUUCCCGAGGGCUAUCAAGUCGGAUGAG'
p702
aS'GGAAAUACUAAGAGUCCGAUGUCCUCCGCUUGCAUAGCCUUUGGUGAGGCUGUAGUAAGGACUGCAACCGCCAUACUUCUUUCCUCUGACCGUCCUAGGA'
p703
aS'UUCUUCGCGCUUUGACGUUGCCGUGAAUCAGGGAGGCAAGAUGAUGACCUUACCCGUGCACGGACUCGGUCGGAUGCUUGCAUGUCAUGGAGGGGACAUU'
p704
aS'GGCUUAGUGGGGUCAAGACUGACCGUCUGGUCCGCAAGAACCGUCACCACAUCGUAGGAAAGACGAACUAAUCAUAUGCUGACCGAUAGUAUCAACGUAU'
p705
aS'UGCGCUAGAAAAGGCCCGCGCGGCAGUAUAUCGAUCUAUUUAAUAUGUUAUUCUCACCCUCCUUGUGUAUCCACAGACCGAAAAAGUGAUAAAUCGCACC'
p706
aS'AGGAGCAUUCCCUGGGAAAUUAGAAUCCAUACUGAAGGGGGUAACCUGGCAGCAGUAGCAGCACUAUUCCAGUAAGAGAUUCAUGCGAGUCUCAGCGUAA'
p707
aS'ACAGGAUGAGCGUGUUCUCCGUCAAACAUCGACGCGGAAGCGGGUUCAGUUAUCUCGUGGGCGGACGCAGCAUCACACCCGCACCUGCCCCUGCGGACCA'
p708
aS'UCCUUUUAAAUCACUAACAUCACUCUUCGAUGGGGUUCAUAAAUUCCUCAGCUGAGGAAGCUGAUAAUCUAAGAAAGUGUACUUCCAUCUGAUUCUUGGC'
p709
aS'ACCUGAGAACAAUACCUGGUUGAGUAGCGCGUUAUUCGGUAAUAUGACGCCAUGGAUGGCCCAUUCUCGGUAGGGUACGGCUUAACCUCCCCAGGCUGAU'
p710
aS'GGGAGAAUUUGAUUUGUAUAUGUCGAGUGUCCAACACAUUUGAUUUCUUCUGCAGAUAAUCUCUAAGACCACUGACACAACAGAUCGUCCCGGUCCGUUC'
p711
aS'GAUACGAGACUGUGUACCCUCGAUAAAGGGUAGCGAUGGACCUUUACACUGUCGAUUAUUUUUUAUGGGGACGGUAUAAAUAGUCACCAGCGCCUUGGAG'
p712
aS'CAAGUCUACUUGUAGAGUCUUCGGACAGUCAAUACGCAAGGGUAAGGCAGAUAGCUUCUACCUUGAAAGGUAAUUCCUAGCUAAUUGAUGACGUCGUAGC'
p713
aS'GAUUUAGGUGUCCCACCUACAGAUGUAACCCUGCCAAGUCUACUCGCCACUCACAUUCAGAAUAUAUCUGGAGGCCUCUACGCGUCGACUUAGGAUCGAC'
p714
aS'AGGGCACGAUCAUAGCCAGUUAACGCGGCAUCGGUUUUUCGACGGGAGCACAUACUCAGCAGGGCUCCGGUCCGCAUAAGCUGAGAGUAGCUGCAUGGGC'
p715
aS'UAGCGAUCCUGCGCGUCAGACAAACGUGAUCGCCAAAUAGGAAAAUAUCUCAAUGCCCGUACGUUCAUCGAGCCGGCGUUGAGACCAGCUUGUAGUUCAC'
p716
aS'AAUUGAGGCGAAUUAUAGCCUGUGAAUUACUGGGGCACUAGCCAAUCUUUUCGAUGUGGCUGACUGGGAACAGUAGAGUGGCUGGAGAGCAUUAUCAUUG'
p717
aS'UUUGAUGACCCAUACGUGUCAUGACGUUUUGUGGGCCACUCGGGCUUCGGUCCCUCUUUCAAGGUGCCCCCGGCGUGUCCUUUCACAUUUCAAGUACCUA'
p718
aS'CAUCGAUAGUUCGCAGCCCCCAACCAAACACGAAGUGAGUUCUUAGUGUUAGUUUCGCUCGUGUGAAGUUUGCACGUCGAGACUACGGGGUUACGCAUAA'
p719
aS'CUAAAUGGUGACCGGAUCGAUGUCUUCGCCUUGACAGCAUGCUACUUUUCGACCUAGGUUUUUUAUAGGUGUCACAUGGGAAUCUGGGUAUGAGAGAAUU'
p720
aS'GGCCCAGGCUGGAACGUGCAGCCGGCUCAGGUGGGCCCGUCGUCACUAGAUUGAAGACACUCGUAGUUCGGAACAGGAAAAAGCGUUCAGGCUUCACCGU'
p721
aS'GUUCGUAUAUGUGCUACCGACUGGAUGGAGAGCAAUAAGCUGUGGAUCGGGAUUUUUGGUCGGGGUUCCUGCGUGGUUUUUCCUUGGGUUGCUAGCUUAG'
p722
aS'UGAGACGGGGUAAGGUUUCAAGUUCAGAGUGAUUAACACGAUUGAACAUUUACCCAGCGCACGCUGUUGUUCGACCACAUGUGAAUCUCAGGCAUUGCGA'
p723
aS'GUGAGGCAGGGACCCGCGGGACGUUCUUAUCACCAUCAUUGAUCUUAGAUUUACCGGCGCACUAAACACGGGGCGGCGAUUUCUCCACACCAGACGGCAU'
p724
aS'CCGAGUCCGCUGAACGGUCAGCCCAUCCUGAUGGUACCAAUAUUGCCACCGGCACUCACCUCUAUUAGGUGAGGUCGCCGGAUGACGUUUAAGUUAACCC'
p725
aS'GGUUGCGUUGGACGCGGAUUCCACGAUUAACCAUGCAGUUUCACUGGUCGACCUAAUCAAAGCUCUAUAGUGCAUCGGAAGAUAACCGUUCCCGCAACAU'
p726
aS'GAAUAACACUGCUGGAGUCAUCAAAACCCAUCCCUAAAUGCAGUUACUGCCGAGCAGUAAGGUAGACCACUUACUAUACCUGAAAACUGGGAAGACAACG'
p727
aS'UAUUUAAGCGGUUGUACCAUUGCUAGGUACUGCUCACUUAUUUACGCUCACGCCUUGUAGCAGAGGAUAUCGCGAUAUGUUAAGUGGGUACGAGUGCAAG'
p728
aS'AAAUUAGAAGGGGCACCCAGAAUGUUAACAGCGGGCGCUGAAGAAGCUGAGUUCCACGCACGCGUUUGUAUCUCGUGCGAGCAUAGACAUAUCACAAGAC'
p729
aS'GGCUGACUCAAAUUACAUCCACAGAGGAGUGCUGCCCAUAUAAAAGCAGAGACCUAAGUUAAAGUCAGUACGAGUCAUCGUUAACGACGAGGACGUGCAU'
p730
aS'CUAGGACUGAGUAGAGGGGAACAGAAACCCCGCUACUGGCUCCUGGGCCACUGUAACCCUGCUAGUUCAACGGUAGUGAGAACUAAUUCAAAGUGUUCUG'
p731
aS'ACAAGAACGGGAUUUUUUGUUACUUGCUAUACUCUUGGGGAUGGCUUGAAAAGCAAGGCGUUAGCUGGUGCGCUUAAAAUUGAGGUAAUAAAUCAAUUGG'
p732
aS'UUUCAUUAGUCCGUUCUUACCCCGAGGAACAUCUGGCUAGUACAGAGUAAGUACCGAUUCAAGAUUAAGCGAGGUGCCUAAUGCUACGCUUUUAGGGCAA'
p733
aS'AGAUAGUGCUAAGUCCGCGCCUCUGGACGUACUAGCUUGAGAGAGGCUACGCGUGGCUGGUUCGACCUUUUAGGAAUCUCGCGCGUGAAUACGUGUGUCA'
p734
aS'UGUUUAGCUGUUCUUUGAUUAAAGUUGAGUUGCUGGGGAAAUAGUGCCGAGUCACCUUUCCAGCGGUUCAAAAAUUUAGCGUGCGCUUGACUGGAAGAGA'
p735
aS'AUCCCCAACCCGUAAACGGUAUGUGGUAGGAACUUUGCGAGGGGUCCAUCCCUUUCUGCACCUUAUCGCCGGAAUCACAUUAGUUGUAUGCAGACGGCCC'
p736
aS'CAGCUAGUUGUCCCCGCUUAACGUAGACCAACAAUAGCCACGACUAUCCCUUAAAAAUACACAGAGCCUCGUACUUUCGUUGGCGCGACCCCUAUCACAC'
p737
aS'GGUCCACAUUGUAGUAAAAGCGUGCGAGAAUCAAGUACAAUCUUACCAUCCAGUAUGCUUCGACGUCCACUAUGCUAACGCUUCGAGCCGAUACUCAUCA'
p738
aS'GUACACGGCCACGGGAAGUGCACUAACAACUGGGAGGGGGCUCGCACCCUGAUCCGUGUAGCUCAUUUGGGCAGCACUCCUUCGCUAUUCGAGCUGUGUA'
p739
aS'AGACCUUGUUGGUUGCCAACGGCCUGAUACAACCACUACAGGGAUACUUAAAUCAGGUCAGAGUUAGUUUCGGCUAGCCCUGGCUUUAGGCAAAGCGCUC'
p740
aS'GGGGGGCUGCUGUCCGAACUAAACUAGCAAAGAGAACUCAGUGAAAUUAUUCCAGGGUAUAUGGCUACGUACUGCACGCGCAAUAUCAAUCCUGAGUCCA'
p741
aS'ACGAUGGAGCUUGGGGCUGAGGGACACCCAGAGAACACUUUUAGGUCCCCAUUCCUUGAGGUUUGUUUAACUGAAUCGCCUGGUUGGUCAAUAUCCGAGG'
p742
aS'UGGAUGACAGAAAAUAACUAACGCCUUAUGACAUUGUCUUGGACAUUCAGAGGGUGUUGAUAGCAAAAAGCUGGAAAGCCGAGACAAUAAACCUCACUAC'
p743
aS'CUUAAUCGCUCAAAGUCCGUUAUUGCGUGUUUUGUGGACCCGGUUCACCAUCCGCCAUCCACUGCAAUAGCGCCCCCCGUUCCUUUUCGGGGCCUGAUGG'
p744
aS'CAUUAACUUCGCUCUUCCGCUAUAAAAUUUUUGUUGCCUCCUUACGACGGAGUUGAUGUUCCAGCGCCUAAGUAUCCCUAUGAUGUUCGCACCGCAUGCG'
p745
aS'CCGGAUAGCGGGGCGGUCCUACCAUGGUUGUCGCUGUUCAGUCUUGCGGUUGAUGCCCAAUUGAAGUGGGGCUCCUGACAUGAAGAUUUAACAUCUCGUA'
p746
aS'CGACAGUAUCAUAGAUCCUUCAGCGAGACCUAAUCGCCUGCAUUCCUAGCCUGAAGAUGCGUGUAGUCUUGUUGUUGUUUGAUCGGAUUGGCGAGUCGCU'
p747
aS'GAUGGAUACCGGAAGGGUUCAGGUCACACGUAUUAUCACAUCGUUAGGGACAUUGCACCCAGUACUGACACGACUGACGUCUAAAGGCGGAAGACAACAU'
p748
aS'UCUACGGAUUCGUUGUGACCGACACGCACGACAUCUGUCACAGAUCAGUCGUGGGGGCAACACGCGCUAGGGCGGUAUUACAGGAGGACUGAUUUCAUUA'
p749
aS'AAACAGUGCUAUGUGCGUCCCAUUAGUAAACAACCGUGGACAGAGAACGCAAAUUGCAGCGGCCCCUACAUCAUCGGUACAAUUUACCUCGUGAGCUUCU'
p750
aS'UUGCUAUUCCAAAUCUAGGGGCAUCUAUGCGGUUUGGACUGAAUCUGUCGAAGCGUAUAAGUAUGGGGCUGAGACUCGAGAUAAUAGGCGGUGCCGGUCA'
p751
aS'GGUCGUGGACUCGACCCGAACCAACAAUACCGGGAUAUUUCGACGUUUCACCGAAUAGCUCGAAGAAAGCGCCUUCAGAAGCUGAGUAGAUACCAGGCUA'
p752
aS'GAGUGCUCGGGUCAAAUCAGUAUUGUUUGAAUUCGCUUUAGGAGGCAUUAAAUUCUCUCAAAGGAAUACCUAAUCAUUAGGCGGAUGCCACUUUGCUAGA'
p753
aS'UACAUCUCCUGGUUGUUUGUCUUCCCUAGACAAAGCAGGCUCUAUAGAGAUUGCUGUAUUCGUGUGUGGAUUACCCCACGAACGACCGGACGCUACUUUU'
p754
aS'UGGGGCCUGUCUGGGUUCCCUGCAAAUGGUGGAAGGAACUUGUAAAGACAGAGUGAUAAUCAGUCCGAGGGCGCAUCUUUCGAUUUACGUCUCCCAUACG'
p755
aS'AUAUUAUGAAAUCUUCGGCCCUCCCUACUUGGGAGGCAGUUUGCCGUGACUGCCGGACACACGUCGGGCCUGGAUCCAGAUCCAUAACUGACGGAAGUAG'
p756
aS'GAAACGGGGUGAGACAAUUCUGAAGUCCUUGGCGUUAACGGGCUAGGAACUCAAUUAUGUUUACCGACUAUACGAUGAACACCUGAAGCUAGUGGCUGUA'
p757
aS'AUUCAUUGCACUAGUACUCCACGACCUUGUUCUGGGUUCUAUUAACAUGACGCUGGGGCUCAAACACUCCGUCUCGGCGAGGCGAUCGCCGCUGAACUCC'
p758
aS'AGAAACACGCGAUGACAAGGAUGCCUGUUACAAUGUCGCAGCUCCAUCGCAUUUGAGUUAAGGUCCCUUUCAGAGCUGAAAUACCGCGGUUACCACGCCC'
p759
aS'GCAGUAACAGUUGGACGUAAGAGGACAACCUGGCGCUGCAGUCACUUUUGACCGAAGGCAACCUCGGAAUUGCCGCCCGUCACAGACAGUUAAAAUUAAC'
p760
aS'CAAGUUUCGGACUGAAAUUCCUCCCUCAGGGAUCGAGAGAGGUUGUUUAAUAUUACCUUCGAACAGCUCACUUCAAGCCAGGUGACGAAGCGCGUAGAUG'
p761
aS'CGUCACUCUUCUGCCUUGUGACAAAGUGGUCCGGGGCGCUUCUCCAUCUCACUUGUGGUAUGAAACGUCGGAUAAAUUUGCCGACCCACUAGUUUCGCCC'
p762
aS'UUGAUAAGUUAUUUCCUGGUGACGUACGGUGCGUCUGUCAGGCAACCUUGGACCUCUUAGUACGCGGGAAAGGGAAGUGUGUCGACGGGUGGGGAUCCCU'
p763
aS'GCAAAUCCGCUUAGGAUCUGCACUUCGGCGCGCCAUGGAUCUCGCCUAACACCGCGGUAGUGCAACCAAGGAGAGCUUCUAAGGCCACCUGUACACUCCU'
p764
aS'UUUGGCUCUCGGCAUAGGUCUGUUGGUGAUAACAAAUCGCGCUUCUGUCGGAUGCGCGCCGGGCCUUUCGUCCUACCAAGUUCGUGUCUUACUGUUUGCA'
p765
aS'GAAGUCAACUCAGGCCAGGAAACCUUACCUUAUGUCGGGUAAGUCCCCUGCACAUAAGAAGAGGUGCCUGAGAUAACCCCCUUGAUUUAGAAACAGAAGU'
p766
aS'CAACUACAAAUUUUACGCUUACUUACCAAUAGGAUAGCAUUGCUUUUAAGUUCGGUGUGCACCUGAUGGGAGCCUAUGGGCGGUGUCCAAGUUACUACCG'
p767
aS'UGGCUGGACGGGCGAUUUUUUACCACGGUGACAAGCCCACCAGAUCCUCCCUCCUCCGUGUAGAAACUUCGUAAUGCGUCGGUUAUUUCACCAGGAUCGU'
p768
aS'AGCCUCGCAGUGCUUGUUAACACCGGUGCGCGUCAACCGGCCGGCCCAGAUCUCCGUUGCCGCUUCGAUCUGAGCCAGUGACGGGGUCCGGAAUAGAAGU'
p769
aS'GAUGUUGGUCAAUCUGACCCGUGAUCAAUCUUCGUGAGCUUGCCCGUCCGAGUAUUGGACUCAUAGGUCAACAACGAUUGUACGUGUGCCUACCGUCCUG'
p770
aS'AUGUCGCAGAAACUUCUUCAGCUGCAAAGAAACCAUGACUCAGAUUCCUAAGACCGUUACUCCGAGCUGUGGACCCUUGCAAUGACCUGGAUGCGGUCUA'
p771
aS'AGCAUUGUAUAGCCCUGCGGGGAUUUUAGACCCCAGGAGAAAGUGGGGUCCACAGGUAUGGCAAACGUGGUACAAACUUCCUGGUAUAUAAGCCGGAACC'
p772
aS'UGUUUUGGCGAGUGUUGUGUGGCACCGCUUCCCGUUGCCUAAAGCACCGGAACUGAGUCUCCCUAAGCACAUCCCUGCGUCGCUGACGGUGGCAUGUUUU'
p773
aS'UGCAUAUAUGCAGACAGAAAGCAUCUGAAUAAGCAGAUCAACUGUAAGGACUAGUAAUGAGCAUACCUCUAGGGGCGUAACGAAAACGAGCCUACUCCUG'
p774
aS'AUCGAUCUGCGCGCCAGGCUUCGGUAGCUGAUACAAGGGACUUUUGCCUCGCUAGCCCCUGGCGGACGAAUAUGAUGUCGGAGGAUUCACCAUUAGCACC'
p775
aS'GAUCUACGGCGUCGAAACGAGAUUGGUGGCCUAAUACUUAAGGCCAAGGUGCAACGCAGGAUCCCUAGGCUGUAGCUGGGUUCGUUUGCGCAAGCGCGGU'
p776
aS'CCACCUUUUAGUACGAAAUCUGACUUAGCACUGUAUAGGCUCUCCUUUGAAUUGCUCGAUUUCCCUGGAAGUGGAGAUCAACUGCUUCAUGUUCACCGAA'
p777
aS'CUUGCAGCCCACGCUCUGCAAGACGGAGGACUCAUAAUGACAUAGGUGGAUUCGCCUGCGGGAAUCCUGCGCUGAUUGCUCGGGUGACCGGGAUCACCGU'
p778
aS'CCCUAAUCAAAAACCCCGAGGCCGCCGACAAAAGCGAAUUACCCUUGAGCCCUACGACGACGAUUCUAGCAUUAGCAUUGAUUAUUAAUGCGCCUAUCGC'
p779
aS'UCUUAACUUAUAAGUAAGGCAGGCUGUCUGCACUUGCACACUUAUUACGUUACAUAGUUUCUAGUCCGCCGAUAACGCACUUCCGGAGGUAUCGCCGUAC'
p780
aS'CAAUAUGUCUAAUACUCCCGAAUAGAGGGUAUCUCUGCAGCGCUGCCCGAUAGAGUAACCAUGCUGAGGGACUCAAGUCUCGAAUUUGACACUGCAGCGG'
p781
aS'UGUAGCCACUUACGACAAAAACAUAAGUCCGCAUACUUGUAGCUGCCCCGUCCCUACCGGUGCUACGUUCUGUUCUAUCUCUCCCUUAUUCGAUCCGAAA'
p782
aS'GCUUGCCGAUACAAUUUUACUUAGAUCGGGCUUACUUAAGUAAUUGGGCCUGGAAACCUAGUAACAUGGGUGUGUUACCUUUAUCAAUAAGAGCAAGCUU'
p783
aS'CGACUUGCCGAUAAGGCUACUUGUAGCCUGCUGCUCAGUACGUUCGCUAAGAAGUCGCCGAUGCAAUCGACGAUCGGACCAACAUAUCGUAAUCGUGUUG'
p784
aS'CCCCGUUCUAUUCGCGUCUGGCAGAGUAACGGUGCUGGUUUUAUGAGCAGCGGAUCUGACUAAAAGCGUGUCACACAUACUCCCAUCAUUAUAGUUAUAU'
p785
aS'CUCCUCGCCCAGGGGUUGAUAGGGGUUCUUAUAGACAAUAACUCUAGCAACCGCGAGCAUAAGUGUUACGGAAUCUUCAAAGUCGCACAAACAAUACGCU'
p786
aS'CCAUAUGUCACAGUAUGCGGUAAGCUGGACACUUAGUCUUACGUUGGGGUUCAAAUCACUAUCACGUGGACGAAGAAGAUGGAGCGCCAUGAUCUGGACC'
p787
aS'UCUCCGUGGGUUUAUGCCGAGACCAACUUCAAGGAAGACCGACAACAAGUAAUGCGUAAUGGCUGUUCUUAUUAAUGGACGGGGGGGUUUAUCUUCGAAC'
p788
aS'AACGCGUACGCGGUUUGCAUACCUCCCGAAUUCACUCAGGAGAGCCCGAUGGUUGGUGCUUAGUGUUCUAAGAGAUAGUCUGUGUCACCUGAACUACAUA'
p789
aS'GAUUGACCCCCAAUCGUCCAUGAUAUUAUAUUUAACCGUUCUCGAACUACGAGGUCCCGUCCGUUUGUCGCGCUGGAAAGUUGACUAGGGGCCUACUUAA'
p790
aS'CUUCGGCUGUUGUGACUCAUCCGACACCAGUGGGCUAGCAGGCAGCCAAGGGAUACCGGCUUAGAAGUAUCUAACUCUAAUAUGGGGACAUCCGUUUACA'
p791
aS'CAACGUUCUGGUGUCCCAGAAGUGAUCGUGAGUCGACUGUGCAGUCGGGCAUUUCCACAGGUAAUUAAUCAAUCGCAAGGUCAUUAGGCCUUACAACUAC'
p792
aS'ACGUACGCUACGUAUACUCCUAGCGUGUAGACGCCAUUUGGCUGAUAUAGUACACAUCAUUACGCUGUGCACAUGUUUGCACAUCGGCAGGUUCAUCGCA'
p793
aS'UACUUGUGUUUCACAUGUAGCUUGUUAGUUUCAGACAUCUGCAGUUACUCCUGGACAACUUCGAGCGUAAAUAUAGAUUGUUAGCUCGUGCAGCCAUGAG'
p794
aS'AGGAAUUAUACCCUUAUGGUACAAUGACAUACUCCUUACAGAGCGUCGAGGACGCUUCGGGAUGACAAAGAGUACGAUCUACUUAAUAAUAUUGAGGUUC'
p795
aS'AUCAAAGGGGUCCUUAGCCACACACGAACCAUCCAUGCAAAGUAGCAACACCACCCACCCGGGCUAAUCGGACGAGUGUCUUAAAACAUCAUUCUUACGU'
p796
aS'UUAAACCUUACGUUUGGCUUCACCUCUAGGACGUCAACUCUGAAAGUAGGAGUACAUACUGUGCUAUCGGAGCAUGCACUCAUAGCGAGUUACGGUCGAC'
p797
aS'GUCGCUCUCAUUCCAACGCGGUCGUGAACACCCACAGGAAGCAUUGUCCUUCCUUCGGCUCAAAAAUUUGAGCUUCGCAUGGUGGUAUCUUAAAUAUGCA'
p798
aS'UGGUGUGUUCUCGGGGGAGAUAGUGAAGAUCAAUCGGCUCAUAAUUGAGCUAAUAGCAUUAAUGAAUUAUUUCCAUGUUAGAGGACGCAGAUCAACCUGU'
p799
aS'CACUCACGGUAGGGUAUCUCUCAUAUGCACGAAUCGAUUCAACGGGCUUUGUCAAAUGUACAACCAAUCCUGUAACAUAUACCUGCCAAUUGCCGCCCUC'
p800
aS'CGCUAAUGGGGAAUUGAUCUAGAUCUGGAACAACACGGUGGUUCGAUGUCCUUUCAGGAGGAUUACUAGAAAAAGAGGCGCUUAAUAAGUCGAUUAUCAU'
p801
aS'GAACACCAAUUUCAUGCCGUUUGCGUUUCGCUAUGAAGCGGUAGGUGUCGGUAGUCAAUCUUAUGAAGAAGAAGAGCUUUACGUGAAGACGGAUGUGUUU'
p802
aS'GUUCUCACUGACGUCUAACACACACGAAUUACCUUGUACGGUCGAGACUUACGUUAUGGGCCUCGCGGACAAUUCUAACGCGCUCUGGUACACGACGCCG'
p803
aS'GCGCAGAUUAUGAACAAGAUCCUGUGGGUUAAGGCAUUUUUCUUUGGAAUAUCGGGUAUCAAAGUCUUGGUAUGCGCUAUUCGCCAAGAUCGCAAGCCAA'
p804
aS'GUUGCGCCGGUCUCUGUUCGUCUUAUGCAACACAUCGUAUAAUCGAGGCGCCCCUACGGUAGAGGACAGGAAGGUAGGAUAACCGUCAACGCAAGCAGAU'
p805
aS'GCAGUUGAGAUACACACGCCAAAUGUGAACCCUGCAAGGCGUCGUAUGACCGCGGAUGGGCCCUUUUGUAAGGUUAACAAGACCAAUUCGUUGAAGCGAC'
p806
aS'AUUAUAAAUUCUACCACACUUGAGCGAGUGCAGCUCUUGAAGGUCUAUCAGAAUGUAUCACCCGUGGUGACACACGAGUAGCAUGAUGGGGCCGGAUCGU'
p807
aS'CCUUCCGCACGGUGACAGGUAGAGCCUCCCUUCUUGACCUUCAAUACGGUCACUCUAGCUUAUUUUUCAUCAUCUUAUUGGUGGCGCCAAAUAGGCCCCA'
p808
aS'AGGCCAGUGCACAGCAAUUUGCCUUUGGCGAGAUCCCCCGCAACGGGGGUCAAGCAGCAGGGGCUUAUACCAGUUAUGAUAGCGAGUUUCCUUCAAGAAU'
p809
aS'GAUUAGUGGGUUACGUGGUCGCAUAUUGAUGAGGGGAUUUGGUUCCUGAUGGAAUAAAUACUCUACGGAGGGACCGUAGGGUAAAGAAUCCUUGUCUGUU'
p810
aS'ACUCUGAGGUAGAAGGAACCACUGCGAAUUAACUGUAGGUUACCUAUUCCUUAAAAUCCCGAGCCGUGCAUGAUUGUAGCAUCAAUAGGAGAGAUCGUGA'
p811
aS'GCUGAACAGGGUGUAUUUACAGGUUCGGCGUUUGCUACUGGAGUUGGCCACCAGCAAACCGGGCUACCUUUCGGAUGCUGGAGAAGAGAGAGGUGGGGUU'
p812
aS'CUUCUAAUCUGGCGGCAAUCUUCCUAUGUUUAUCCAUGCGAGUAUCCGACAUGAUCCGCUAGGUGUGUCUAUCGUCUCAUGGAGACUUCCAAAACGCCCG'
p813
aS'GCGGGCUGGUGGUCUAAGUCUGGACUGAGAAAGGGAAUUUAUGAUCCAGCGAAGCGCAGUACAAUUUGCCACGACUUAUGAAGCCGUACUGAAAUGCACA'
p814
aS'CAAUGGCUUGACCCCCGAGGAACGACAAAGCACCAUCGCUUGGCUAUAAGCAGAAUGCGCGGAACAUCGGUUUCUACCGUACUAGUCGAAAUGGAUGGGU'
p815
aS'AAGGAGUGCACGAUACUAUCAACGUGCUGCUAUACUACGAUUCGCUAAACAGUUCUCAGGGAAGAUGCCACCGCCAUAGGAGAGAGGCUCGUAAUCCCCG'
p816
aS'AGGGUGGGCCAUUUAACUCAGAUAUUUAGCGCAUACGCAUUUCAGCUGUACCUCAGCGGUGAUUAUUACCAAAUACUGCGUCCACCUCACCCUUCCUCUA'
p817
aS'UACCUGUAUUUCCAUAUAGCGUAAUCAGACGCUGACUACCAAGCUAAAUGCCUACUCGUGAGUUGUUGGAGAACUGUCCGAGGAGCACGUAAAUGGGCGA'
p818
aS'CGUUACUUACACAGCGAGCUUGGAGCAAUCGGCAUCUGCGGACUAAUCCAAUUGCAAUUGAAGCUUAGUGGAAGGCACGGCUGAAGGUUUCAGGCUUCAC'
p819
aS'CUCCAUGAGAGUGGCCGUACCUUUAAUAAAUCGGCGCGGGCUACAUUCCCAAUCACUAAAAUCGGCUACAUGGAGAGCUGUAUCGGGGACCCCCACCGAU'
p820
aS'UCAUUCGCUCAUAGCUCGUUCGACACUUCAAGCACUCAGUAAUCGAUGCCGAGGGUUACGCUUAGACAGUAACGACCUUCGGCGGCAUCCAGUUCGACAU'
p821
aS'AGCAGGUCGCUCCUGGUGACGUGUAUUUUACGGUUAUACCAGCGCAGGCAGAUAGGUGGUUUUUCAAGGCCUGUCGGUUAGGUCCCAUGUAGCAUCCUUU'
p822
aS'GUUGUGGGACCACUUAGGCCCGUAUAACCCCGAUGAUUCCGAAAGCGCGACAGUCCACGGUUACGAGAGAUCUAAAGGAACGUCAGUUCAGGGUAACGUU'
p823
aS'GUUCGGAAGAAAUCGCUGACGACCGUCUCGCGCAGUCAUGUAAUGAAAACUUCCAUGUGGUGACAAAGCGUGGCACCUUAGGCGUCAAGGUGACCGUCCC'
p824
aS'CGACUUUCUGAGAUACUUUCGAUCUCUCAAAAGACCGUAGAACAAGUUUCGAAUUUCAGUUCUAUACCGAUAGGACUUGCGUAUCGCAUCGGCGAGGAUU'
p825
aS'CUAUCUGCGUUCUAGAGAAAUGUUCAACAAAGCUCAUCGGCCCCUAAAGAAGUGAAGGAGGUAGUGGGUUUUAAACUGCUAUGACCGAAGCCAUCGUCAC'
p826
aS'UACAAAACUUGCUUGUAACGGAACCAGCCUCCAUUCGUGUCCUCUCGGAGGAUAUAAUCGAAUGACAACGUCGUGACCAAAAAAAGGCGGCAGGCUCCCG'
p827
aS'CGUCCGAAGAUAUAGCUCAUGUUAUGGAUACUUCCCAUAUAACAUCCUUCGUAUUCGCUGAGAGCAUCUUGCUACAACGCCACCGGCUUCUGACGUUCGG'
p828
aS'CCUUUAUCUUGCUGCGGCUGGCUCGCGGAAGGACUUUCACGCAGCACUCGAAGCUUCCGCACUGCCAUACACCACCUUUUGCUUAAACGCCAAAAGUGCG'
p829
aS'CUCUUAAGACAUACAAUUUUGACUGCGAGGAGGUCGUAGGGAAGGGAACCGUUCUGGCUGUAGCAAGGUGAUAGUCGGCACGAAGGCCUCGAGUUCUACA'
p830
aS'UGCCCACCAUUGGCGGCCUGGAAAGACGCUUGAUCAUGUAGUCCUCCCUUUAGUGCUGCAGUGAACUCAAGCAUUGUCUUCGACCUACUUAACAGAUCGA'
p831
aS'ACGCACUCCAGCAGCCUCGAUCUUUUAGACACGUGGGUCACCGAGCGGUCGAGUCUGACCGCUUAGUCAUAGCAAGUGUUUAUUUCCGAGCGGUCAUUCC'
p832
aS'UACGCAGGCGGGCUGGCAUGUUUCGGAUCAUAGAGGUUCCACAGACUCCUUCAGACAAAACGCCCAAUAGCAAGGUGAUGGUAAGACUUUUUCUAGCUUC'
p833
aS'GGGUGGUAUGCCGUGCUAUUCAGUCUGAAGUGUCGCCACAGUAGGUUUAUACUGACAAUAAUCUCGCCGCAGACGCGGACUCUCAGAUACUCGAUUCGAA'
p834
aS'ACGAGAGAAAUGUUAGUAGCGAAAGAGUCUUGUACUACGGUAAAAUCCUAGCAAAUGCGACUGUUCGUGGAAGGUCUUCCCUAUUUUCGGCUCCAGGAGA'
p835
aS'CCUGAGUUCGUAUAGAACGCACCAUAGGCUUGCCUAGUUACGUUAUAAUGAACUAAAACGCAUGUAACAGCGGAUGGCGCAAAGUCAUGGACAAUUGGGA'
p836
aS'AAAGCACUUGGGUGCCUGUUACAUAGCGAGCUGCAGCCAGGAUGCCCAGCCAUACCGGACUCUAACCAAGUUGUUAACACGUUCUACCGGCUCGACGCCG'
p837
aS'AAUUAGAAACCCUAGCAUGCACACUUCGGUGAGAGGCCGUGGUAAAGUACGUGUAAUCGGCUAGGGAUCGGAUGUAUCUGACUUAUCUCGACAACAAGUA'
p838
aS'AGAGUUCCCGGUAUAAUUGUAAAUGACGGUCGCCCGUCGGUCUAGGAUGGGUCUCUGAGUACGUGGCACAAACCAAUACACAGACGGGGAUGGUGGUUCG'
p839
aS'CCACCCGGCAUUCAGCAACGAACAGGAGCUCUACACGCCGAGCCACAAUCAACACGGAACAUCGUUUCUACUCCCUUCACCAGAGAGUUGUCGGUGGGGA'
p840
aS'GCCACACGACCCGGUCUCACUCGUAUCUCGCUCCCCUGUCCCCGAAGAAUACCUGUCGUCCCUGAGUCCCCCCCGCAGUCCGGGUUUAUUUGCUUUCACU'
p841
aS'GCUCUGGUACAUGCGAAUAGGGCAAACUUGCCCUAGAUCACUGUGUAUAACAAUUCCCGUUAUACCGUCAGGUUGGACGUCUGGUGGCCACUCCACCGCG'
p842
aS'CCCAUAUAGCUUAUAAUUCGUAGUACUACGUAGAGAUACACACGCACUCAUCAUGAUACCAUCGAGACACGCGUCGUUUUUGCGAAACGCAUUUGGUAUU'
p843
aS'AGACCUUUCUGGUCUCCAGAUGUCUGUUUCCGAGCCAAAAGCGGGACUGCUGUUACAGAUGGUGUUCUCAUACAUGCAUAAAGAUUAGUAGGCUGUAGGU'
p844
aS'GAUGGUAGUUCAAGACGACGAUGUCGCUGCUAUGUUAGGUCGUUGUUGGCGUACUAUCUGUCCAAGCCAAGGUGAAUCACCGUUACCUACCCCAUGGUGG'
p845
aS'CUCCGACAAUUGACAAUUCUGUAACGACAACCGUGAUGUGUUCGCAGUUCCAAUGGUGCAUGCGACCGUACGUUGUUUAGACCGGAAAGAAGCCUAGGAG'
p846
aS'GCGGGCCCCGUGGGAUCCAUCAGCAGAGAGGCAUCCUAGGUUAGUUGCACUAAUCCCCCCCUAGCCCCUAUAGUAGAGAACCACGAGCGGGUUACCCCGA'
p847
aS'CAUAGUCACGGCAUGAUAGGGCCCGAUACACAUCAAACUGCGAGCAAUCGAGUACUGACGUUGUGCAAUCCCUCCCUUGGGAGAAUAACAUAGUGAUAAU'
p848
aS'ACGACCAUCUACAGUGGGCUCGGUAACGUCCAUAGGAUUUUCAAUCCCUGGGAAUACAAGUGGAAAUGGUGCAGCACUCCGGGAAGUCCCUCGUACUAGA'
p849
aS'GAGCGUGCCCAUCGACCCGAUCAAAUUCUAGCCGUAGAAAAUAGCUUUCUUCUGUGAAGUGAGGGGGCGGAAGAACAUGCCCAAACAUUCUACCAAACAG'
p850
aS'CUGGGAUACCAUGGGGCGGCCCGAUUUUCAGCCAUUCCACGGGAUGUCCUUUAGCAAUUCUGUUAUUCUCUUAUCGAUAUAGGUAUGUCGCUCAUUUGUG'
p851
aS'GGAGGAUAGGGUCGCGGAGGUCUAUUCAUGGUUACUGGCGUAUUACUAUAAUCUGGGUGGACCGCACUCAAGUUGAAUUGUUCGAUGACAACCGCGUCGG'
p852
aS'UCGUGUCACCGACGCGGAGACCAAGAGGUGAUUGCCUCCCGUGUCAUGGAGUGAGUGCUCAUACAUUAGUCACAGGCACGCGCCGCUGCUUAAUACAAAC'
p853
aS'UACCUGCCUAUGCUACAAAACAUAGUAUGGUUUCCACAUGCUGCGAAAAGUUACUACAACACGGAGGAACCCCCGGUCGAUUAAAGAACCAAGGCAACGU'
p854
aS'CCCUACCGGUCUUGAUCCAUCCCGAGUGGCGGCUUUGUACCCACGUCAGCUCCUCACUCGCACUUCGGACUAGUGCUAUAGGCGAUGGUAUAUUGCCCCU'
p855
aS'AUGUCGCAUUUACGUACCCGAAUCUCACACUGGACACGGAAACGUUCUACGGCUAAUCCAGCGAGAGUGACGGCCAUGAGAUACAGGAAUAUGGAGCCUC'
p856
aS'UCUACACAAGCAGCGAUAGCACCUUGGUAAACUUGUGGUAGGAGGGCGAUUAGGGCGCGUUAUUAACUCCAACCCCCAUAGUUGAAGUGGCGCUAUGCCC'
p857
aS'UUAAAGAGGGGCGCGCCCGUACUUUGCAAUCUCGUCGCACCAGCUAGAGGUGUUCGGGCACGCGGCUUGAGCAGUCGUACGAAUGCUGAGGCGGGAGAUC'
p858
aS'ACUCAAAUCCGGGGGUCCGUGCCGAUCCUUCCACUGUUCUGCGUUCAGCAGGUACGAGGGUUUGGUGAAACCGCGUGGGGUGAAGCCUUCCUGUUUCACA'
p859
aS'AUCACUCACUAGUAAUUGGGAGAUCUGUAGGCCAGGGAUCUAGCAAGGUCUACCCAUUGCCGCGCUUGGGAAUUACAUGUGACUAUCUUGGUUCGCCUCA'
p860
aS'ACGCCAUAUCGUCCUGGGUGCUGUUCGAAGACUAGACUGUAUAAAAACAACUCCAACUAUAUUGAGUGGUGAGUGGCUAAGUUAAUUUAACCCUUGGAGA'
p861
aS'UAGUUCCAUUGUACCAGCGUAUACAGAGUUUACGGGAACCAUAUGCCUACUGUUUCUGCGAUGGCAAUGACGCCCUCUUAGCGAGUCCGAGCUUCCCUUU'
p862
aS'GGUUCUGUCUAAAAUGAACAAAAAAGGCCCGUUACGCGGCCAAGAAAAAUGGGAUUCGGGCCGUCCAAGAGUUUCACUAAGACGCCAAUGACUCUAGCGG'
p863
aS'CACAGGUGGACGUUGUGGGUCGUUUCCAGAGGGAACAAUGUACCUACUUAUCUUAGUUGCGAACUGGCGUCUACAAUGAUACUUCCAACUAGCCGGAACC'
p864
aS'UUACGAGCUACCUCUUUGGCGUUUCUCACCCACGGAGUGGUCACGGUAAUCUCAACGCUUCUUUAUCAGUCAGAAUCAUGCAGACUUGCUUUCUUUGUUC'
p865
aS'UGAAUGCCCCUAUAAGUUAUCGUAAGUUCAUGAGGAGCAGCAGCGACAACGAUUAAGUUAUUCGGGCUUUCCUCCACGUAUCAUUGGUAUGGAUGACGGA'
p866
aS'UGGAGACAGACACAUGCGAUGCCAACAUGCUUAUACCUCCUGUGCCCAAGUAACGGGAUAGCCUCAUAUAGACCUACGUUCGCAUGCUCUACAUGCCACG'
p867
aS'CCUCAUGGGACGUCCAUGUAUGCCCAUGGGCCCAUGACCUGCCCUUUUACUCCGUAGCGCAGUACGGAUCGAAGUGAGUGUGUUCCAUCAUGUUGGGGGU'
p868
aS'UCAAUGCACUUUGCGAUCCGUUUCAGCCAAGGGUUCUCAAGGCGGUCAAGGAACUAAUGGUGUUAUUUCUCCAGCGAAAUGUAGUGACACGGUGAUUUCA'
p869
aS'AUACGCCGCCUGCGCACAUGUGAGCAAGGCUCCAAUCAAAGGAGGUAUGAGUAACCACUUGGCUUUCGAGGAUUCGGAACUAACUGCCAAUCUCUUGCAU'
p870
aS'UCGUGUACAAAGCCGACUUGAUAGCCAGUACAUUCAUUGAAUGCAGCUUCGCAGGUCACUACAGCGGCAGGCGAACCCUUGAGGCCUAGUCAGAGUGCUU'
p871
aS'GUCUGAACCAGGAAGGCGUCUGGCUACGGGGACUAUAGGUAUUAGCUCUGCGCGUCUUAUCAUCCUGGCUGGCCCUGUGCGAGUGCCAAUCCCGGCGCGC'
p872
aS'AAACUCGGAACGACUAUAGUCAUUUGCCACCCUACGCUUGGCUGAAGCUCGGAACCGUCGGAGCGCGCCGCAAUCCCUAGCGGUCUCCGGACUUUAUUUA'
p873
aS'ACCCUGGAUGAUUUCCCUGGCUUCCCGAAAAUACUUUUACAUGAAUCUGAGAAACACAUGGACAUAGGCAGGCUAAUGACCUACCACGGGCCAGUAUUUU'
p874
aS'GGCAAACCCUGCUAACACACGUCGGUUGCGCAUCUAUACUUUCGAGAGAAGAUCCGCCAAGCAGCCUUCGUUUUUGCUAGGGAUCUUGGCCGUUCAUUUA'
p875
aS'GACUGCCAAUGGCCGACAGUCAGUUUAUUAGUGUAGUAGAACACCCUGCCAAUCACCACUUGUGCGUAUGCGGUGCGAGGCAUAGUAUUACGCAAAAGUG'
p876
aS'AUUUAAUAGAUAACUUUCUAGACUUAAAGGUGCCUAAGAUCUGCGACGGCUGUCUUACGCCCAAGGUAUGUCGCAGUUUGGCGAGACAGCAAGCGCCGCC'
p877
aS'GUGGCAGCGCUUGAGGAGUAAUUUGUAUCCGUCGAUAACUCUGCAAGCCUCACAAUGGAGCGUUAUGGGGUAAAAGAAUAGAGUUAUACCUGUAGUUAUC'
p878
aS'AUGACUCAAUCGAUAUCCUUGCGCCCAUCACUGGUCUGCCAUUCCCAUGACCAGUUAUUUACCACCCGUUAGAUAUGUAAUUCCGACAUAACGCACCCUG'
p879
aS'UCAGCUUAGUUCCCACAUAUUCCUAGAUGGGGCGAGUGGCGUAUCCCCACAGUCGCCAGCUCGCUUGUCCUCAUUGUCUGGCUUUUUGUGCAUCCGGGAG'
p880
aS'GAAAGCUUAUGUCGGGAGCUGUUCCUCUUACAUUGGGGGUAAGCGAACUGCGCUGGAGAACUACCGGCCGUGCUUGUGUGGCCAGACAGCAAUUCGCCCA'
p881
aS'CUCCAGUAGCUAGAUCGUCUGGACGCCGCCAAAUUUAGAACUUAGGUUCGCAAGCAAGUUCUACAGAUAGAUCAUUCAGAGAGUGUUAGGACUGAUUUAC'
p882
aS'CUGUGCCACAUGUAUGGAAACACUCACCAUGUCUUGGACAAAGAAUGCGUGUAUGGAGUUGUCCAGUAUACUUCGGCAAUGCGAAGAGAAACGCGGAUUG'
p883
aS'AGCUGCCGCACAAGUGUAUACCCGGAUUAGGCUUUAGACCCCUGAAAACUAAUCGGUAGUGACGAAAUAGAGUCGUUACCACGGCUAUACCUAGCCACGA'
p884
aS'UACGCAACGGGCGAUCAUAGUAGACGACGGACUCGAGAGACGCUUACCCGGCAAGUUGGAAGCGCGUUGUUCCAGUGCGGGGACCGCAGACCGUCACGAG'
p885
aS'UUCUCGCUUGUUGACCGCGCAUUCCACCGAUUGAAUGCAGGGAGUAUUACGUGCUGGGGGGAUAUGCUCUGGGAAGCUUAGUCAGCGCCUGGCGGCUGGU'
p886
aS'GAACUUCAGCGUCGGCGUCUCCUUAAUUGCCCUGACACCGCCCCUAAGUGGAGUGACUAAAGACCACGUCGGCGGGUGCUGGCGCGUCUCCUUUGCCUUG'
p887
aS'GGACCUAUAUCAUCACCAUCAAGUGCCUGGGCUCGGUUCGGUGCUAGUCAGUGUGGCAUGUGGGCCGUAAAUAGACCCGCCUCCGACCCGCGAAUCGUCC'
p888
aS'CUUCCGCGAGCUUUGUCACAACGGGCCGCCGAUCAGCCGUGUGAGCGCUGCGUGUCGUUGGGUCCAUACGGCAGCAUUCAAACCAAUAGGCAUUUCGAGG'
p889
aS'GAGGUUGUUGCUUUAGCGCGCUCUGUCCUGGAGGGCCCACCGGGCCUAUGGGCGGCUAAUAUGGUCAUCGCAGACUUUGCAUAUCCUGAUGGAGUUGACC'
p890
aS'CCUAUCCGCAAGGCGGGUGCGAGGCAAAUAGAUACGAGGAAUCCCUAUUAAGAGUGCGAGGUGUCUCCGGUGAAAAACGGUCUUCAAUUUUCGAAACCCA'
p891
aS'GCAUGCCAUCGGUGAGCGUUAAGGCAGUCCUUAAUCUAAAUAUCUCGUUCUGCUUAUGUUACUGAAACCGUGAACCCCCGCUUGGACAUCAGUUGUCCUG'
p892
aS'CUUGAGUGCAAAACUAUGGAAUCGACGACAUCUACAGACGAGUACCUCGGUAAUUUACAAGGACCCGCGAUAUUACGGAAUUCUCUGCUGGUGACUAGUA'
p893
aS'UGAGGUAUCACUAGUCAUUUAUGAUGCUCCAUCAGCAGGGUGCCUACCCCCGUGUCAAGUCCUGCAUUGCAACAACGCCGGGUAUGCGUGGCGUACGGUG'
p894
aS'GGUAACACUCCAAGGAACGCCAGGUUGGGAUCCUAUCAGGUGCACUUUGUUGAGUUUAAGAAAGCGCUCAGGCCGCAUGGGGUACUUGUAGGUGGGGUCG'
p895
aS'CCCCGUAGUCUCUAUCUCAAAACUGAAGAACUAAUGGAUAUAGACCCCUUCGAAGUGAUGACCGCGACACCCUUGGAUGAGGAUACGUUUAGCGUAUUGG'
p896
aS'GUAUCCAGUUUCAUAGGCUCCCCAUCCCAUCGUCUGUUGUGGGUCCAUAAUCCAAAGGCACUUCCUCUCAUAGGAGCCGAGGAAUGCGGCAAAGUGGUAA'
p897
aS'GUGGCAUUCGCCUCUUAGUUAUACGCAAGCGACCGCCUCUUUUUUGUCAAACGUCGUACCCCGAUUGGCGAAAUUCCAUACGUUGGACCGGUCGCGCUAG'
p898
aS'AACAAACCAGGACUGUUAAAUACUUUAAGAGCCUAGAAAAACAUAUGGGACAUGGUUGUGUUAGGGGCGGGCCAGAACAGCGGCGAUAGUAGUGAAAACA'
p899
aS'UCAAGCUGUCCCCGCUUCAGAGCAUUUACGCAGCCAAAGGGAAUAAUAGUAGCGACCACGAUACAGUCAUAUUUUCGUCACAGACGAUGCAACUCUUGUC'
p900
aS'UGAUGGAGCAUCGGCCCGGUACGCAUGCCCUGUUUCGAGAGCCUAGUCUUUCAAGGUCGGAUAGCGACCGGACGACUUUUAACGGCGAGCUAGUUACCCA'
p901
aS'GUCAGCUUUUAUUCCACGUGUGAUCGAUAAUCAGGAUAUGACAUAUCGAUUCGGGGGGAUUGCAUAUCUCAUGCGUUUCUCUUCUCCACUGAGGCCCAGG'
p902
aS'CGUCGUUGAUUGCCUGGCGGUCAAGUACCGUAGUAAUACGGGAGGCCCAUGGCCGAGAUAUGGUUGUAGCAUGGUCGACUCAGGUCAGACGCCUGGCGUG'
p903
aS'GGACCACGUAGGACGCCAUGCGUUUGUAAAAUAGGACCGGGCGGAAAAAGAUGGAUCUAUUUGACACGUUGUGCCCCUACAAAGAAAACUGUCGUAUCCG'
p904
aS'GAACGCCUGAGCGGACCUGCCAAUGGAACACCGGGCUAGAUAAAUUGACUUUGUAGUAGAGCUUGGAAUGGCUCCUCUACUUGUCUCUCGGUCUUAGCUA'
p905
aS'CCAAUACCUCACACCCGCCCCAGGACGGGGUACGUGUAAGCGUAAAUGACACUCAGGAAAAGCGAGAGUGGCUAUGGCACGAAUUGGGGUGCUCUGGUUU'
p906
aS'UGAUGCCCGAUCCUACGAUCAGAAUUCUGCUUCUAUCGGGGGGGUUCGAUGGACAGUUUUUCGAUGGCCCGGCUUUGCGCGAGUUCUAACACGCCGGGAA'
p907
aS'UACCUGAUCUGUAACCGACUUUACUCCACGACCUGCCGACGGACAGGAUAUCGACCGAGUAGUGCCAGGGAGACCCCAAUCGUAUGCUUGUUGAGGCUUU'
p908
aS'ACAUCUCAUUCAAUUUAAGGGGCGAUGUGGUAUGUCAUGCGCGAAGAGGGAUACGGAUAAUAAUGUAUCCUGUUGGCCAGAGGCAAGUCCCUGGGUAGAA'
p909
aS'GCGGAUAAAAUUGCGUACUCGCGGUGCCAAUGAGAGUGCAUCACGGGAUUGGCGCUCCUCGUCCAAAUGAAUUCCUCCAUCCUACGGCCGCCAUCUCCAG'
p910
aS'GGAGCAAAGAGUGGGGUCGUAUUCCAACUGAGAAUGUACUCAUCAACACCAGAUUACGGGCAAUGAGCAGACCUCUAACGAAGGUAUUGCUCCCAGAAUG'
p911
aS'ACCGUUGUAUCAGCCCGAUCCUUUCUCCUAUCAGAUUCAUACCACGGCAUGCUGGGGUAUGGUUCGGUUUAACACAAUGUCUACGCGAGGACUCCAGUUU'
p912
aS'GGAAUCGCAUUAACUGCAGCCGAGCAGGGUCGCGUCAGCCCCUGUCAUCACGUGAGCCACGGCGCGGUAUAAGAAUAGGGAAAGAAGUCUAUAGGGUAUG'
p913
aS'ACGCAGUGGCAAAAUGCUGACGAUAUUUUUGCACGCGUCAUUAAAAGUUCCACGCUGUGAGAAUCAACGUCGAGCCCUGAUUGUCCAGCGAUAGGUAUCG'
p914
aS'UCCUAUAAUGUAACCAGGUCUGUGUAAGGGUGUUUUAGAGCGAGGUGUUAUCAGACACCUUGCCUAGCGAUCACGACGCGCGUGUUCGGGGGCGUGAAUU'
p915
aS'ACACAGACGAUCGGAUUACAGGGUGUUGAAAUAAGGUUUUGCACUAGCUAUCUGUAUUGGUCGUUGCUAGCCCUGAGUGUAAGCCUUUUGCAACGGUCGU'
p916
aS'GCCGAUAGAGUGCCUGCCCUUCCUUCAAAGGGACGGUACCUCCCGCCUGUGCGAUGUUUCUCGGCCAACGAGCUGGGAGUCACAUUAAAGCGACAUCGAA'
p917
aS'AUACUCCGUCCUUAGCCGUAUAAGAGGGCCCGAACUGUGCGAUCUGAGGCUCAAAGUUGUUUGGAUCUCCUCCCCCUUUAGGGCGCGGCGUGUUACUCUG'
p918
aS'UCUAUCCUGCUUCAUACGAGGGAUCUCCGAAACGUAACAGUCAUUAUACUCCAUAGCUCCGUGGGGGGGUGUGCAAUAGUCGUUUUUCUCCCUAUUUUUA'
p919
aS'GCAUACAGAACUUGUCUUUUGAGGCAAUGUAACACCCAUUAGGGCCCGUUCAAAACUAAUCAUGCACUCUAGGCAAUAGCCGAUACAUGGAGCCCCAGGU'
p920
aS'CGCGAUGUGUUUGUGACAAGAUUGUGAUGGUGCCUGCAAGCAAGUAUGGGGAUUAGUCCAUUUUUCGCCGCGAAAGUUGUUAUUUAUCUACGCCCUCCAA'
p921
aS'CUAAACUACGCCAUAGGAUAACGGGAAGCUGGCAACAUGCAGGCUCACGUAUACGGAGCGAUGGCCGUCAAAGGGUAGUUUAGGUAUAUUAUGCUGUUAA'
p922
aS'ACAGCCAAACGGCCACGGUACGGAAAUCGGUCAAUCCGUAGUUGGGUAAUUGCGGGCAUGUGGGUACACUUGAUUGACAAAUCUAGUUCAUCGGGUAGUA'
p923
aS'AUUUGGCUAUGUCCUCCCCUGAAUAGAAUAUGAGCGUAAAUGUUAUGCGUAAUCCUUUCCCACGUCAAAGACAUUAGGCCCUGCUGGAAACCAUGCAGAU'
p924
aS'UACAAACAAACUCAGAGCAUGGAAAGCGAGUAAUUACGUUGCGAGAAUUCGCAAGAAGUGAACACAUGGGAGAUGGAACGCUCCCAUCAGUCAGACCAAU'
p925
aS'AGUAUGUGCUCCCAUGGCUCAUUUCUUGCGCCUUCCACCGCCUAUGACCUUAUGACUGUAGCUCCUGCGCGCGGACCCUCUGAAAAGCUUCCAUUUCACU'
p926
aS'AUGAGAGGUCGAUAACAUACUGUAACACGUCCAAACGACACGUCAAAUACAUCCCUGGGAUUUGGUAGUCGCAUUGACCCACCUUCGCCGCUGAUUAUUC'
p927
aS'CCGCCUUAGUCGAUUGUGACUAUAGGCGGCCCUUUCAAUAGAAAUCACUUUCCUAAAUGGAUAGAGGAAGAAGCUAGCUAGGACUGCUUGGGACGUCGUA'
p928
aS'GUGUUGCAACGCGACAGGCCCUAUAUCCUUAGUCCUUAUUUGUUUGCCGGCAAAAAAUUCCGCAUCGGAACAUCACAGUUCCCGGGCGCUGGGCCCGAGG'
p929
aS'CGAGCAAAUGCCAGAGCACUACGGUUUGUUUGCGAAUUAGGUAUUCGUUAUAGUCUGCCACACGCACUGGUAGAACGCAAGGAGAGGCUAUACCCUCAUU'
p930
aS'ACGAGUCCCACUAUGAAUAAGCCUGGAUUACAGUUCCGGCAAGGGAUCUUUAUAUACUGUGUGUGAUGGAUAUUCAUUAUGCACGAUAAGGGCCCAUCAC'
p931
aS'GGGUGUACUCCUAGUGCUCGGGUUGCAUUGUUGCAUGCUACCACAGAAUUCAGUCGAGUCUUGAGCACCAACAAUCUUCCCGGCGCCGAACAACCACUUU'
p932
aS'UCUAUUGAGCCCGUCGGGGGCCAGACUAUACCUCCAGCCUCAAAAAAUUGGCUAAUCACGCACGGCUCAAAACUAUUAAAGCCUAUGCAAUGCAAUACUA'
p933
aS'ACCGCAUCAGAUAAUAUCCCCGUGGUACAUGACUCAGUUUUGCCGGGGUUCCCCUGGAGUGACCGCUUAAUACUCUCCCUAUCAUGUGCUAGUAAGCCGU'
p934
aS'AAAGCUAUGUACCUCACGCCAACCGCUCACGUCGGUGGUUGUCGAGCAAAUCGAAAGUACUCGGUACAUGCUCUGAAACGGAGGAGGUCCAUGUUCACUU'
p935
aS'UAUUUGCCCAGGGAUCCAAAGGGGUAGGUGGGUACGGUCGCGCCGGCCUAUCACGGGGAUUCUCAUUGAUAAGCUGGAUGUGGCGUACGCUGCGAGACAA'
p936
aS'AUACAAUGACCGGUGGCUGAGCCGGACCUCGGGAUUACGGUACCCUAACCGCACGCGAGUCAGAACUUGCGUGAACCUGACCGCGAGACUACGCCGCACC'
p937
aS'CGAUGGCCGAAACCAACACCGAGACGUCGACAUGUAGGCUAGUAUAAAGAGCACGGACACAUCUAUAAAGAAAGGACUCGAAUCAUAUAGCUAAUCAUUG'
p938
aS'AUGCUGUUCUCACGGACAACACAGGGCCCACUAGGGUAGUUCGAAAUCGAAGCCGUGUGAGAAUUCGGGAAAUAAAUCAUGUGAACGCAGGGAGCUUUGA'
p939
aS'AGAGUCUCCUGGCUCUGAACGCGCUUACGUGCAUUGUGACCAAUAGCCGCAUGUACCAUACCACUUUUCCUAGGGAAUGCAUGCUUCCUCGUGCCACACU'
p940
aS'GAAACUUAGUAUCACGUAUCCCGAGAACGAGGGGCGUUUAGCACUUAGUACAACAACUGUCCGGUUAAUGACGCUCAUACGGGUGCGACCACUCCUGUCU'
p941
aS'AACUUGAAUGCUGUGAAAAGAGUACACAAAGCCGGAGUGUUCGGGAGCGUGUUACUCGGCCAAUAUAUCAUACCGUACAGGCCGCUGAUAACAACCCCAC'
p942
aS'AAUUACCUGAACGCUGGCCCCGGACACGACAGGCAGCCUUCUCAGGCAUCCAUUUCCGGCGCAGCUCUCAAACUGAGCUCUCGUUCACAAUCACGGCCUU'
p943
aS'CCGAGUGCGCACAUGAUCUCCGUACUGUUUAUGUGAUGGUGGUCGUACUACACGGAUAUCAGAUCUGCAUUGCCAUAGCCAGUGUGUAGAGAAUUACCCA'
p944
aS'UGCAAUCGUAUGCCCACCCUUGACUGAUUAGUUUAUAUCAUAACCUAUUCCUACUACGAGUGGCCAAAGUCAAUCGGCAAACCUCUACAAGACCUUCGCA'
p945
aS'CGCAUUAAACAGGAGUUCAAUAUGUCCUCGGGCAGUAAAACAUAUGAUAAGUCAUUUGGUAGAUUCGGGGGUAAGAAUCCGCUGGUUGGGUGGUUGGGUU'
p946
aS'GCUGGCCUCAUACUAGGACACGAGCCGUUGUCCGACCGUCCACCUCAUUUUCCUUCUUUGACCUCUCGGUCACGGAGAGGCGCGACCGUAGCAUCGUAGG'
p947
aS'ACUUUUCGCCUCCAGGGACUUCCAGUUGGCAAACGGACUGUGUUAACUGCUAUGACUCUCAUGCUCCGGGAAUCGUGAUAUGUAAGAAGGAAACUACUCC'
p948
aS'UCUUCUUUGAGCAAAGUCACAACAAUCGCGCGUAGUCUGAAGAUUAACAGCCGCAAAAGACGAUGACGGGAAACCUGCACCAUUUGGCGGUGUAACACCU'
p949
aS'GCCCCAACGAGGGGAGUCAUUUGGGCUUUUAAGGAACAAGAAAGUAAUAAGAGGGCAAUCGGGUCCCCACGAGCACUCCCAGCCUUUUCUGAUCUCGUUA'
p950
aS'GAUCUAUGCCUACCGGAUGACGAUGGCGAGGGUGUAAUGAUUAUUUUGGUGAUAGUUUAAUGUAAAGCUCUCAAACCAUGGGAAUGAUGAAAUAGUUGAC'
p951
aS'GUUUUCAUUUCCGGAUAUUUACCUCAACAUGAGUGAGUGGUGGGACCUGACAUGAGGCAUUACACUUUAGCGCGUUGUCCCUAAAUCAGCAGAGGCAUCA'
p952
aS'CUUAUGAAGUUCAAAGCUUGUACCCAGAUCCGGCAUAAAUUGCAGGCACAGGUGUCUUGCGACCUACUAUCAAUACGCAGCACUGUUCAAUGUCACGCCA'
p953
aS'CUGACGUAAGACCGGUCCAUGCCCUCUAGUAUGAAUAGAACGACUCGCGACCUACCGGACGGCUAAACGCCGCAAGCUUUGAAUCACACUGAAUUUUCAC'
p954
aS'CGGCUCUACAUGCCGCCCAAGAGCGGAUUGAUCUCCGUUAGCAUUUGCAAUAAUAUACGGGUUUGAGACCACAGGGCAACUGAUAUACCAUCCUCUUAAU'
p955
aS'GUUCUAUUGAUCCCAAACCGCCGCUAACGUGCAGGCAUAUCGCUAUCAUUACCUAAAGUGGUCAAGUAGCACUGGCGGAUUCCAAAUGCGCAGAAUUAGG'
p956
aS'AACAAUCUUACGUGUCCCCCAGCCAAGUGAGCGGCCAGUCUGUAUUCGGGUGUUCAAUUUUGGAGAGUUCACCGCGGGAGCAUAAAAACUCGCAAGCGGA'
p957
aS'GAUAUUUCUUGGAACUUCAGAAGGCCGGCAUCAACUAACCGAACACGUCUGUAGCCAUAAUCAUUGGUUGAACGUAAGGGCCCCUUCCGACAGCGAACAU'
p958
aS'UUUCAGCAAAACUAGCCCAAUAUUGCCGCCGAGGACUACUAGACAAUCAAAGGGGAUUCAGACUGGUAUAACAUCGUAUCAGGGAGCAACUCAUCAACUC'
p959
aS'UUGCUUUAGAGACAACGCAUCCUUCAAUGAUGUCAGUCGACAGUUCCACCGGGCAAGAAUAUGCCAAUCUACACGACAGCUAUUUCUCACUAGUACACCG'
p960
aS'CGGGGGUCGGACACCGUCAAACGUCAAACCUUGUUUCUCGCUUAGGAGUAAAUUCUUGGCUCGUCUACCGAUUUCCUCUUUAUCUUAAUAGGAUUCGGCG'
p961
aS'AGCGCUCUGUGUUGUACCUGUUCCCAAAUGGCUACGGAACACGAGGAGUUCCUGCAACAGCAUUUCUAGCACCUCGAACGGGUGACAUGUCGCAUGUGAU'
p962
aS'CGGGUUUGUGUUUGGGCAACCCGCUCUGUUGCUAAACACCUAGCUGCUACUCAUUAUGUGUACUUGGUUCGUGGACAGGAGUAGGGAGGUCAAGUACGAG'
p963
aS'ACCAUUUAUGACUGCUAUGUAGUCGCUCCCUGUACAAUGGUGAGACAAUUACCGACGGAGUUCUGGUCGCACUUGGUUGACUAGCACAUUACUCUCAAAA'
p964
aS'AUUUGAAUGACCUGCGUGAAUGGAAUGCAACCCAUUGUUGCCUACUCACAAAUAUCCGGGACAUACAUAUAAGGCGCGUAAGGAAAAUCGAGGGAGAGGG'
p965
aS'UAAGCUUUCACGUCUAGCAGCUGUCGAUUACGGGUAUUCUUUUACAAUGGGUCGCACCCGCCCGGGCAAGGAGCAGUCAGUCACAGGGACAAAGCAGUGU'
p966
aS'AGGCUCACCGAGUGGACGCGCCGAUAACCAUUCAAUCUCCUACGUGAGGCGAUGCGAAUAUGCCCGUGGGCUUGACCCAGCUACUCAGGACAUCGCUGUA'
p967
aS'CGUGGGUCGUGGAAGAGGCGGGGCGAAGACCCGCGACCAUCCAUGCGUUCUUCCGUACGGGAGGCCUGGCUUCGCCUGGUUCAAGAAAGUAUGCACCCCC'
p968
aS'GACGCGUGACUACGGUCGUACUGAAUACAGCGGCUGAAGCUCAUGAUCGUCGAUUUACAUCAGUGGAAAGUUUACAAACCAAAGGGACGUUCUCGUCUGG'
p969
aS'CUACGUGUUAGCUCCGUUUGAGGGCACUAAAUGUUGAGAUGACGACGGAUCCCUGAUGAAAGCUAAGACCUUCGCGCUUAUAGGACCUUGGGUCCAGGUA'
p970
aS'GCCCUAUGCUCUUGCCGUGUAACGCGGGCCCCGGUGCCAAAUUUCCUAUAAAUGAGAAGGAACAGUUCUUUGACAUUUCUUCGUCGUCCGGCGGAACUGC'
p971
aS'AUCCCCUCACGGCGCUGCCCAAUUCACGACAUGUUUUUGUACUGCGACGGCCCAAGGCUUUUGGAACGAAAUUUCAAGUGUACUUUGUAGCGGAGUAUGC'
p972
aS'GCAGAGUAGGGUGGCGACGCCUGCCGGUUAGGUGUGGCACUAGUACUGUAUACGAAGCUUUGCCGGUAGACAAGCUUCCCGUGCUUUGCAAAGACUUUAA'
p973
aS'CCCCACCCGCGACUGGAACGUGAAUGUACUCCACACUCUCUGGCCCCAUACGAACUACGUUUUUGAGGGUGCAGCAGAAAAAUUGUGUGUACAAAGGUUU'
p974
aS'CAUAAGAGAGAGACAUCUACGUAUAGUUGACUAAAUCUCGUGACUAUUUCAAAACGUAGACCAGAGAGCGGCUUUCGUUAUCAUUGAGAACCGUACGCGU'
p975
aS'CUCGAUAGGAGCGCAGUUCUACUGAAGAACAUCUUCGCAUGGUGGCGGAACGCUUGGCACGGCUCGCUGGUGCCUUCCUCAGCUGGAACAGGGGUGGGUU'
p976
aS'CAGAGAAUUACGCACCAGUCAAACAGCUUUCGGUAGUGCCGUGCACUGCUUUACGUCUGGUCCUCUUUUGUUCCUGAUAGCGGCGGGCUUCGGGUCCGAA'
p977
aS'UCGCCGCCGGCGAUGUCUAUGUAUCUACCGGUCAUCUCAGGGCGGGGGCCUCACCGACAGAUAAUUCUCGCUGAUAAGGGGGAUUCUUGUCAGUUCUGUC'
p978
aS'UCGAUUACUGCUCGUAAAUUCUCUGGGUGCGUCCUGUAGCCCUGGAUUGCAUGUAUAGCCUUCAUCAAAGUGAUUACAGGCUUAACGACGCUAUCCGUCA'
p979
aS'CCGCGCGCAGCGGCGAGGAGUGAGGAACGUUUUCUUAAUAGCCCCUGCAGGCGCAUCAAUUCGGUAUCGCUUUCGACUCCGAAUACUGAAGUGACCGAUC'
p980
aS'GUCAACAACUCCUGAUAACUUGCCUAUCGCCACUGGCCCAGAUGGCCGGCUCUCAGUGGAAAGAUUGUAUAUCAUUGAUUGCGUAGGCAGUAUGUGUUCU'
p981
aS'UGGUGUAAGGUCACAUGGUCCAGCUCAUGGGAACAAAUCGCUCUGGCGAGGGGCGCGCAUCAGUGAUUGCUCAGCGACGGGGAAUUGGCCGGCAGCCGUG'
p982
aS'UUAGUGAUUGGCUAACGGUACCCUUCGCAGCACAAACUGCAGACCCACUGGAUGAUUUUCGCCGCAUAGGAGCUGGGGGACCAGACCCCGGCACAGAGAG'
p983
aS'UCCCCGGCCAAGCCGAUUCUAUCUCGGGACGUACGACUGCGGACAUAAGCGGCCCUCGUGGCAAUCUUGCGUAGUGACCUCACAGUUUCUAUUAACAUAU'
p984
aS'UGGCCCCACCGGCCUUACUCGGAGGCAGCACGCAAUUUGGCAAACACCAACCACCUCAAUCCUAGCCCACAAUGCCUCGGCAGAGUGUGUCCGACCAUCA'
p985
aS'ACAUCUCACACUUAACAUCCUGCCAUUUGUCUUAAAGCCAAAUAUCACCCAAUAACAGAAGUGAACGCCAUCGAGAUAGGGGCUAGACUACGUCAAACGA'
p986
aS'GAUUAUAGUGGUUGCACGGGUGUGAAGACCGUUGAAAGCAUAUCAACUUUGCAAACGAUACAAUAUUGCUUCCUCGUAUGAGCCAACACGUGAUACAGUA'
p987
aS'CCGUGUUGUUGAGCCCUGUCGGUUCGUUGAACCUUCUGGAGCUACAGUGUGGCCGGUUUAACUACAUUGUCGGGGAUGCGUUGUGACGCGCGCUUCUUGG'
p988
aS'GUGACAAACUCUGAGACUGCGUGGGCAGUUGUAAUGUCGGAUGUUCCACCCAGGUGCUUCUGCGAUUCCCUAAUCAAAACUCGGUUCUAGGCUCGUAGUC'
p989
aS'CUGUAUUGGCGCAUGGAAGUUGAGGCGAUUAAUGGGAUCUAGAGUUAUCGCUGCGAAGGCAAGGUUUGGGCCCGUAAUGCGCGAGACAUCUGAUGGUUGA'
p990
aS'AUGGCGUAAACUACAAUUGGGAAAGAAACGACACACUAUUACAGGUGACCAAAGUAAUGGACAGCAAGUCUCGACGGUAAGUGCACGCGCUUGUGAACCG'
p991
aS'CAGUUUAUUGAGCUUAAUUCCACUAGCUGGUUAUAUACUCUGUCGCUGGGUGGUCUCGGUGUCCGCGUCGGGAUUGACGUGCUACUAAUAUCCCUCGGAG'
p992
aS'AGGCUUCAUAUGAACAGCCCACUUAUGAGCUAGUUGUGCUAACCUCCAAUCUACCUGCGACAUCCCUUGGCAACCUGCAGCUCCUGCAAGGCAGCAUGUG'
p993
aS'GCUUGAGUUGUCCGCGAAUUUGAGUCCAAAACGGUUGGGCUGUAGGCUUCUAGAACAAUAUGGCCCGCCGUGUAGUUUCCAUGCUCACUAGGAUGCAGGU'
p994
aS'AUUACCUAUAGCCCGUCAAACAGCGAAAUCGUUCUCUACCAGAUUGCCGCAGCUGCACUACAGGAGGAUGGCUCUGAUUUAGGGGAGUGAGCCGGUACUU'
p995
aS'GAGGAAGAACAACCACGACCGUCAGCCGCAAGUGGGUGCACGACUCGUAGAUAGACUGUGCUAAGCCCAAUUCAUGGAGAGACAAGGAUCCAGAACGAGU'
p996
aS'UCGUCAUGUUCCAGAUGUAACGUCAUCCGGCAGUGUCGGUUACCGCGUGCGUAGUCGCUUUAGUUAACGACUACACACGAGCUAAAAACUCAUACCCUCC'
p997
aS'GAGACCCUGAAGAUGAAUUGUGGGAACACUAUAAACAAGUUCGGACCCACUACCUGGUUCGUGUCAUGGGGUGUCUCCUACAACUGAUGUGGACCAGCAU'
p998
aS'ACUUGUGAAACGCCAUGUACAAUUGCGAAGUUCCUUCCAUCCUGGCGAAGAACCAAGACAGCUGAUCUGAGUCCACUGGGAGGCGAACGGUAGUCCCCCG'
p999
aS'GGUGUCUCUCGAUAGAAUCACGCUAUAAGUGAUCGUACGCCGUGCAAGUGUGUGUUCCCUAUCAUUCACGAUAGACAACAAGCUACUUCGCUUGACGGAC'
p1000
a.